
Automated_Greenhouse_Monitoring_System.elf:     file format elf32-avr

Sections:
Idx Name          Size      VMA       LMA       File off  Algn
  0 .text         00007868  00000000  00000000  00000094  2**1
                  CONTENTS, ALLOC, LOAD, READONLY, CODE
  1 .data         00000194  00800060  00007868  000078fc  2**0
                  CONTENTS, ALLOC, LOAD, DATA
  2 .bss          00000030  008001f4  008001f4  00007a90  2**0
                  ALLOC
  3 .stab         000076d4  00000000  00000000  00007a90  2**2
                  CONTENTS, READONLY, DEBUGGING
  4 .stabstr      000031d9  00000000  00000000  0000f164  2**0
                  CONTENTS, READONLY, DEBUGGING
  5 .debug_aranges 000001c0  00000000  00000000  0001233d  2**0
                  CONTENTS, READONLY, DEBUGGING
  6 .debug_pubnames 00000210  00000000  00000000  000124fd  2**0
                  CONTENTS, READONLY, DEBUGGING
  7 .debug_info   0000268a  00000000  00000000  0001270d  2**0
                  CONTENTS, READONLY, DEBUGGING
  8 .debug_abbrev 000014e0  00000000  00000000  00014d97  2**0
                  CONTENTS, READONLY, DEBUGGING
  9 .debug_line   000012a9  00000000  00000000  00016277  2**0
                  CONTENTS, READONLY, DEBUGGING
 10 .debug_frame  000001e0  00000000  00000000  00017520  2**2
                  CONTENTS, READONLY, DEBUGGING
 11 .debug_str    000002fe  00000000  00000000  00017700  2**0
                  CONTENTS, READONLY, DEBUGGING
 12 .debug_loc    000009aa  00000000  00000000  000179fe  2**0
                  CONTENTS, READONLY, DEBUGGING
 13 .debug_ranges 00000050  00000000  00000000  000183a8  2**0
                  CONTENTS, READONLY, DEBUGGING

Disassembly of section .text:

00000000 <__vectors>:
       0:	0c 94 2a 00 	jmp	0x54	; 0x54 <__ctors_end>
       4:	0c 94 0b 14 	jmp	0x2816	; 0x2816 <__vector_1>
       8:	0c 94 42 14 	jmp	0x2884	; 0x2884 <__vector_2>
       c:	0c 94 79 14 	jmp	0x28f2	; 0x28f2 <__vector_3>
      10:	0c 94 47 00 	jmp	0x8e	; 0x8e <__bad_interrupt>
      14:	0c 94 47 00 	jmp	0x8e	; 0x8e <__bad_interrupt>
      18:	0c 94 fb 0a 	jmp	0x15f6	; 0x15f6 <__vector_6>
      1c:	0c 94 47 00 	jmp	0x8e	; 0x8e <__bad_interrupt>
      20:	0c 94 47 00 	jmp	0x8e	; 0x8e <__bad_interrupt>
      24:	0c 94 47 00 	jmp	0x8e	; 0x8e <__bad_interrupt>
      28:	0c 94 fa 0e 	jmp	0x1df4	; 0x1df4 <__vector_10>
      2c:	0c 94 8d 0e 	jmp	0x1d1a	; 0x1d1a <__vector_11>
      30:	0c 94 47 00 	jmp	0x8e	; 0x8e <__bad_interrupt>
      34:	0c 94 47 00 	jmp	0x8e	; 0x8e <__bad_interrupt>
      38:	0c 94 47 00 	jmp	0x8e	; 0x8e <__bad_interrupt>
      3c:	0c 94 47 00 	jmp	0x8e	; 0x8e <__bad_interrupt>
      40:	0c 94 bc 1b 	jmp	0x3778	; 0x3778 <__vector_16>
      44:	0c 94 47 00 	jmp	0x8e	; 0x8e <__bad_interrupt>
      48:	0c 94 47 00 	jmp	0x8e	; 0x8e <__bad_interrupt>
      4c:	0c 94 47 00 	jmp	0x8e	; 0x8e <__bad_interrupt>
      50:	0c 94 47 00 	jmp	0x8e	; 0x8e <__bad_interrupt>

00000054 <__ctors_end>:
      54:	11 24       	eor	r1, r1
      56:	1f be       	out	0x3f, r1	; 63
      58:	cf e5       	ldi	r28, 0x5F	; 95
      5a:	d8 e0       	ldi	r29, 0x08	; 8
      5c:	de bf       	out	0x3e, r29	; 62
      5e:	cd bf       	out	0x3d, r28	; 61

00000060 <__do_copy_data>:
      60:	11 e0       	ldi	r17, 0x01	; 1
      62:	a0 e6       	ldi	r26, 0x60	; 96
      64:	b0 e0       	ldi	r27, 0x00	; 0
      66:	e8 e6       	ldi	r30, 0x68	; 104
      68:	f8 e7       	ldi	r31, 0x78	; 120
      6a:	02 c0       	rjmp	.+4      	; 0x70 <.do_copy_data_start>

0000006c <.do_copy_data_loop>:
      6c:	05 90       	lpm	r0, Z+
      6e:	0d 92       	st	X+, r0

00000070 <.do_copy_data_start>:
      70:	a4 3f       	cpi	r26, 0xF4	; 244
      72:	b1 07       	cpc	r27, r17
      74:	d9 f7       	brne	.-10     	; 0x6c <.do_copy_data_loop>

00000076 <__do_clear_bss>:
      76:	12 e0       	ldi	r17, 0x02	; 2
      78:	a4 ef       	ldi	r26, 0xF4	; 244
      7a:	b1 e0       	ldi	r27, 0x01	; 1
      7c:	01 c0       	rjmp	.+2      	; 0x80 <.do_clear_bss_start>

0000007e <.do_clear_bss_loop>:
      7e:	1d 92       	st	X+, r1

00000080 <.do_clear_bss_start>:
      80:	a4 32       	cpi	r26, 0x24	; 36
      82:	b1 07       	cpc	r27, r17
      84:	e1 f7       	brne	.-8      	; 0x7e <.do_clear_bss_loop>
      86:	0e 94 55 39 	call	0x72aa	; 0x72aa <main>
      8a:	0c 94 32 3c 	jmp	0x7864	; 0x7864 <_exit>

0000008e <__bad_interrupt>:
      8e:	0c 94 00 00 	jmp	0	; 0x0 <__vectors>

00000092 <__fixunssfsi>:
      92:	ef 92       	push	r14
      94:	ff 92       	push	r15
      96:	0f 93       	push	r16
      98:	1f 93       	push	r17
      9a:	7b 01       	movw	r14, r22
      9c:	8c 01       	movw	r16, r24
      9e:	20 e0       	ldi	r18, 0x00	; 0
      a0:	30 e0       	ldi	r19, 0x00	; 0
      a2:	40 e0       	ldi	r20, 0x00	; 0
      a4:	5f e4       	ldi	r21, 0x4F	; 79
      a6:	0e 94 25 04 	call	0x84a	; 0x84a <__gesf2>
      aa:	88 23       	and	r24, r24
      ac:	8c f0       	brlt	.+34     	; 0xd0 <__fixunssfsi+0x3e>
      ae:	c8 01       	movw	r24, r16
      b0:	b7 01       	movw	r22, r14
      b2:	20 e0       	ldi	r18, 0x00	; 0
      b4:	30 e0       	ldi	r19, 0x00	; 0
      b6:	40 e0       	ldi	r20, 0x00	; 0
      b8:	5f e4       	ldi	r21, 0x4F	; 79
      ba:	0e 94 c1 01 	call	0x382	; 0x382 <__subsf3>
      be:	0e 94 85 04 	call	0x90a	; 0x90a <__fixsfsi>
      c2:	9b 01       	movw	r18, r22
      c4:	ac 01       	movw	r20, r24
      c6:	20 50       	subi	r18, 0x00	; 0
      c8:	30 40       	sbci	r19, 0x00	; 0
      ca:	40 40       	sbci	r20, 0x00	; 0
      cc:	50 48       	sbci	r21, 0x80	; 128
      ce:	06 c0       	rjmp	.+12     	; 0xdc <__fixunssfsi+0x4a>
      d0:	c8 01       	movw	r24, r16
      d2:	b7 01       	movw	r22, r14
      d4:	0e 94 85 04 	call	0x90a	; 0x90a <__fixsfsi>
      d8:	9b 01       	movw	r18, r22
      da:	ac 01       	movw	r20, r24
      dc:	b9 01       	movw	r22, r18
      de:	ca 01       	movw	r24, r20
      e0:	1f 91       	pop	r17
      e2:	0f 91       	pop	r16
      e4:	ff 90       	pop	r15
      e6:	ef 90       	pop	r14
      e8:	08 95       	ret

000000ea <_fpadd_parts>:
      ea:	a0 e0       	ldi	r26, 0x00	; 0
      ec:	b0 e0       	ldi	r27, 0x00	; 0
      ee:	eb e7       	ldi	r30, 0x7B	; 123
      f0:	f0 e0       	ldi	r31, 0x00	; 0
      f2:	0c 94 5a 39 	jmp	0x72b4	; 0x72b4 <__prologue_saves__>
      f6:	dc 01       	movw	r26, r24
      f8:	2b 01       	movw	r4, r22
      fa:	fa 01       	movw	r30, r20
      fc:	9c 91       	ld	r25, X
      fe:	92 30       	cpi	r25, 0x02	; 2
     100:	08 f4       	brcc	.+2      	; 0x104 <_fpadd_parts+0x1a>
     102:	39 c1       	rjmp	.+626    	; 0x376 <_fpadd_parts+0x28c>
     104:	eb 01       	movw	r28, r22
     106:	88 81       	ld	r24, Y
     108:	82 30       	cpi	r24, 0x02	; 2
     10a:	08 f4       	brcc	.+2      	; 0x10e <_fpadd_parts+0x24>
     10c:	33 c1       	rjmp	.+614    	; 0x374 <_fpadd_parts+0x28a>
     10e:	94 30       	cpi	r25, 0x04	; 4
     110:	69 f4       	brne	.+26     	; 0x12c <_fpadd_parts+0x42>
     112:	84 30       	cpi	r24, 0x04	; 4
     114:	09 f0       	breq	.+2      	; 0x118 <_fpadd_parts+0x2e>
     116:	2f c1       	rjmp	.+606    	; 0x376 <_fpadd_parts+0x28c>
     118:	11 96       	adiw	r26, 0x01	; 1
     11a:	9c 91       	ld	r25, X
     11c:	11 97       	sbiw	r26, 0x01	; 1
     11e:	89 81       	ldd	r24, Y+1	; 0x01
     120:	98 17       	cp	r25, r24
     122:	09 f4       	brne	.+2      	; 0x126 <_fpadd_parts+0x3c>
     124:	28 c1       	rjmp	.+592    	; 0x376 <_fpadd_parts+0x28c>
     126:	a3 e6       	ldi	r26, 0x63	; 99
     128:	b0 e0       	ldi	r27, 0x00	; 0
     12a:	25 c1       	rjmp	.+586    	; 0x376 <_fpadd_parts+0x28c>
     12c:	84 30       	cpi	r24, 0x04	; 4
     12e:	09 f4       	brne	.+2      	; 0x132 <_fpadd_parts+0x48>
     130:	21 c1       	rjmp	.+578    	; 0x374 <_fpadd_parts+0x28a>
     132:	82 30       	cpi	r24, 0x02	; 2
     134:	a9 f4       	brne	.+42     	; 0x160 <_fpadd_parts+0x76>
     136:	92 30       	cpi	r25, 0x02	; 2
     138:	09 f0       	breq	.+2      	; 0x13c <_fpadd_parts+0x52>
     13a:	1d c1       	rjmp	.+570    	; 0x376 <_fpadd_parts+0x28c>
     13c:	9a 01       	movw	r18, r20
     13e:	ad 01       	movw	r20, r26
     140:	88 e0       	ldi	r24, 0x08	; 8
     142:	ea 01       	movw	r28, r20
     144:	09 90       	ld	r0, Y+
     146:	ae 01       	movw	r20, r28
     148:	e9 01       	movw	r28, r18
     14a:	09 92       	st	Y+, r0
     14c:	9e 01       	movw	r18, r28
     14e:	81 50       	subi	r24, 0x01	; 1
     150:	c1 f7       	brne	.-16     	; 0x142 <_fpadd_parts+0x58>
     152:	e2 01       	movw	r28, r4
     154:	89 81       	ldd	r24, Y+1	; 0x01
     156:	11 96       	adiw	r26, 0x01	; 1
     158:	9c 91       	ld	r25, X
     15a:	89 23       	and	r24, r25
     15c:	81 83       	std	Z+1, r24	; 0x01
     15e:	08 c1       	rjmp	.+528    	; 0x370 <_fpadd_parts+0x286>
     160:	92 30       	cpi	r25, 0x02	; 2
     162:	09 f4       	brne	.+2      	; 0x166 <_fpadd_parts+0x7c>
     164:	07 c1       	rjmp	.+526    	; 0x374 <_fpadd_parts+0x28a>
     166:	12 96       	adiw	r26, 0x02	; 2
     168:	2d 90       	ld	r2, X+
     16a:	3c 90       	ld	r3, X
     16c:	13 97       	sbiw	r26, 0x03	; 3
     16e:	eb 01       	movw	r28, r22
     170:	8a 81       	ldd	r24, Y+2	; 0x02
     172:	9b 81       	ldd	r25, Y+3	; 0x03
     174:	14 96       	adiw	r26, 0x04	; 4
     176:	ad 90       	ld	r10, X+
     178:	bd 90       	ld	r11, X+
     17a:	cd 90       	ld	r12, X+
     17c:	dc 90       	ld	r13, X
     17e:	17 97       	sbiw	r26, 0x07	; 7
     180:	ec 80       	ldd	r14, Y+4	; 0x04
     182:	fd 80       	ldd	r15, Y+5	; 0x05
     184:	0e 81       	ldd	r16, Y+6	; 0x06
     186:	1f 81       	ldd	r17, Y+7	; 0x07
     188:	91 01       	movw	r18, r2
     18a:	28 1b       	sub	r18, r24
     18c:	39 0b       	sbc	r19, r25
     18e:	b9 01       	movw	r22, r18
     190:	37 ff       	sbrs	r19, 7
     192:	04 c0       	rjmp	.+8      	; 0x19c <_fpadd_parts+0xb2>
     194:	66 27       	eor	r22, r22
     196:	77 27       	eor	r23, r23
     198:	62 1b       	sub	r22, r18
     19a:	73 0b       	sbc	r23, r19
     19c:	60 32       	cpi	r22, 0x20	; 32
     19e:	71 05       	cpc	r23, r1
     1a0:	0c f0       	brlt	.+2      	; 0x1a4 <_fpadd_parts+0xba>
     1a2:	61 c0       	rjmp	.+194    	; 0x266 <_fpadd_parts+0x17c>
     1a4:	12 16       	cp	r1, r18
     1a6:	13 06       	cpc	r1, r19
     1a8:	6c f5       	brge	.+90     	; 0x204 <_fpadd_parts+0x11a>
     1aa:	37 01       	movw	r6, r14
     1ac:	48 01       	movw	r8, r16
     1ae:	06 2e       	mov	r0, r22
     1b0:	04 c0       	rjmp	.+8      	; 0x1ba <_fpadd_parts+0xd0>
     1b2:	96 94       	lsr	r9
     1b4:	87 94       	ror	r8
     1b6:	77 94       	ror	r7
     1b8:	67 94       	ror	r6
     1ba:	0a 94       	dec	r0
     1bc:	d2 f7       	brpl	.-12     	; 0x1b2 <_fpadd_parts+0xc8>
     1be:	21 e0       	ldi	r18, 0x01	; 1
     1c0:	30 e0       	ldi	r19, 0x00	; 0
     1c2:	40 e0       	ldi	r20, 0x00	; 0
     1c4:	50 e0       	ldi	r21, 0x00	; 0
     1c6:	04 c0       	rjmp	.+8      	; 0x1d0 <_fpadd_parts+0xe6>
     1c8:	22 0f       	add	r18, r18
     1ca:	33 1f       	adc	r19, r19
     1cc:	44 1f       	adc	r20, r20
     1ce:	55 1f       	adc	r21, r21
     1d0:	6a 95       	dec	r22
     1d2:	d2 f7       	brpl	.-12     	; 0x1c8 <_fpadd_parts+0xde>
     1d4:	21 50       	subi	r18, 0x01	; 1
     1d6:	30 40       	sbci	r19, 0x00	; 0
     1d8:	40 40       	sbci	r20, 0x00	; 0
     1da:	50 40       	sbci	r21, 0x00	; 0
     1dc:	2e 21       	and	r18, r14
     1de:	3f 21       	and	r19, r15
     1e0:	40 23       	and	r20, r16
     1e2:	51 23       	and	r21, r17
     1e4:	21 15       	cp	r18, r1
     1e6:	31 05       	cpc	r19, r1
     1e8:	41 05       	cpc	r20, r1
     1ea:	51 05       	cpc	r21, r1
     1ec:	21 f0       	breq	.+8      	; 0x1f6 <_fpadd_parts+0x10c>
     1ee:	21 e0       	ldi	r18, 0x01	; 1
     1f0:	30 e0       	ldi	r19, 0x00	; 0
     1f2:	40 e0       	ldi	r20, 0x00	; 0
     1f4:	50 e0       	ldi	r21, 0x00	; 0
     1f6:	79 01       	movw	r14, r18
     1f8:	8a 01       	movw	r16, r20
     1fa:	e6 28       	or	r14, r6
     1fc:	f7 28       	or	r15, r7
     1fe:	08 29       	or	r16, r8
     200:	19 29       	or	r17, r9
     202:	3c c0       	rjmp	.+120    	; 0x27c <_fpadd_parts+0x192>
     204:	23 2b       	or	r18, r19
     206:	d1 f1       	breq	.+116    	; 0x27c <_fpadd_parts+0x192>
     208:	26 0e       	add	r2, r22
     20a:	37 1e       	adc	r3, r23
     20c:	35 01       	movw	r6, r10
     20e:	46 01       	movw	r8, r12
     210:	06 2e       	mov	r0, r22
     212:	04 c0       	rjmp	.+8      	; 0x21c <_fpadd_parts+0x132>
     214:	96 94       	lsr	r9
     216:	87 94       	ror	r8
     218:	77 94       	ror	r7
     21a:	67 94       	ror	r6
     21c:	0a 94       	dec	r0
     21e:	d2 f7       	brpl	.-12     	; 0x214 <_fpadd_parts+0x12a>
     220:	21 e0       	ldi	r18, 0x01	; 1
     222:	30 e0       	ldi	r19, 0x00	; 0
     224:	40 e0       	ldi	r20, 0x00	; 0
     226:	50 e0       	ldi	r21, 0x00	; 0
     228:	04 c0       	rjmp	.+8      	; 0x232 <_fpadd_parts+0x148>
     22a:	22 0f       	add	r18, r18
     22c:	33 1f       	adc	r19, r19
     22e:	44 1f       	adc	r20, r20
     230:	55 1f       	adc	r21, r21
     232:	6a 95       	dec	r22
     234:	d2 f7       	brpl	.-12     	; 0x22a <_fpadd_parts+0x140>
     236:	21 50       	subi	r18, 0x01	; 1
     238:	30 40       	sbci	r19, 0x00	; 0
     23a:	40 40       	sbci	r20, 0x00	; 0
     23c:	50 40       	sbci	r21, 0x00	; 0
     23e:	2a 21       	and	r18, r10
     240:	3b 21       	and	r19, r11
     242:	4c 21       	and	r20, r12
     244:	5d 21       	and	r21, r13
     246:	21 15       	cp	r18, r1
     248:	31 05       	cpc	r19, r1
     24a:	41 05       	cpc	r20, r1
     24c:	51 05       	cpc	r21, r1
     24e:	21 f0       	breq	.+8      	; 0x258 <_fpadd_parts+0x16e>
     250:	21 e0       	ldi	r18, 0x01	; 1
     252:	30 e0       	ldi	r19, 0x00	; 0
     254:	40 e0       	ldi	r20, 0x00	; 0
     256:	50 e0       	ldi	r21, 0x00	; 0
     258:	59 01       	movw	r10, r18
     25a:	6a 01       	movw	r12, r20
     25c:	a6 28       	or	r10, r6
     25e:	b7 28       	or	r11, r7
     260:	c8 28       	or	r12, r8
     262:	d9 28       	or	r13, r9
     264:	0b c0       	rjmp	.+22     	; 0x27c <_fpadd_parts+0x192>
     266:	82 15       	cp	r24, r2
     268:	93 05       	cpc	r25, r3
     26a:	2c f0       	brlt	.+10     	; 0x276 <_fpadd_parts+0x18c>
     26c:	1c 01       	movw	r2, r24
     26e:	aa 24       	eor	r10, r10
     270:	bb 24       	eor	r11, r11
     272:	65 01       	movw	r12, r10
     274:	03 c0       	rjmp	.+6      	; 0x27c <_fpadd_parts+0x192>
     276:	ee 24       	eor	r14, r14
     278:	ff 24       	eor	r15, r15
     27a:	87 01       	movw	r16, r14
     27c:	11 96       	adiw	r26, 0x01	; 1
     27e:	9c 91       	ld	r25, X
     280:	d2 01       	movw	r26, r4
     282:	11 96       	adiw	r26, 0x01	; 1
     284:	8c 91       	ld	r24, X
     286:	98 17       	cp	r25, r24
     288:	09 f4       	brne	.+2      	; 0x28c <_fpadd_parts+0x1a2>
     28a:	45 c0       	rjmp	.+138    	; 0x316 <_fpadd_parts+0x22c>
     28c:	99 23       	and	r25, r25
     28e:	39 f0       	breq	.+14     	; 0x29e <_fpadd_parts+0x1b4>
     290:	a8 01       	movw	r20, r16
     292:	97 01       	movw	r18, r14
     294:	2a 19       	sub	r18, r10
     296:	3b 09       	sbc	r19, r11
     298:	4c 09       	sbc	r20, r12
     29a:	5d 09       	sbc	r21, r13
     29c:	06 c0       	rjmp	.+12     	; 0x2aa <_fpadd_parts+0x1c0>
     29e:	a6 01       	movw	r20, r12
     2a0:	95 01       	movw	r18, r10
     2a2:	2e 19       	sub	r18, r14
     2a4:	3f 09       	sbc	r19, r15
     2a6:	40 0b       	sbc	r20, r16
     2a8:	51 0b       	sbc	r21, r17
     2aa:	57 fd       	sbrc	r21, 7
     2ac:	08 c0       	rjmp	.+16     	; 0x2be <_fpadd_parts+0x1d4>
     2ae:	11 82       	std	Z+1, r1	; 0x01
     2b0:	33 82       	std	Z+3, r3	; 0x03
     2b2:	22 82       	std	Z+2, r2	; 0x02
     2b4:	24 83       	std	Z+4, r18	; 0x04
     2b6:	35 83       	std	Z+5, r19	; 0x05
     2b8:	46 83       	std	Z+6, r20	; 0x06
     2ba:	57 83       	std	Z+7, r21	; 0x07
     2bc:	1d c0       	rjmp	.+58     	; 0x2f8 <_fpadd_parts+0x20e>
     2be:	81 e0       	ldi	r24, 0x01	; 1
     2c0:	81 83       	std	Z+1, r24	; 0x01
     2c2:	33 82       	std	Z+3, r3	; 0x03
     2c4:	22 82       	std	Z+2, r2	; 0x02
     2c6:	88 27       	eor	r24, r24
     2c8:	99 27       	eor	r25, r25
     2ca:	dc 01       	movw	r26, r24
     2cc:	82 1b       	sub	r24, r18
     2ce:	93 0b       	sbc	r25, r19
     2d0:	a4 0b       	sbc	r26, r20
     2d2:	b5 0b       	sbc	r27, r21
     2d4:	84 83       	std	Z+4, r24	; 0x04
     2d6:	95 83       	std	Z+5, r25	; 0x05
     2d8:	a6 83       	std	Z+6, r26	; 0x06
     2da:	b7 83       	std	Z+7, r27	; 0x07
     2dc:	0d c0       	rjmp	.+26     	; 0x2f8 <_fpadd_parts+0x20e>
     2de:	22 0f       	add	r18, r18
     2e0:	33 1f       	adc	r19, r19
     2e2:	44 1f       	adc	r20, r20
     2e4:	55 1f       	adc	r21, r21
     2e6:	24 83       	std	Z+4, r18	; 0x04
     2e8:	35 83       	std	Z+5, r19	; 0x05
     2ea:	46 83       	std	Z+6, r20	; 0x06
     2ec:	57 83       	std	Z+7, r21	; 0x07
     2ee:	82 81       	ldd	r24, Z+2	; 0x02
     2f0:	93 81       	ldd	r25, Z+3	; 0x03
     2f2:	01 97       	sbiw	r24, 0x01	; 1
     2f4:	93 83       	std	Z+3, r25	; 0x03
     2f6:	82 83       	std	Z+2, r24	; 0x02
     2f8:	24 81       	ldd	r18, Z+4	; 0x04
     2fa:	35 81       	ldd	r19, Z+5	; 0x05
     2fc:	46 81       	ldd	r20, Z+6	; 0x06
     2fe:	57 81       	ldd	r21, Z+7	; 0x07
     300:	da 01       	movw	r26, r20
     302:	c9 01       	movw	r24, r18
     304:	01 97       	sbiw	r24, 0x01	; 1
     306:	a1 09       	sbc	r26, r1
     308:	b1 09       	sbc	r27, r1
     30a:	8f 5f       	subi	r24, 0xFF	; 255
     30c:	9f 4f       	sbci	r25, 0xFF	; 255
     30e:	af 4f       	sbci	r26, 0xFF	; 255
     310:	bf 43       	sbci	r27, 0x3F	; 63
     312:	28 f3       	brcs	.-54     	; 0x2de <_fpadd_parts+0x1f4>
     314:	0b c0       	rjmp	.+22     	; 0x32c <_fpadd_parts+0x242>
     316:	91 83       	std	Z+1, r25	; 0x01
     318:	33 82       	std	Z+3, r3	; 0x03
     31a:	22 82       	std	Z+2, r2	; 0x02
     31c:	ea 0c       	add	r14, r10
     31e:	fb 1c       	adc	r15, r11
     320:	0c 1d       	adc	r16, r12
     322:	1d 1d       	adc	r17, r13
     324:	e4 82       	std	Z+4, r14	; 0x04
     326:	f5 82       	std	Z+5, r15	; 0x05
     328:	06 83       	std	Z+6, r16	; 0x06
     32a:	17 83       	std	Z+7, r17	; 0x07
     32c:	83 e0       	ldi	r24, 0x03	; 3
     32e:	80 83       	st	Z, r24
     330:	24 81       	ldd	r18, Z+4	; 0x04
     332:	35 81       	ldd	r19, Z+5	; 0x05
     334:	46 81       	ldd	r20, Z+6	; 0x06
     336:	57 81       	ldd	r21, Z+7	; 0x07
     338:	57 ff       	sbrs	r21, 7
     33a:	1a c0       	rjmp	.+52     	; 0x370 <_fpadd_parts+0x286>
     33c:	c9 01       	movw	r24, r18
     33e:	aa 27       	eor	r26, r26
     340:	97 fd       	sbrc	r25, 7
     342:	a0 95       	com	r26
     344:	ba 2f       	mov	r27, r26
     346:	81 70       	andi	r24, 0x01	; 1
     348:	90 70       	andi	r25, 0x00	; 0
     34a:	a0 70       	andi	r26, 0x00	; 0
     34c:	b0 70       	andi	r27, 0x00	; 0
     34e:	56 95       	lsr	r21
     350:	47 95       	ror	r20
     352:	37 95       	ror	r19
     354:	27 95       	ror	r18
     356:	82 2b       	or	r24, r18
     358:	93 2b       	or	r25, r19
     35a:	a4 2b       	or	r26, r20
     35c:	b5 2b       	or	r27, r21
     35e:	84 83       	std	Z+4, r24	; 0x04
     360:	95 83       	std	Z+5, r25	; 0x05
     362:	a6 83       	std	Z+6, r26	; 0x06
     364:	b7 83       	std	Z+7, r27	; 0x07
     366:	82 81       	ldd	r24, Z+2	; 0x02
     368:	93 81       	ldd	r25, Z+3	; 0x03
     36a:	01 96       	adiw	r24, 0x01	; 1
     36c:	93 83       	std	Z+3, r25	; 0x03
     36e:	82 83       	std	Z+2, r24	; 0x02
     370:	df 01       	movw	r26, r30
     372:	01 c0       	rjmp	.+2      	; 0x376 <_fpadd_parts+0x28c>
     374:	d2 01       	movw	r26, r4
     376:	cd 01       	movw	r24, r26
     378:	cd b7       	in	r28, 0x3d	; 61
     37a:	de b7       	in	r29, 0x3e	; 62
     37c:	e2 e1       	ldi	r30, 0x12	; 18
     37e:	0c 94 76 39 	jmp	0x72ec	; 0x72ec <__epilogue_restores__>

00000382 <__subsf3>:
     382:	a0 e2       	ldi	r26, 0x20	; 32
     384:	b0 e0       	ldi	r27, 0x00	; 0
     386:	e7 ec       	ldi	r30, 0xC7	; 199
     388:	f1 e0       	ldi	r31, 0x01	; 1
     38a:	0c 94 66 39 	jmp	0x72cc	; 0x72cc <__prologue_saves__+0x18>
     38e:	69 83       	std	Y+1, r22	; 0x01
     390:	7a 83       	std	Y+2, r23	; 0x02
     392:	8b 83       	std	Y+3, r24	; 0x03
     394:	9c 83       	std	Y+4, r25	; 0x04
     396:	2d 83       	std	Y+5, r18	; 0x05
     398:	3e 83       	std	Y+6, r19	; 0x06
     39a:	4f 83       	std	Y+7, r20	; 0x07
     39c:	58 87       	std	Y+8, r21	; 0x08
     39e:	e9 e0       	ldi	r30, 0x09	; 9
     3a0:	ee 2e       	mov	r14, r30
     3a2:	f1 2c       	mov	r15, r1
     3a4:	ec 0e       	add	r14, r28
     3a6:	fd 1e       	adc	r15, r29
     3a8:	ce 01       	movw	r24, r28
     3aa:	01 96       	adiw	r24, 0x01	; 1
     3ac:	b7 01       	movw	r22, r14
     3ae:	0e 94 76 06 	call	0xcec	; 0xcec <__unpack_f>
     3b2:	8e 01       	movw	r16, r28
     3b4:	0f 5e       	subi	r16, 0xEF	; 239
     3b6:	1f 4f       	sbci	r17, 0xFF	; 255
     3b8:	ce 01       	movw	r24, r28
     3ba:	05 96       	adiw	r24, 0x05	; 5
     3bc:	b8 01       	movw	r22, r16
     3be:	0e 94 76 06 	call	0xcec	; 0xcec <__unpack_f>
     3c2:	8a 89       	ldd	r24, Y+18	; 0x12
     3c4:	91 e0       	ldi	r25, 0x01	; 1
     3c6:	89 27       	eor	r24, r25
     3c8:	8a 8b       	std	Y+18, r24	; 0x12
     3ca:	c7 01       	movw	r24, r14
     3cc:	b8 01       	movw	r22, r16
     3ce:	ae 01       	movw	r20, r28
     3d0:	47 5e       	subi	r20, 0xE7	; 231
     3d2:	5f 4f       	sbci	r21, 0xFF	; 255
     3d4:	0e 94 75 00 	call	0xea	; 0xea <_fpadd_parts>
     3d8:	0e 94 a1 05 	call	0xb42	; 0xb42 <__pack_f>
     3dc:	a0 96       	adiw	r28, 0x20	; 32
     3de:	e6 e0       	ldi	r30, 0x06	; 6
     3e0:	0c 94 82 39 	jmp	0x7304	; 0x7304 <__epilogue_restores__+0x18>

000003e4 <__addsf3>:
     3e4:	a0 e2       	ldi	r26, 0x20	; 32
     3e6:	b0 e0       	ldi	r27, 0x00	; 0
     3e8:	e8 ef       	ldi	r30, 0xF8	; 248
     3ea:	f1 e0       	ldi	r31, 0x01	; 1
     3ec:	0c 94 66 39 	jmp	0x72cc	; 0x72cc <__prologue_saves__+0x18>
     3f0:	69 83       	std	Y+1, r22	; 0x01
     3f2:	7a 83       	std	Y+2, r23	; 0x02
     3f4:	8b 83       	std	Y+3, r24	; 0x03
     3f6:	9c 83       	std	Y+4, r25	; 0x04
     3f8:	2d 83       	std	Y+5, r18	; 0x05
     3fa:	3e 83       	std	Y+6, r19	; 0x06
     3fc:	4f 83       	std	Y+7, r20	; 0x07
     3fe:	58 87       	std	Y+8, r21	; 0x08
     400:	f9 e0       	ldi	r31, 0x09	; 9
     402:	ef 2e       	mov	r14, r31
     404:	f1 2c       	mov	r15, r1
     406:	ec 0e       	add	r14, r28
     408:	fd 1e       	adc	r15, r29
     40a:	ce 01       	movw	r24, r28
     40c:	01 96       	adiw	r24, 0x01	; 1
     40e:	b7 01       	movw	r22, r14
     410:	0e 94 76 06 	call	0xcec	; 0xcec <__unpack_f>
     414:	8e 01       	movw	r16, r28
     416:	0f 5e       	subi	r16, 0xEF	; 239
     418:	1f 4f       	sbci	r17, 0xFF	; 255
     41a:	ce 01       	movw	r24, r28
     41c:	05 96       	adiw	r24, 0x05	; 5
     41e:	b8 01       	movw	r22, r16
     420:	0e 94 76 06 	call	0xcec	; 0xcec <__unpack_f>
     424:	c7 01       	movw	r24, r14
     426:	b8 01       	movw	r22, r16
     428:	ae 01       	movw	r20, r28
     42a:	47 5e       	subi	r20, 0xE7	; 231
     42c:	5f 4f       	sbci	r21, 0xFF	; 255
     42e:	0e 94 75 00 	call	0xea	; 0xea <_fpadd_parts>
     432:	0e 94 a1 05 	call	0xb42	; 0xb42 <__pack_f>
     436:	a0 96       	adiw	r28, 0x20	; 32
     438:	e6 e0       	ldi	r30, 0x06	; 6
     43a:	0c 94 82 39 	jmp	0x7304	; 0x7304 <__epilogue_restores__+0x18>

0000043e <__mulsf3>:
     43e:	a0 e2       	ldi	r26, 0x20	; 32
     440:	b0 e0       	ldi	r27, 0x00	; 0
     442:	e5 e2       	ldi	r30, 0x25	; 37
     444:	f2 e0       	ldi	r31, 0x02	; 2
     446:	0c 94 5a 39 	jmp	0x72b4	; 0x72b4 <__prologue_saves__>
     44a:	69 83       	std	Y+1, r22	; 0x01
     44c:	7a 83       	std	Y+2, r23	; 0x02
     44e:	8b 83       	std	Y+3, r24	; 0x03
     450:	9c 83       	std	Y+4, r25	; 0x04
     452:	2d 83       	std	Y+5, r18	; 0x05
     454:	3e 83       	std	Y+6, r19	; 0x06
     456:	4f 83       	std	Y+7, r20	; 0x07
     458:	58 87       	std	Y+8, r21	; 0x08
     45a:	ce 01       	movw	r24, r28
     45c:	01 96       	adiw	r24, 0x01	; 1
     45e:	be 01       	movw	r22, r28
     460:	67 5f       	subi	r22, 0xF7	; 247
     462:	7f 4f       	sbci	r23, 0xFF	; 255
     464:	0e 94 76 06 	call	0xcec	; 0xcec <__unpack_f>
     468:	ce 01       	movw	r24, r28
     46a:	05 96       	adiw	r24, 0x05	; 5
     46c:	be 01       	movw	r22, r28
     46e:	6f 5e       	subi	r22, 0xEF	; 239
     470:	7f 4f       	sbci	r23, 0xFF	; 255
     472:	0e 94 76 06 	call	0xcec	; 0xcec <__unpack_f>
     476:	99 85       	ldd	r25, Y+9	; 0x09
     478:	92 30       	cpi	r25, 0x02	; 2
     47a:	88 f0       	brcs	.+34     	; 0x49e <__mulsf3+0x60>
     47c:	89 89       	ldd	r24, Y+17	; 0x11
     47e:	82 30       	cpi	r24, 0x02	; 2
     480:	c8 f0       	brcs	.+50     	; 0x4b4 <__mulsf3+0x76>
     482:	94 30       	cpi	r25, 0x04	; 4
     484:	19 f4       	brne	.+6      	; 0x48c <__mulsf3+0x4e>
     486:	82 30       	cpi	r24, 0x02	; 2
     488:	51 f4       	brne	.+20     	; 0x49e <__mulsf3+0x60>
     48a:	04 c0       	rjmp	.+8      	; 0x494 <__mulsf3+0x56>
     48c:	84 30       	cpi	r24, 0x04	; 4
     48e:	29 f4       	brne	.+10     	; 0x49a <__mulsf3+0x5c>
     490:	92 30       	cpi	r25, 0x02	; 2
     492:	81 f4       	brne	.+32     	; 0x4b4 <__mulsf3+0x76>
     494:	83 e6       	ldi	r24, 0x63	; 99
     496:	90 e0       	ldi	r25, 0x00	; 0
     498:	c6 c0       	rjmp	.+396    	; 0x626 <__mulsf3+0x1e8>
     49a:	92 30       	cpi	r25, 0x02	; 2
     49c:	49 f4       	brne	.+18     	; 0x4b0 <__mulsf3+0x72>
     49e:	20 e0       	ldi	r18, 0x00	; 0
     4a0:	9a 85       	ldd	r25, Y+10	; 0x0a
     4a2:	8a 89       	ldd	r24, Y+18	; 0x12
     4a4:	98 13       	cpse	r25, r24
     4a6:	21 e0       	ldi	r18, 0x01	; 1
     4a8:	2a 87       	std	Y+10, r18	; 0x0a
     4aa:	ce 01       	movw	r24, r28
     4ac:	09 96       	adiw	r24, 0x09	; 9
     4ae:	bb c0       	rjmp	.+374    	; 0x626 <__mulsf3+0x1e8>
     4b0:	82 30       	cpi	r24, 0x02	; 2
     4b2:	49 f4       	brne	.+18     	; 0x4c6 <__mulsf3+0x88>
     4b4:	20 e0       	ldi	r18, 0x00	; 0
     4b6:	9a 85       	ldd	r25, Y+10	; 0x0a
     4b8:	8a 89       	ldd	r24, Y+18	; 0x12
     4ba:	98 13       	cpse	r25, r24
     4bc:	21 e0       	ldi	r18, 0x01	; 1
     4be:	2a 8b       	std	Y+18, r18	; 0x12
     4c0:	ce 01       	movw	r24, r28
     4c2:	41 96       	adiw	r24, 0x11	; 17
     4c4:	b0 c0       	rjmp	.+352    	; 0x626 <__mulsf3+0x1e8>
     4c6:	2d 84       	ldd	r2, Y+13	; 0x0d
     4c8:	3e 84       	ldd	r3, Y+14	; 0x0e
     4ca:	4f 84       	ldd	r4, Y+15	; 0x0f
     4cc:	58 88       	ldd	r5, Y+16	; 0x10
     4ce:	6d 88       	ldd	r6, Y+21	; 0x15
     4d0:	7e 88       	ldd	r7, Y+22	; 0x16
     4d2:	8f 88       	ldd	r8, Y+23	; 0x17
     4d4:	98 8c       	ldd	r9, Y+24	; 0x18
     4d6:	ee 24       	eor	r14, r14
     4d8:	ff 24       	eor	r15, r15
     4da:	87 01       	movw	r16, r14
     4dc:	aa 24       	eor	r10, r10
     4de:	bb 24       	eor	r11, r11
     4e0:	65 01       	movw	r12, r10
     4e2:	40 e0       	ldi	r20, 0x00	; 0
     4e4:	50 e0       	ldi	r21, 0x00	; 0
     4e6:	60 e0       	ldi	r22, 0x00	; 0
     4e8:	70 e0       	ldi	r23, 0x00	; 0
     4ea:	e0 e0       	ldi	r30, 0x00	; 0
     4ec:	f0 e0       	ldi	r31, 0x00	; 0
     4ee:	c1 01       	movw	r24, r2
     4f0:	81 70       	andi	r24, 0x01	; 1
     4f2:	90 70       	andi	r25, 0x00	; 0
     4f4:	89 2b       	or	r24, r25
     4f6:	e9 f0       	breq	.+58     	; 0x532 <__mulsf3+0xf4>
     4f8:	e6 0c       	add	r14, r6
     4fa:	f7 1c       	adc	r15, r7
     4fc:	08 1d       	adc	r16, r8
     4fe:	19 1d       	adc	r17, r9
     500:	9a 01       	movw	r18, r20
     502:	ab 01       	movw	r20, r22
     504:	2a 0d       	add	r18, r10
     506:	3b 1d       	adc	r19, r11
     508:	4c 1d       	adc	r20, r12
     50a:	5d 1d       	adc	r21, r13
     50c:	80 e0       	ldi	r24, 0x00	; 0
     50e:	90 e0       	ldi	r25, 0x00	; 0
     510:	a0 e0       	ldi	r26, 0x00	; 0
     512:	b0 e0       	ldi	r27, 0x00	; 0
     514:	e6 14       	cp	r14, r6
     516:	f7 04       	cpc	r15, r7
     518:	08 05       	cpc	r16, r8
     51a:	19 05       	cpc	r17, r9
     51c:	20 f4       	brcc	.+8      	; 0x526 <__mulsf3+0xe8>
     51e:	81 e0       	ldi	r24, 0x01	; 1
     520:	90 e0       	ldi	r25, 0x00	; 0
     522:	a0 e0       	ldi	r26, 0x00	; 0
     524:	b0 e0       	ldi	r27, 0x00	; 0
     526:	ba 01       	movw	r22, r20
     528:	a9 01       	movw	r20, r18
     52a:	48 0f       	add	r20, r24
     52c:	59 1f       	adc	r21, r25
     52e:	6a 1f       	adc	r22, r26
     530:	7b 1f       	adc	r23, r27
     532:	aa 0c       	add	r10, r10
     534:	bb 1c       	adc	r11, r11
     536:	cc 1c       	adc	r12, r12
     538:	dd 1c       	adc	r13, r13
     53a:	97 fe       	sbrs	r9, 7
     53c:	08 c0       	rjmp	.+16     	; 0x54e <__mulsf3+0x110>
     53e:	81 e0       	ldi	r24, 0x01	; 1
     540:	90 e0       	ldi	r25, 0x00	; 0
     542:	a0 e0       	ldi	r26, 0x00	; 0
     544:	b0 e0       	ldi	r27, 0x00	; 0
     546:	a8 2a       	or	r10, r24
     548:	b9 2a       	or	r11, r25
     54a:	ca 2a       	or	r12, r26
     54c:	db 2a       	or	r13, r27
     54e:	31 96       	adiw	r30, 0x01	; 1
     550:	e0 32       	cpi	r30, 0x20	; 32
     552:	f1 05       	cpc	r31, r1
     554:	49 f0       	breq	.+18     	; 0x568 <__mulsf3+0x12a>
     556:	66 0c       	add	r6, r6
     558:	77 1c       	adc	r7, r7
     55a:	88 1c       	adc	r8, r8
     55c:	99 1c       	adc	r9, r9
     55e:	56 94       	lsr	r5
     560:	47 94       	ror	r4
     562:	37 94       	ror	r3
     564:	27 94       	ror	r2
     566:	c3 cf       	rjmp	.-122    	; 0x4ee <__mulsf3+0xb0>
     568:	fa 85       	ldd	r31, Y+10	; 0x0a
     56a:	ea 89       	ldd	r30, Y+18	; 0x12
     56c:	2b 89       	ldd	r18, Y+19	; 0x13
     56e:	3c 89       	ldd	r19, Y+20	; 0x14
     570:	8b 85       	ldd	r24, Y+11	; 0x0b
     572:	9c 85       	ldd	r25, Y+12	; 0x0c
     574:	28 0f       	add	r18, r24
     576:	39 1f       	adc	r19, r25
     578:	2e 5f       	subi	r18, 0xFE	; 254
     57a:	3f 4f       	sbci	r19, 0xFF	; 255
     57c:	17 c0       	rjmp	.+46     	; 0x5ac <__mulsf3+0x16e>
     57e:	ca 01       	movw	r24, r20
     580:	81 70       	andi	r24, 0x01	; 1
     582:	90 70       	andi	r25, 0x00	; 0
     584:	89 2b       	or	r24, r25
     586:	61 f0       	breq	.+24     	; 0x5a0 <__mulsf3+0x162>
     588:	16 95       	lsr	r17
     58a:	07 95       	ror	r16
     58c:	f7 94       	ror	r15
     58e:	e7 94       	ror	r14
     590:	80 e0       	ldi	r24, 0x00	; 0
     592:	90 e0       	ldi	r25, 0x00	; 0
     594:	a0 e0       	ldi	r26, 0x00	; 0
     596:	b0 e8       	ldi	r27, 0x80	; 128
     598:	e8 2a       	or	r14, r24
     59a:	f9 2a       	or	r15, r25
     59c:	0a 2b       	or	r16, r26
     59e:	1b 2b       	or	r17, r27
     5a0:	76 95       	lsr	r23
     5a2:	67 95       	ror	r22
     5a4:	57 95       	ror	r21
     5a6:	47 95       	ror	r20
     5a8:	2f 5f       	subi	r18, 0xFF	; 255
     5aa:	3f 4f       	sbci	r19, 0xFF	; 255
     5ac:	77 fd       	sbrc	r23, 7
     5ae:	e7 cf       	rjmp	.-50     	; 0x57e <__mulsf3+0x140>
     5b0:	0c c0       	rjmp	.+24     	; 0x5ca <__mulsf3+0x18c>
     5b2:	44 0f       	add	r20, r20
     5b4:	55 1f       	adc	r21, r21
     5b6:	66 1f       	adc	r22, r22
     5b8:	77 1f       	adc	r23, r23
     5ba:	17 fd       	sbrc	r17, 7
     5bc:	41 60       	ori	r20, 0x01	; 1
     5be:	ee 0c       	add	r14, r14
     5c0:	ff 1c       	adc	r15, r15
     5c2:	00 1f       	adc	r16, r16
     5c4:	11 1f       	adc	r17, r17
     5c6:	21 50       	subi	r18, 0x01	; 1
     5c8:	30 40       	sbci	r19, 0x00	; 0
     5ca:	40 30       	cpi	r20, 0x00	; 0
     5cc:	90 e0       	ldi	r25, 0x00	; 0
     5ce:	59 07       	cpc	r21, r25
     5d0:	90 e0       	ldi	r25, 0x00	; 0
     5d2:	69 07       	cpc	r22, r25
     5d4:	90 e4       	ldi	r25, 0x40	; 64
     5d6:	79 07       	cpc	r23, r25
     5d8:	60 f3       	brcs	.-40     	; 0x5b2 <__mulsf3+0x174>
     5da:	2b 8f       	std	Y+27, r18	; 0x1b
     5dc:	3c 8f       	std	Y+28, r19	; 0x1c
     5de:	db 01       	movw	r26, r22
     5e0:	ca 01       	movw	r24, r20
     5e2:	8f 77       	andi	r24, 0x7F	; 127
     5e4:	90 70       	andi	r25, 0x00	; 0
     5e6:	a0 70       	andi	r26, 0x00	; 0
     5e8:	b0 70       	andi	r27, 0x00	; 0
     5ea:	80 34       	cpi	r24, 0x40	; 64
     5ec:	91 05       	cpc	r25, r1
     5ee:	a1 05       	cpc	r26, r1
     5f0:	b1 05       	cpc	r27, r1
     5f2:	61 f4       	brne	.+24     	; 0x60c <__mulsf3+0x1ce>
     5f4:	47 fd       	sbrc	r20, 7
     5f6:	0a c0       	rjmp	.+20     	; 0x60c <__mulsf3+0x1ce>
     5f8:	e1 14       	cp	r14, r1
     5fa:	f1 04       	cpc	r15, r1
     5fc:	01 05       	cpc	r16, r1
     5fe:	11 05       	cpc	r17, r1
     600:	29 f0       	breq	.+10     	; 0x60c <__mulsf3+0x1ce>
     602:	40 5c       	subi	r20, 0xC0	; 192
     604:	5f 4f       	sbci	r21, 0xFF	; 255
     606:	6f 4f       	sbci	r22, 0xFF	; 255
     608:	7f 4f       	sbci	r23, 0xFF	; 255
     60a:	40 78       	andi	r20, 0x80	; 128
     60c:	1a 8e       	std	Y+26, r1	; 0x1a
     60e:	fe 17       	cp	r31, r30
     610:	11 f0       	breq	.+4      	; 0x616 <__mulsf3+0x1d8>
     612:	81 e0       	ldi	r24, 0x01	; 1
     614:	8a 8f       	std	Y+26, r24	; 0x1a
     616:	4d 8f       	std	Y+29, r20	; 0x1d
     618:	5e 8f       	std	Y+30, r21	; 0x1e
     61a:	6f 8f       	std	Y+31, r22	; 0x1f
     61c:	78 a3       	std	Y+32, r23	; 0x20
     61e:	83 e0       	ldi	r24, 0x03	; 3
     620:	89 8f       	std	Y+25, r24	; 0x19
     622:	ce 01       	movw	r24, r28
     624:	49 96       	adiw	r24, 0x19	; 25
     626:	0e 94 a1 05 	call	0xb42	; 0xb42 <__pack_f>
     62a:	a0 96       	adiw	r28, 0x20	; 32
     62c:	e2 e1       	ldi	r30, 0x12	; 18
     62e:	0c 94 76 39 	jmp	0x72ec	; 0x72ec <__epilogue_restores__>

00000632 <__divsf3>:
     632:	a8 e1       	ldi	r26, 0x18	; 24
     634:	b0 e0       	ldi	r27, 0x00	; 0
     636:	ef e1       	ldi	r30, 0x1F	; 31
     638:	f3 e0       	ldi	r31, 0x03	; 3
     63a:	0c 94 62 39 	jmp	0x72c4	; 0x72c4 <__prologue_saves__+0x10>
     63e:	69 83       	std	Y+1, r22	; 0x01
     640:	7a 83       	std	Y+2, r23	; 0x02
     642:	8b 83       	std	Y+3, r24	; 0x03
     644:	9c 83       	std	Y+4, r25	; 0x04
     646:	2d 83       	std	Y+5, r18	; 0x05
     648:	3e 83       	std	Y+6, r19	; 0x06
     64a:	4f 83       	std	Y+7, r20	; 0x07
     64c:	58 87       	std	Y+8, r21	; 0x08
     64e:	b9 e0       	ldi	r27, 0x09	; 9
     650:	eb 2e       	mov	r14, r27
     652:	f1 2c       	mov	r15, r1
     654:	ec 0e       	add	r14, r28
     656:	fd 1e       	adc	r15, r29
     658:	ce 01       	movw	r24, r28
     65a:	01 96       	adiw	r24, 0x01	; 1
     65c:	b7 01       	movw	r22, r14
     65e:	0e 94 76 06 	call	0xcec	; 0xcec <__unpack_f>
     662:	8e 01       	movw	r16, r28
     664:	0f 5e       	subi	r16, 0xEF	; 239
     666:	1f 4f       	sbci	r17, 0xFF	; 255
     668:	ce 01       	movw	r24, r28
     66a:	05 96       	adiw	r24, 0x05	; 5
     66c:	b8 01       	movw	r22, r16
     66e:	0e 94 76 06 	call	0xcec	; 0xcec <__unpack_f>
     672:	29 85       	ldd	r18, Y+9	; 0x09
     674:	22 30       	cpi	r18, 0x02	; 2
     676:	08 f4       	brcc	.+2      	; 0x67a <__divsf3+0x48>
     678:	7e c0       	rjmp	.+252    	; 0x776 <__divsf3+0x144>
     67a:	39 89       	ldd	r19, Y+17	; 0x11
     67c:	32 30       	cpi	r19, 0x02	; 2
     67e:	10 f4       	brcc	.+4      	; 0x684 <__divsf3+0x52>
     680:	b8 01       	movw	r22, r16
     682:	7c c0       	rjmp	.+248    	; 0x77c <__divsf3+0x14a>
     684:	8a 85       	ldd	r24, Y+10	; 0x0a
     686:	9a 89       	ldd	r25, Y+18	; 0x12
     688:	89 27       	eor	r24, r25
     68a:	8a 87       	std	Y+10, r24	; 0x0a
     68c:	24 30       	cpi	r18, 0x04	; 4
     68e:	11 f0       	breq	.+4      	; 0x694 <__divsf3+0x62>
     690:	22 30       	cpi	r18, 0x02	; 2
     692:	31 f4       	brne	.+12     	; 0x6a0 <__divsf3+0x6e>
     694:	23 17       	cp	r18, r19
     696:	09 f0       	breq	.+2      	; 0x69a <__divsf3+0x68>
     698:	6e c0       	rjmp	.+220    	; 0x776 <__divsf3+0x144>
     69a:	63 e6       	ldi	r22, 0x63	; 99
     69c:	70 e0       	ldi	r23, 0x00	; 0
     69e:	6e c0       	rjmp	.+220    	; 0x77c <__divsf3+0x14a>
     6a0:	34 30       	cpi	r19, 0x04	; 4
     6a2:	39 f4       	brne	.+14     	; 0x6b2 <__divsf3+0x80>
     6a4:	1d 86       	std	Y+13, r1	; 0x0d
     6a6:	1e 86       	std	Y+14, r1	; 0x0e
     6a8:	1f 86       	std	Y+15, r1	; 0x0f
     6aa:	18 8a       	std	Y+16, r1	; 0x10
     6ac:	1c 86       	std	Y+12, r1	; 0x0c
     6ae:	1b 86       	std	Y+11, r1	; 0x0b
     6b0:	04 c0       	rjmp	.+8      	; 0x6ba <__divsf3+0x88>
     6b2:	32 30       	cpi	r19, 0x02	; 2
     6b4:	21 f4       	brne	.+8      	; 0x6be <__divsf3+0x8c>
     6b6:	84 e0       	ldi	r24, 0x04	; 4
     6b8:	89 87       	std	Y+9, r24	; 0x09
     6ba:	b7 01       	movw	r22, r14
     6bc:	5f c0       	rjmp	.+190    	; 0x77c <__divsf3+0x14a>
     6be:	2b 85       	ldd	r18, Y+11	; 0x0b
     6c0:	3c 85       	ldd	r19, Y+12	; 0x0c
     6c2:	8b 89       	ldd	r24, Y+19	; 0x13
     6c4:	9c 89       	ldd	r25, Y+20	; 0x14
     6c6:	28 1b       	sub	r18, r24
     6c8:	39 0b       	sbc	r19, r25
     6ca:	3c 87       	std	Y+12, r19	; 0x0c
     6cc:	2b 87       	std	Y+11, r18	; 0x0b
     6ce:	ed 84       	ldd	r14, Y+13	; 0x0d
     6d0:	fe 84       	ldd	r15, Y+14	; 0x0e
     6d2:	0f 85       	ldd	r16, Y+15	; 0x0f
     6d4:	18 89       	ldd	r17, Y+16	; 0x10
     6d6:	ad 88       	ldd	r10, Y+21	; 0x15
     6d8:	be 88       	ldd	r11, Y+22	; 0x16
     6da:	cf 88       	ldd	r12, Y+23	; 0x17
     6dc:	d8 8c       	ldd	r13, Y+24	; 0x18
     6de:	ea 14       	cp	r14, r10
     6e0:	fb 04       	cpc	r15, r11
     6e2:	0c 05       	cpc	r16, r12
     6e4:	1d 05       	cpc	r17, r13
     6e6:	40 f4       	brcc	.+16     	; 0x6f8 <__divsf3+0xc6>
     6e8:	ee 0c       	add	r14, r14
     6ea:	ff 1c       	adc	r15, r15
     6ec:	00 1f       	adc	r16, r16
     6ee:	11 1f       	adc	r17, r17
     6f0:	21 50       	subi	r18, 0x01	; 1
     6f2:	30 40       	sbci	r19, 0x00	; 0
     6f4:	3c 87       	std	Y+12, r19	; 0x0c
     6f6:	2b 87       	std	Y+11, r18	; 0x0b
     6f8:	20 e0       	ldi	r18, 0x00	; 0
     6fa:	30 e0       	ldi	r19, 0x00	; 0
     6fc:	40 e0       	ldi	r20, 0x00	; 0
     6fe:	50 e0       	ldi	r21, 0x00	; 0
     700:	80 e0       	ldi	r24, 0x00	; 0
     702:	90 e0       	ldi	r25, 0x00	; 0
     704:	a0 e0       	ldi	r26, 0x00	; 0
     706:	b0 e4       	ldi	r27, 0x40	; 64
     708:	60 e0       	ldi	r22, 0x00	; 0
     70a:	70 e0       	ldi	r23, 0x00	; 0
     70c:	ea 14       	cp	r14, r10
     70e:	fb 04       	cpc	r15, r11
     710:	0c 05       	cpc	r16, r12
     712:	1d 05       	cpc	r17, r13
     714:	40 f0       	brcs	.+16     	; 0x726 <__divsf3+0xf4>
     716:	28 2b       	or	r18, r24
     718:	39 2b       	or	r19, r25
     71a:	4a 2b       	or	r20, r26
     71c:	5b 2b       	or	r21, r27
     71e:	ea 18       	sub	r14, r10
     720:	fb 08       	sbc	r15, r11
     722:	0c 09       	sbc	r16, r12
     724:	1d 09       	sbc	r17, r13
     726:	b6 95       	lsr	r27
     728:	a7 95       	ror	r26
     72a:	97 95       	ror	r25
     72c:	87 95       	ror	r24
     72e:	ee 0c       	add	r14, r14
     730:	ff 1c       	adc	r15, r15
     732:	00 1f       	adc	r16, r16
     734:	11 1f       	adc	r17, r17
     736:	6f 5f       	subi	r22, 0xFF	; 255
     738:	7f 4f       	sbci	r23, 0xFF	; 255
     73a:	6f 31       	cpi	r22, 0x1F	; 31
     73c:	71 05       	cpc	r23, r1
     73e:	31 f7       	brne	.-52     	; 0x70c <__divsf3+0xda>
     740:	da 01       	movw	r26, r20
     742:	c9 01       	movw	r24, r18
     744:	8f 77       	andi	r24, 0x7F	; 127
     746:	90 70       	andi	r25, 0x00	; 0
     748:	a0 70       	andi	r26, 0x00	; 0
     74a:	b0 70       	andi	r27, 0x00	; 0
     74c:	80 34       	cpi	r24, 0x40	; 64
     74e:	91 05       	cpc	r25, r1
     750:	a1 05       	cpc	r26, r1
     752:	b1 05       	cpc	r27, r1
     754:	61 f4       	brne	.+24     	; 0x76e <__divsf3+0x13c>
     756:	27 fd       	sbrc	r18, 7
     758:	0a c0       	rjmp	.+20     	; 0x76e <__divsf3+0x13c>
     75a:	e1 14       	cp	r14, r1
     75c:	f1 04       	cpc	r15, r1
     75e:	01 05       	cpc	r16, r1
     760:	11 05       	cpc	r17, r1
     762:	29 f0       	breq	.+10     	; 0x76e <__divsf3+0x13c>
     764:	20 5c       	subi	r18, 0xC0	; 192
     766:	3f 4f       	sbci	r19, 0xFF	; 255
     768:	4f 4f       	sbci	r20, 0xFF	; 255
     76a:	5f 4f       	sbci	r21, 0xFF	; 255
     76c:	20 78       	andi	r18, 0x80	; 128
     76e:	2d 87       	std	Y+13, r18	; 0x0d
     770:	3e 87       	std	Y+14, r19	; 0x0e
     772:	4f 87       	std	Y+15, r20	; 0x0f
     774:	58 8b       	std	Y+16, r21	; 0x10
     776:	be 01       	movw	r22, r28
     778:	67 5f       	subi	r22, 0xF7	; 247
     77a:	7f 4f       	sbci	r23, 0xFF	; 255
     77c:	cb 01       	movw	r24, r22
     77e:	0e 94 a1 05 	call	0xb42	; 0xb42 <__pack_f>
     782:	68 96       	adiw	r28, 0x18	; 24
     784:	ea e0       	ldi	r30, 0x0A	; 10
     786:	0c 94 7e 39 	jmp	0x72fc	; 0x72fc <__epilogue_restores__+0x10>

0000078a <__nesf2>:
     78a:	a8 e1       	ldi	r26, 0x18	; 24
     78c:	b0 e0       	ldi	r27, 0x00	; 0
     78e:	eb ec       	ldi	r30, 0xCB	; 203
     790:	f3 e0       	ldi	r31, 0x03	; 3
     792:	0c 94 66 39 	jmp	0x72cc	; 0x72cc <__prologue_saves__+0x18>
     796:	69 83       	std	Y+1, r22	; 0x01
     798:	7a 83       	std	Y+2, r23	; 0x02
     79a:	8b 83       	std	Y+3, r24	; 0x03
     79c:	9c 83       	std	Y+4, r25	; 0x04
     79e:	2d 83       	std	Y+5, r18	; 0x05
     7a0:	3e 83       	std	Y+6, r19	; 0x06
     7a2:	4f 83       	std	Y+7, r20	; 0x07
     7a4:	58 87       	std	Y+8, r21	; 0x08
     7a6:	89 e0       	ldi	r24, 0x09	; 9
     7a8:	e8 2e       	mov	r14, r24
     7aa:	f1 2c       	mov	r15, r1
     7ac:	ec 0e       	add	r14, r28
     7ae:	fd 1e       	adc	r15, r29
     7b0:	ce 01       	movw	r24, r28
     7b2:	01 96       	adiw	r24, 0x01	; 1
     7b4:	b7 01       	movw	r22, r14
     7b6:	0e 94 76 06 	call	0xcec	; 0xcec <__unpack_f>
     7ba:	8e 01       	movw	r16, r28
     7bc:	0f 5e       	subi	r16, 0xEF	; 239
     7be:	1f 4f       	sbci	r17, 0xFF	; 255
     7c0:	ce 01       	movw	r24, r28
     7c2:	05 96       	adiw	r24, 0x05	; 5
     7c4:	b8 01       	movw	r22, r16
     7c6:	0e 94 76 06 	call	0xcec	; 0xcec <__unpack_f>
     7ca:	89 85       	ldd	r24, Y+9	; 0x09
     7cc:	82 30       	cpi	r24, 0x02	; 2
     7ce:	40 f0       	brcs	.+16     	; 0x7e0 <__nesf2+0x56>
     7d0:	89 89       	ldd	r24, Y+17	; 0x11
     7d2:	82 30       	cpi	r24, 0x02	; 2
     7d4:	28 f0       	brcs	.+10     	; 0x7e0 <__nesf2+0x56>
     7d6:	c7 01       	movw	r24, r14
     7d8:	b8 01       	movw	r22, r16
     7da:	0e 94 ee 06 	call	0xddc	; 0xddc <__fpcmp_parts_f>
     7de:	01 c0       	rjmp	.+2      	; 0x7e2 <__nesf2+0x58>
     7e0:	81 e0       	ldi	r24, 0x01	; 1
     7e2:	68 96       	adiw	r28, 0x18	; 24
     7e4:	e6 e0       	ldi	r30, 0x06	; 6
     7e6:	0c 94 82 39 	jmp	0x7304	; 0x7304 <__epilogue_restores__+0x18>

000007ea <__gtsf2>:
     7ea:	a8 e1       	ldi	r26, 0x18	; 24
     7ec:	b0 e0       	ldi	r27, 0x00	; 0
     7ee:	eb ef       	ldi	r30, 0xFB	; 251
     7f0:	f3 e0       	ldi	r31, 0x03	; 3
     7f2:	0c 94 66 39 	jmp	0x72cc	; 0x72cc <__prologue_saves__+0x18>
     7f6:	69 83       	std	Y+1, r22	; 0x01
     7f8:	7a 83       	std	Y+2, r23	; 0x02
     7fa:	8b 83       	std	Y+3, r24	; 0x03
     7fc:	9c 83       	std	Y+4, r25	; 0x04
     7fe:	2d 83       	std	Y+5, r18	; 0x05
     800:	3e 83       	std	Y+6, r19	; 0x06
     802:	4f 83       	std	Y+7, r20	; 0x07
     804:	58 87       	std	Y+8, r21	; 0x08
     806:	89 e0       	ldi	r24, 0x09	; 9
     808:	e8 2e       	mov	r14, r24
     80a:	f1 2c       	mov	r15, r1
     80c:	ec 0e       	add	r14, r28
     80e:	fd 1e       	adc	r15, r29
     810:	ce 01       	movw	r24, r28
     812:	01 96       	adiw	r24, 0x01	; 1
     814:	b7 01       	movw	r22, r14
     816:	0e 94 76 06 	call	0xcec	; 0xcec <__unpack_f>
     81a:	8e 01       	movw	r16, r28
     81c:	0f 5e       	subi	r16, 0xEF	; 239
     81e:	1f 4f       	sbci	r17, 0xFF	; 255
     820:	ce 01       	movw	r24, r28
     822:	05 96       	adiw	r24, 0x05	; 5
     824:	b8 01       	movw	r22, r16
     826:	0e 94 76 06 	call	0xcec	; 0xcec <__unpack_f>
     82a:	89 85       	ldd	r24, Y+9	; 0x09
     82c:	82 30       	cpi	r24, 0x02	; 2
     82e:	40 f0       	brcs	.+16     	; 0x840 <__gtsf2+0x56>
     830:	89 89       	ldd	r24, Y+17	; 0x11
     832:	82 30       	cpi	r24, 0x02	; 2
     834:	28 f0       	brcs	.+10     	; 0x840 <__gtsf2+0x56>
     836:	c7 01       	movw	r24, r14
     838:	b8 01       	movw	r22, r16
     83a:	0e 94 ee 06 	call	0xddc	; 0xddc <__fpcmp_parts_f>
     83e:	01 c0       	rjmp	.+2      	; 0x842 <__gtsf2+0x58>
     840:	8f ef       	ldi	r24, 0xFF	; 255
     842:	68 96       	adiw	r28, 0x18	; 24
     844:	e6 e0       	ldi	r30, 0x06	; 6
     846:	0c 94 82 39 	jmp	0x7304	; 0x7304 <__epilogue_restores__+0x18>

0000084a <__gesf2>:
     84a:	a8 e1       	ldi	r26, 0x18	; 24
     84c:	b0 e0       	ldi	r27, 0x00	; 0
     84e:	eb e2       	ldi	r30, 0x2B	; 43
     850:	f4 e0       	ldi	r31, 0x04	; 4
     852:	0c 94 66 39 	jmp	0x72cc	; 0x72cc <__prologue_saves__+0x18>
     856:	69 83       	std	Y+1, r22	; 0x01
     858:	7a 83       	std	Y+2, r23	; 0x02
     85a:	8b 83       	std	Y+3, r24	; 0x03
     85c:	9c 83       	std	Y+4, r25	; 0x04
     85e:	2d 83       	std	Y+5, r18	; 0x05
     860:	3e 83       	std	Y+6, r19	; 0x06
     862:	4f 83       	std	Y+7, r20	; 0x07
     864:	58 87       	std	Y+8, r21	; 0x08
     866:	89 e0       	ldi	r24, 0x09	; 9
     868:	e8 2e       	mov	r14, r24
     86a:	f1 2c       	mov	r15, r1
     86c:	ec 0e       	add	r14, r28
     86e:	fd 1e       	adc	r15, r29
     870:	ce 01       	movw	r24, r28
     872:	01 96       	adiw	r24, 0x01	; 1
     874:	b7 01       	movw	r22, r14
     876:	0e 94 76 06 	call	0xcec	; 0xcec <__unpack_f>
     87a:	8e 01       	movw	r16, r28
     87c:	0f 5e       	subi	r16, 0xEF	; 239
     87e:	1f 4f       	sbci	r17, 0xFF	; 255
     880:	ce 01       	movw	r24, r28
     882:	05 96       	adiw	r24, 0x05	; 5
     884:	b8 01       	movw	r22, r16
     886:	0e 94 76 06 	call	0xcec	; 0xcec <__unpack_f>
     88a:	89 85       	ldd	r24, Y+9	; 0x09
     88c:	82 30       	cpi	r24, 0x02	; 2
     88e:	40 f0       	brcs	.+16     	; 0x8a0 <__stack+0x41>
     890:	89 89       	ldd	r24, Y+17	; 0x11
     892:	82 30       	cpi	r24, 0x02	; 2
     894:	28 f0       	brcs	.+10     	; 0x8a0 <__stack+0x41>
     896:	c7 01       	movw	r24, r14
     898:	b8 01       	movw	r22, r16
     89a:	0e 94 ee 06 	call	0xddc	; 0xddc <__fpcmp_parts_f>
     89e:	01 c0       	rjmp	.+2      	; 0x8a2 <__stack+0x43>
     8a0:	8f ef       	ldi	r24, 0xFF	; 255
     8a2:	68 96       	adiw	r28, 0x18	; 24
     8a4:	e6 e0       	ldi	r30, 0x06	; 6
     8a6:	0c 94 82 39 	jmp	0x7304	; 0x7304 <__epilogue_restores__+0x18>

000008aa <__ltsf2>:
     8aa:	a8 e1       	ldi	r26, 0x18	; 24
     8ac:	b0 e0       	ldi	r27, 0x00	; 0
     8ae:	eb e5       	ldi	r30, 0x5B	; 91
     8b0:	f4 e0       	ldi	r31, 0x04	; 4
     8b2:	0c 94 66 39 	jmp	0x72cc	; 0x72cc <__prologue_saves__+0x18>
     8b6:	69 83       	std	Y+1, r22	; 0x01
     8b8:	7a 83       	std	Y+2, r23	; 0x02
     8ba:	8b 83       	std	Y+3, r24	; 0x03
     8bc:	9c 83       	std	Y+4, r25	; 0x04
     8be:	2d 83       	std	Y+5, r18	; 0x05
     8c0:	3e 83       	std	Y+6, r19	; 0x06
     8c2:	4f 83       	std	Y+7, r20	; 0x07
     8c4:	58 87       	std	Y+8, r21	; 0x08
     8c6:	89 e0       	ldi	r24, 0x09	; 9
     8c8:	e8 2e       	mov	r14, r24
     8ca:	f1 2c       	mov	r15, r1
     8cc:	ec 0e       	add	r14, r28
     8ce:	fd 1e       	adc	r15, r29
     8d0:	ce 01       	movw	r24, r28
     8d2:	01 96       	adiw	r24, 0x01	; 1
     8d4:	b7 01       	movw	r22, r14
     8d6:	0e 94 76 06 	call	0xcec	; 0xcec <__unpack_f>
     8da:	8e 01       	movw	r16, r28
     8dc:	0f 5e       	subi	r16, 0xEF	; 239
     8de:	1f 4f       	sbci	r17, 0xFF	; 255
     8e0:	ce 01       	movw	r24, r28
     8e2:	05 96       	adiw	r24, 0x05	; 5
     8e4:	b8 01       	movw	r22, r16
     8e6:	0e 94 76 06 	call	0xcec	; 0xcec <__unpack_f>
     8ea:	89 85       	ldd	r24, Y+9	; 0x09
     8ec:	82 30       	cpi	r24, 0x02	; 2
     8ee:	40 f0       	brcs	.+16     	; 0x900 <__ltsf2+0x56>
     8f0:	89 89       	ldd	r24, Y+17	; 0x11
     8f2:	82 30       	cpi	r24, 0x02	; 2
     8f4:	28 f0       	brcs	.+10     	; 0x900 <__ltsf2+0x56>
     8f6:	c7 01       	movw	r24, r14
     8f8:	b8 01       	movw	r22, r16
     8fa:	0e 94 ee 06 	call	0xddc	; 0xddc <__fpcmp_parts_f>
     8fe:	01 c0       	rjmp	.+2      	; 0x902 <__ltsf2+0x58>
     900:	81 e0       	ldi	r24, 0x01	; 1
     902:	68 96       	adiw	r28, 0x18	; 24
     904:	e6 e0       	ldi	r30, 0x06	; 6
     906:	0c 94 82 39 	jmp	0x7304	; 0x7304 <__epilogue_restores__+0x18>

0000090a <__fixsfsi>:
     90a:	ac e0       	ldi	r26, 0x0C	; 12
     90c:	b0 e0       	ldi	r27, 0x00	; 0
     90e:	eb e8       	ldi	r30, 0x8B	; 139
     910:	f4 e0       	ldi	r31, 0x04	; 4
     912:	0c 94 6a 39 	jmp	0x72d4	; 0x72d4 <__prologue_saves__+0x20>
     916:	69 83       	std	Y+1, r22	; 0x01
     918:	7a 83       	std	Y+2, r23	; 0x02
     91a:	8b 83       	std	Y+3, r24	; 0x03
     91c:	9c 83       	std	Y+4, r25	; 0x04
     91e:	ce 01       	movw	r24, r28
     920:	01 96       	adiw	r24, 0x01	; 1
     922:	be 01       	movw	r22, r28
     924:	6b 5f       	subi	r22, 0xFB	; 251
     926:	7f 4f       	sbci	r23, 0xFF	; 255
     928:	0e 94 76 06 	call	0xcec	; 0xcec <__unpack_f>
     92c:	8d 81       	ldd	r24, Y+5	; 0x05
     92e:	82 30       	cpi	r24, 0x02	; 2
     930:	61 f1       	breq	.+88     	; 0x98a <__fixsfsi+0x80>
     932:	82 30       	cpi	r24, 0x02	; 2
     934:	50 f1       	brcs	.+84     	; 0x98a <__fixsfsi+0x80>
     936:	84 30       	cpi	r24, 0x04	; 4
     938:	21 f4       	brne	.+8      	; 0x942 <__fixsfsi+0x38>
     93a:	8e 81       	ldd	r24, Y+6	; 0x06
     93c:	88 23       	and	r24, r24
     93e:	51 f1       	breq	.+84     	; 0x994 <__fixsfsi+0x8a>
     940:	2e c0       	rjmp	.+92     	; 0x99e <__fixsfsi+0x94>
     942:	2f 81       	ldd	r18, Y+7	; 0x07
     944:	38 85       	ldd	r19, Y+8	; 0x08
     946:	37 fd       	sbrc	r19, 7
     948:	20 c0       	rjmp	.+64     	; 0x98a <__fixsfsi+0x80>
     94a:	6e 81       	ldd	r22, Y+6	; 0x06
     94c:	2f 31       	cpi	r18, 0x1F	; 31
     94e:	31 05       	cpc	r19, r1
     950:	1c f0       	brlt	.+6      	; 0x958 <__fixsfsi+0x4e>
     952:	66 23       	and	r22, r22
     954:	f9 f0       	breq	.+62     	; 0x994 <__fixsfsi+0x8a>
     956:	23 c0       	rjmp	.+70     	; 0x99e <__fixsfsi+0x94>
     958:	8e e1       	ldi	r24, 0x1E	; 30
     95a:	90 e0       	ldi	r25, 0x00	; 0
     95c:	82 1b       	sub	r24, r18
     95e:	93 0b       	sbc	r25, r19
     960:	29 85       	ldd	r18, Y+9	; 0x09
     962:	3a 85       	ldd	r19, Y+10	; 0x0a
     964:	4b 85       	ldd	r20, Y+11	; 0x0b
     966:	5c 85       	ldd	r21, Y+12	; 0x0c
     968:	04 c0       	rjmp	.+8      	; 0x972 <__fixsfsi+0x68>
     96a:	56 95       	lsr	r21
     96c:	47 95       	ror	r20
     96e:	37 95       	ror	r19
     970:	27 95       	ror	r18
     972:	8a 95       	dec	r24
     974:	d2 f7       	brpl	.-12     	; 0x96a <__fixsfsi+0x60>
     976:	66 23       	and	r22, r22
     978:	b1 f0       	breq	.+44     	; 0x9a6 <__fixsfsi+0x9c>
     97a:	50 95       	com	r21
     97c:	40 95       	com	r20
     97e:	30 95       	com	r19
     980:	21 95       	neg	r18
     982:	3f 4f       	sbci	r19, 0xFF	; 255
     984:	4f 4f       	sbci	r20, 0xFF	; 255
     986:	5f 4f       	sbci	r21, 0xFF	; 255
     988:	0e c0       	rjmp	.+28     	; 0x9a6 <__fixsfsi+0x9c>
     98a:	20 e0       	ldi	r18, 0x00	; 0
     98c:	30 e0       	ldi	r19, 0x00	; 0
     98e:	40 e0       	ldi	r20, 0x00	; 0
     990:	50 e0       	ldi	r21, 0x00	; 0
     992:	09 c0       	rjmp	.+18     	; 0x9a6 <__fixsfsi+0x9c>
     994:	2f ef       	ldi	r18, 0xFF	; 255
     996:	3f ef       	ldi	r19, 0xFF	; 255
     998:	4f ef       	ldi	r20, 0xFF	; 255
     99a:	5f e7       	ldi	r21, 0x7F	; 127
     99c:	04 c0       	rjmp	.+8      	; 0x9a6 <__fixsfsi+0x9c>
     99e:	20 e0       	ldi	r18, 0x00	; 0
     9a0:	30 e0       	ldi	r19, 0x00	; 0
     9a2:	40 e0       	ldi	r20, 0x00	; 0
     9a4:	50 e8       	ldi	r21, 0x80	; 128
     9a6:	b9 01       	movw	r22, r18
     9a8:	ca 01       	movw	r24, r20
     9aa:	2c 96       	adiw	r28, 0x0c	; 12
     9ac:	e2 e0       	ldi	r30, 0x02	; 2
     9ae:	0c 94 86 39 	jmp	0x730c	; 0x730c <__epilogue_restores__+0x20>

000009b2 <__floatunsisf>:
     9b2:	a8 e0       	ldi	r26, 0x08	; 8
     9b4:	b0 e0       	ldi	r27, 0x00	; 0
     9b6:	ef ed       	ldi	r30, 0xDF	; 223
     9b8:	f4 e0       	ldi	r31, 0x04	; 4
     9ba:	0c 94 62 39 	jmp	0x72c4	; 0x72c4 <__prologue_saves__+0x10>
     9be:	7b 01       	movw	r14, r22
     9c0:	8c 01       	movw	r16, r24
     9c2:	61 15       	cp	r22, r1
     9c4:	71 05       	cpc	r23, r1
     9c6:	81 05       	cpc	r24, r1
     9c8:	91 05       	cpc	r25, r1
     9ca:	19 f4       	brne	.+6      	; 0x9d2 <__floatunsisf+0x20>
     9cc:	82 e0       	ldi	r24, 0x02	; 2
     9ce:	89 83       	std	Y+1, r24	; 0x01
     9d0:	60 c0       	rjmp	.+192    	; 0xa92 <__floatunsisf+0xe0>
     9d2:	83 e0       	ldi	r24, 0x03	; 3
     9d4:	89 83       	std	Y+1, r24	; 0x01
     9d6:	8e e1       	ldi	r24, 0x1E	; 30
     9d8:	c8 2e       	mov	r12, r24
     9da:	d1 2c       	mov	r13, r1
     9dc:	dc 82       	std	Y+4, r13	; 0x04
     9de:	cb 82       	std	Y+3, r12	; 0x03
     9e0:	ed 82       	std	Y+5, r14	; 0x05
     9e2:	fe 82       	std	Y+6, r15	; 0x06
     9e4:	0f 83       	std	Y+7, r16	; 0x07
     9e6:	18 87       	std	Y+8, r17	; 0x08
     9e8:	c8 01       	movw	r24, r16
     9ea:	b7 01       	movw	r22, r14
     9ec:	0e 94 52 05 	call	0xaa4	; 0xaa4 <__clzsi2>
     9f0:	fc 01       	movw	r30, r24
     9f2:	31 97       	sbiw	r30, 0x01	; 1
     9f4:	f7 ff       	sbrs	r31, 7
     9f6:	3b c0       	rjmp	.+118    	; 0xa6e <__floatunsisf+0xbc>
     9f8:	22 27       	eor	r18, r18
     9fa:	33 27       	eor	r19, r19
     9fc:	2e 1b       	sub	r18, r30
     9fe:	3f 0b       	sbc	r19, r31
     a00:	57 01       	movw	r10, r14
     a02:	68 01       	movw	r12, r16
     a04:	02 2e       	mov	r0, r18
     a06:	04 c0       	rjmp	.+8      	; 0xa10 <__floatunsisf+0x5e>
     a08:	d6 94       	lsr	r13
     a0a:	c7 94       	ror	r12
     a0c:	b7 94       	ror	r11
     a0e:	a7 94       	ror	r10
     a10:	0a 94       	dec	r0
     a12:	d2 f7       	brpl	.-12     	; 0xa08 <__floatunsisf+0x56>
     a14:	40 e0       	ldi	r20, 0x00	; 0
     a16:	50 e0       	ldi	r21, 0x00	; 0
     a18:	60 e0       	ldi	r22, 0x00	; 0
     a1a:	70 e0       	ldi	r23, 0x00	; 0
     a1c:	81 e0       	ldi	r24, 0x01	; 1
     a1e:	90 e0       	ldi	r25, 0x00	; 0
     a20:	a0 e0       	ldi	r26, 0x00	; 0
     a22:	b0 e0       	ldi	r27, 0x00	; 0
     a24:	04 c0       	rjmp	.+8      	; 0xa2e <__floatunsisf+0x7c>
     a26:	88 0f       	add	r24, r24
     a28:	99 1f       	adc	r25, r25
     a2a:	aa 1f       	adc	r26, r26
     a2c:	bb 1f       	adc	r27, r27
     a2e:	2a 95       	dec	r18
     a30:	d2 f7       	brpl	.-12     	; 0xa26 <__floatunsisf+0x74>
     a32:	01 97       	sbiw	r24, 0x01	; 1
     a34:	a1 09       	sbc	r26, r1
     a36:	b1 09       	sbc	r27, r1
     a38:	8e 21       	and	r24, r14
     a3a:	9f 21       	and	r25, r15
     a3c:	a0 23       	and	r26, r16
     a3e:	b1 23       	and	r27, r17
     a40:	00 97       	sbiw	r24, 0x00	; 0
     a42:	a1 05       	cpc	r26, r1
     a44:	b1 05       	cpc	r27, r1
     a46:	21 f0       	breq	.+8      	; 0xa50 <__floatunsisf+0x9e>
     a48:	41 e0       	ldi	r20, 0x01	; 1
     a4a:	50 e0       	ldi	r21, 0x00	; 0
     a4c:	60 e0       	ldi	r22, 0x00	; 0
     a4e:	70 e0       	ldi	r23, 0x00	; 0
     a50:	4a 29       	or	r20, r10
     a52:	5b 29       	or	r21, r11
     a54:	6c 29       	or	r22, r12
     a56:	7d 29       	or	r23, r13
     a58:	4d 83       	std	Y+5, r20	; 0x05
     a5a:	5e 83       	std	Y+6, r21	; 0x06
     a5c:	6f 83       	std	Y+7, r22	; 0x07
     a5e:	78 87       	std	Y+8, r23	; 0x08
     a60:	8e e1       	ldi	r24, 0x1E	; 30
     a62:	90 e0       	ldi	r25, 0x00	; 0
     a64:	8e 1b       	sub	r24, r30
     a66:	9f 0b       	sbc	r25, r31
     a68:	9c 83       	std	Y+4, r25	; 0x04
     a6a:	8b 83       	std	Y+3, r24	; 0x03
     a6c:	12 c0       	rjmp	.+36     	; 0xa92 <__floatunsisf+0xe0>
     a6e:	30 97       	sbiw	r30, 0x00	; 0
     a70:	81 f0       	breq	.+32     	; 0xa92 <__floatunsisf+0xe0>
     a72:	0e 2e       	mov	r0, r30
     a74:	04 c0       	rjmp	.+8      	; 0xa7e <__floatunsisf+0xcc>
     a76:	ee 0c       	add	r14, r14
     a78:	ff 1c       	adc	r15, r15
     a7a:	00 1f       	adc	r16, r16
     a7c:	11 1f       	adc	r17, r17
     a7e:	0a 94       	dec	r0
     a80:	d2 f7       	brpl	.-12     	; 0xa76 <__floatunsisf+0xc4>
     a82:	ed 82       	std	Y+5, r14	; 0x05
     a84:	fe 82       	std	Y+6, r15	; 0x06
     a86:	0f 83       	std	Y+7, r16	; 0x07
     a88:	18 87       	std	Y+8, r17	; 0x08
     a8a:	ce 1a       	sub	r12, r30
     a8c:	df 0a       	sbc	r13, r31
     a8e:	dc 82       	std	Y+4, r13	; 0x04
     a90:	cb 82       	std	Y+3, r12	; 0x03
     a92:	1a 82       	std	Y+2, r1	; 0x02
     a94:	ce 01       	movw	r24, r28
     a96:	01 96       	adiw	r24, 0x01	; 1
     a98:	0e 94 a1 05 	call	0xb42	; 0xb42 <__pack_f>
     a9c:	28 96       	adiw	r28, 0x08	; 8
     a9e:	ea e0       	ldi	r30, 0x0A	; 10
     aa0:	0c 94 7e 39 	jmp	0x72fc	; 0x72fc <__epilogue_restores__+0x10>

00000aa4 <__clzsi2>:
     aa4:	ef 92       	push	r14
     aa6:	ff 92       	push	r15
     aa8:	0f 93       	push	r16
     aaa:	1f 93       	push	r17
     aac:	7b 01       	movw	r14, r22
     aae:	8c 01       	movw	r16, r24
     ab0:	80 e0       	ldi	r24, 0x00	; 0
     ab2:	e8 16       	cp	r14, r24
     ab4:	80 e0       	ldi	r24, 0x00	; 0
     ab6:	f8 06       	cpc	r15, r24
     ab8:	81 e0       	ldi	r24, 0x01	; 1
     aba:	08 07       	cpc	r16, r24
     abc:	80 e0       	ldi	r24, 0x00	; 0
     abe:	18 07       	cpc	r17, r24
     ac0:	88 f4       	brcc	.+34     	; 0xae4 <__clzsi2+0x40>
     ac2:	8f ef       	ldi	r24, 0xFF	; 255
     ac4:	e8 16       	cp	r14, r24
     ac6:	f1 04       	cpc	r15, r1
     ac8:	01 05       	cpc	r16, r1
     aca:	11 05       	cpc	r17, r1
     acc:	31 f0       	breq	.+12     	; 0xada <__clzsi2+0x36>
     ace:	28 f0       	brcs	.+10     	; 0xada <__clzsi2+0x36>
     ad0:	88 e0       	ldi	r24, 0x08	; 8
     ad2:	90 e0       	ldi	r25, 0x00	; 0
     ad4:	a0 e0       	ldi	r26, 0x00	; 0
     ad6:	b0 e0       	ldi	r27, 0x00	; 0
     ad8:	17 c0       	rjmp	.+46     	; 0xb08 <__clzsi2+0x64>
     ada:	80 e0       	ldi	r24, 0x00	; 0
     adc:	90 e0       	ldi	r25, 0x00	; 0
     ade:	a0 e0       	ldi	r26, 0x00	; 0
     ae0:	b0 e0       	ldi	r27, 0x00	; 0
     ae2:	12 c0       	rjmp	.+36     	; 0xb08 <__clzsi2+0x64>
     ae4:	80 e0       	ldi	r24, 0x00	; 0
     ae6:	e8 16       	cp	r14, r24
     ae8:	80 e0       	ldi	r24, 0x00	; 0
     aea:	f8 06       	cpc	r15, r24
     aec:	80 e0       	ldi	r24, 0x00	; 0
     aee:	08 07       	cpc	r16, r24
     af0:	81 e0       	ldi	r24, 0x01	; 1
     af2:	18 07       	cpc	r17, r24
     af4:	28 f0       	brcs	.+10     	; 0xb00 <__clzsi2+0x5c>
     af6:	88 e1       	ldi	r24, 0x18	; 24
     af8:	90 e0       	ldi	r25, 0x00	; 0
     afa:	a0 e0       	ldi	r26, 0x00	; 0
     afc:	b0 e0       	ldi	r27, 0x00	; 0
     afe:	04 c0       	rjmp	.+8      	; 0xb08 <__clzsi2+0x64>
     b00:	80 e1       	ldi	r24, 0x10	; 16
     b02:	90 e0       	ldi	r25, 0x00	; 0
     b04:	a0 e0       	ldi	r26, 0x00	; 0
     b06:	b0 e0       	ldi	r27, 0x00	; 0
     b08:	20 e2       	ldi	r18, 0x20	; 32
     b0a:	30 e0       	ldi	r19, 0x00	; 0
     b0c:	40 e0       	ldi	r20, 0x00	; 0
     b0e:	50 e0       	ldi	r21, 0x00	; 0
     b10:	28 1b       	sub	r18, r24
     b12:	39 0b       	sbc	r19, r25
     b14:	4a 0b       	sbc	r20, r26
     b16:	5b 0b       	sbc	r21, r27
     b18:	04 c0       	rjmp	.+8      	; 0xb22 <__clzsi2+0x7e>
     b1a:	16 95       	lsr	r17
     b1c:	07 95       	ror	r16
     b1e:	f7 94       	ror	r15
     b20:	e7 94       	ror	r14
     b22:	8a 95       	dec	r24
     b24:	d2 f7       	brpl	.-12     	; 0xb1a <__clzsi2+0x76>
     b26:	f7 01       	movw	r30, r14
     b28:	e5 59       	subi	r30, 0x95	; 149
     b2a:	ff 4f       	sbci	r31, 0xFF	; 255
     b2c:	80 81       	ld	r24, Z
     b2e:	28 1b       	sub	r18, r24
     b30:	31 09       	sbc	r19, r1
     b32:	41 09       	sbc	r20, r1
     b34:	51 09       	sbc	r21, r1
     b36:	c9 01       	movw	r24, r18
     b38:	1f 91       	pop	r17
     b3a:	0f 91       	pop	r16
     b3c:	ff 90       	pop	r15
     b3e:	ef 90       	pop	r14
     b40:	08 95       	ret

00000b42 <__pack_f>:
     b42:	df 92       	push	r13
     b44:	ef 92       	push	r14
     b46:	ff 92       	push	r15
     b48:	0f 93       	push	r16
     b4a:	1f 93       	push	r17
     b4c:	fc 01       	movw	r30, r24
     b4e:	e4 80       	ldd	r14, Z+4	; 0x04
     b50:	f5 80       	ldd	r15, Z+5	; 0x05
     b52:	06 81       	ldd	r16, Z+6	; 0x06
     b54:	17 81       	ldd	r17, Z+7	; 0x07
     b56:	d1 80       	ldd	r13, Z+1	; 0x01
     b58:	80 81       	ld	r24, Z
     b5a:	82 30       	cpi	r24, 0x02	; 2
     b5c:	48 f4       	brcc	.+18     	; 0xb70 <__pack_f+0x2e>
     b5e:	80 e0       	ldi	r24, 0x00	; 0
     b60:	90 e0       	ldi	r25, 0x00	; 0
     b62:	a0 e1       	ldi	r26, 0x10	; 16
     b64:	b0 e0       	ldi	r27, 0x00	; 0
     b66:	e8 2a       	or	r14, r24
     b68:	f9 2a       	or	r15, r25
     b6a:	0a 2b       	or	r16, r26
     b6c:	1b 2b       	or	r17, r27
     b6e:	a5 c0       	rjmp	.+330    	; 0xcba <__pack_f+0x178>
     b70:	84 30       	cpi	r24, 0x04	; 4
     b72:	09 f4       	brne	.+2      	; 0xb76 <__pack_f+0x34>
     b74:	9f c0       	rjmp	.+318    	; 0xcb4 <__pack_f+0x172>
     b76:	82 30       	cpi	r24, 0x02	; 2
     b78:	21 f4       	brne	.+8      	; 0xb82 <__pack_f+0x40>
     b7a:	ee 24       	eor	r14, r14
     b7c:	ff 24       	eor	r15, r15
     b7e:	87 01       	movw	r16, r14
     b80:	05 c0       	rjmp	.+10     	; 0xb8c <__pack_f+0x4a>
     b82:	e1 14       	cp	r14, r1
     b84:	f1 04       	cpc	r15, r1
     b86:	01 05       	cpc	r16, r1
     b88:	11 05       	cpc	r17, r1
     b8a:	19 f4       	brne	.+6      	; 0xb92 <__pack_f+0x50>
     b8c:	e0 e0       	ldi	r30, 0x00	; 0
     b8e:	f0 e0       	ldi	r31, 0x00	; 0
     b90:	96 c0       	rjmp	.+300    	; 0xcbe <__pack_f+0x17c>
     b92:	62 81       	ldd	r22, Z+2	; 0x02
     b94:	73 81       	ldd	r23, Z+3	; 0x03
     b96:	9f ef       	ldi	r25, 0xFF	; 255
     b98:	62 38       	cpi	r22, 0x82	; 130
     b9a:	79 07       	cpc	r23, r25
     b9c:	0c f0       	brlt	.+2      	; 0xba0 <__pack_f+0x5e>
     b9e:	5b c0       	rjmp	.+182    	; 0xc56 <__pack_f+0x114>
     ba0:	22 e8       	ldi	r18, 0x82	; 130
     ba2:	3f ef       	ldi	r19, 0xFF	; 255
     ba4:	26 1b       	sub	r18, r22
     ba6:	37 0b       	sbc	r19, r23
     ba8:	2a 31       	cpi	r18, 0x1A	; 26
     baa:	31 05       	cpc	r19, r1
     bac:	2c f0       	brlt	.+10     	; 0xbb8 <__pack_f+0x76>
     bae:	20 e0       	ldi	r18, 0x00	; 0
     bb0:	30 e0       	ldi	r19, 0x00	; 0
     bb2:	40 e0       	ldi	r20, 0x00	; 0
     bb4:	50 e0       	ldi	r21, 0x00	; 0
     bb6:	2a c0       	rjmp	.+84     	; 0xc0c <__pack_f+0xca>
     bb8:	b8 01       	movw	r22, r16
     bba:	a7 01       	movw	r20, r14
     bbc:	02 2e       	mov	r0, r18
     bbe:	04 c0       	rjmp	.+8      	; 0xbc8 <__pack_f+0x86>
     bc0:	76 95       	lsr	r23
     bc2:	67 95       	ror	r22
     bc4:	57 95       	ror	r21
     bc6:	47 95       	ror	r20
     bc8:	0a 94       	dec	r0
     bca:	d2 f7       	brpl	.-12     	; 0xbc0 <__pack_f+0x7e>
     bcc:	81 e0       	ldi	r24, 0x01	; 1
     bce:	90 e0       	ldi	r25, 0x00	; 0
     bd0:	a0 e0       	ldi	r26, 0x00	; 0
     bd2:	b0 e0       	ldi	r27, 0x00	; 0
     bd4:	04 c0       	rjmp	.+8      	; 0xbde <__pack_f+0x9c>
     bd6:	88 0f       	add	r24, r24
     bd8:	99 1f       	adc	r25, r25
     bda:	aa 1f       	adc	r26, r26
     bdc:	bb 1f       	adc	r27, r27
     bde:	2a 95       	dec	r18
     be0:	d2 f7       	brpl	.-12     	; 0xbd6 <__pack_f+0x94>
     be2:	01 97       	sbiw	r24, 0x01	; 1
     be4:	a1 09       	sbc	r26, r1
     be6:	b1 09       	sbc	r27, r1
     be8:	8e 21       	and	r24, r14
     bea:	9f 21       	and	r25, r15
     bec:	a0 23       	and	r26, r16
     bee:	b1 23       	and	r27, r17
     bf0:	00 97       	sbiw	r24, 0x00	; 0
     bf2:	a1 05       	cpc	r26, r1
     bf4:	b1 05       	cpc	r27, r1
     bf6:	21 f0       	breq	.+8      	; 0xc00 <__pack_f+0xbe>
     bf8:	81 e0       	ldi	r24, 0x01	; 1
     bfa:	90 e0       	ldi	r25, 0x00	; 0
     bfc:	a0 e0       	ldi	r26, 0x00	; 0
     bfe:	b0 e0       	ldi	r27, 0x00	; 0
     c00:	9a 01       	movw	r18, r20
     c02:	ab 01       	movw	r20, r22
     c04:	28 2b       	or	r18, r24
     c06:	39 2b       	or	r19, r25
     c08:	4a 2b       	or	r20, r26
     c0a:	5b 2b       	or	r21, r27
     c0c:	da 01       	movw	r26, r20
     c0e:	c9 01       	movw	r24, r18
     c10:	8f 77       	andi	r24, 0x7F	; 127
     c12:	90 70       	andi	r25, 0x00	; 0
     c14:	a0 70       	andi	r26, 0x00	; 0
     c16:	b0 70       	andi	r27, 0x00	; 0
     c18:	80 34       	cpi	r24, 0x40	; 64
     c1a:	91 05       	cpc	r25, r1
     c1c:	a1 05       	cpc	r26, r1
     c1e:	b1 05       	cpc	r27, r1
     c20:	39 f4       	brne	.+14     	; 0xc30 <__pack_f+0xee>
     c22:	27 ff       	sbrs	r18, 7
     c24:	09 c0       	rjmp	.+18     	; 0xc38 <__pack_f+0xf6>
     c26:	20 5c       	subi	r18, 0xC0	; 192
     c28:	3f 4f       	sbci	r19, 0xFF	; 255
     c2a:	4f 4f       	sbci	r20, 0xFF	; 255
     c2c:	5f 4f       	sbci	r21, 0xFF	; 255
     c2e:	04 c0       	rjmp	.+8      	; 0xc38 <__pack_f+0xf6>
     c30:	21 5c       	subi	r18, 0xC1	; 193
     c32:	3f 4f       	sbci	r19, 0xFF	; 255
     c34:	4f 4f       	sbci	r20, 0xFF	; 255
     c36:	5f 4f       	sbci	r21, 0xFF	; 255
     c38:	e0 e0       	ldi	r30, 0x00	; 0
     c3a:	f0 e0       	ldi	r31, 0x00	; 0
     c3c:	20 30       	cpi	r18, 0x00	; 0
     c3e:	a0 e0       	ldi	r26, 0x00	; 0
     c40:	3a 07       	cpc	r19, r26
     c42:	a0 e0       	ldi	r26, 0x00	; 0
     c44:	4a 07       	cpc	r20, r26
     c46:	a0 e4       	ldi	r26, 0x40	; 64
     c48:	5a 07       	cpc	r21, r26
     c4a:	10 f0       	brcs	.+4      	; 0xc50 <__pack_f+0x10e>
     c4c:	e1 e0       	ldi	r30, 0x01	; 1
     c4e:	f0 e0       	ldi	r31, 0x00	; 0
     c50:	79 01       	movw	r14, r18
     c52:	8a 01       	movw	r16, r20
     c54:	27 c0       	rjmp	.+78     	; 0xca4 <__pack_f+0x162>
     c56:	60 38       	cpi	r22, 0x80	; 128
     c58:	71 05       	cpc	r23, r1
     c5a:	64 f5       	brge	.+88     	; 0xcb4 <__pack_f+0x172>
     c5c:	fb 01       	movw	r30, r22
     c5e:	e1 58       	subi	r30, 0x81	; 129
     c60:	ff 4f       	sbci	r31, 0xFF	; 255
     c62:	d8 01       	movw	r26, r16
     c64:	c7 01       	movw	r24, r14
     c66:	8f 77       	andi	r24, 0x7F	; 127
     c68:	90 70       	andi	r25, 0x00	; 0
     c6a:	a0 70       	andi	r26, 0x00	; 0
     c6c:	b0 70       	andi	r27, 0x00	; 0
     c6e:	80 34       	cpi	r24, 0x40	; 64
     c70:	91 05       	cpc	r25, r1
     c72:	a1 05       	cpc	r26, r1
     c74:	b1 05       	cpc	r27, r1
     c76:	39 f4       	brne	.+14     	; 0xc86 <__pack_f+0x144>
     c78:	e7 fe       	sbrs	r14, 7
     c7a:	0d c0       	rjmp	.+26     	; 0xc96 <__pack_f+0x154>
     c7c:	80 e4       	ldi	r24, 0x40	; 64
     c7e:	90 e0       	ldi	r25, 0x00	; 0
     c80:	a0 e0       	ldi	r26, 0x00	; 0
     c82:	b0 e0       	ldi	r27, 0x00	; 0
     c84:	04 c0       	rjmp	.+8      	; 0xc8e <__pack_f+0x14c>
     c86:	8f e3       	ldi	r24, 0x3F	; 63
     c88:	90 e0       	ldi	r25, 0x00	; 0
     c8a:	a0 e0       	ldi	r26, 0x00	; 0
     c8c:	b0 e0       	ldi	r27, 0x00	; 0
     c8e:	e8 0e       	add	r14, r24
     c90:	f9 1e       	adc	r15, r25
     c92:	0a 1f       	adc	r16, r26
     c94:	1b 1f       	adc	r17, r27
     c96:	17 ff       	sbrs	r17, 7
     c98:	05 c0       	rjmp	.+10     	; 0xca4 <__pack_f+0x162>
     c9a:	16 95       	lsr	r17
     c9c:	07 95       	ror	r16
     c9e:	f7 94       	ror	r15
     ca0:	e7 94       	ror	r14
     ca2:	31 96       	adiw	r30, 0x01	; 1
     ca4:	87 e0       	ldi	r24, 0x07	; 7
     ca6:	16 95       	lsr	r17
     ca8:	07 95       	ror	r16
     caa:	f7 94       	ror	r15
     cac:	e7 94       	ror	r14
     cae:	8a 95       	dec	r24
     cb0:	d1 f7       	brne	.-12     	; 0xca6 <__pack_f+0x164>
     cb2:	05 c0       	rjmp	.+10     	; 0xcbe <__pack_f+0x17c>
     cb4:	ee 24       	eor	r14, r14
     cb6:	ff 24       	eor	r15, r15
     cb8:	87 01       	movw	r16, r14
     cba:	ef ef       	ldi	r30, 0xFF	; 255
     cbc:	f0 e0       	ldi	r31, 0x00	; 0
     cbe:	6e 2f       	mov	r22, r30
     cc0:	67 95       	ror	r22
     cc2:	66 27       	eor	r22, r22
     cc4:	67 95       	ror	r22
     cc6:	90 2f       	mov	r25, r16
     cc8:	9f 77       	andi	r25, 0x7F	; 127
     cca:	d7 94       	ror	r13
     ccc:	dd 24       	eor	r13, r13
     cce:	d7 94       	ror	r13
     cd0:	8e 2f       	mov	r24, r30
     cd2:	86 95       	lsr	r24
     cd4:	49 2f       	mov	r20, r25
     cd6:	46 2b       	or	r20, r22
     cd8:	58 2f       	mov	r21, r24
     cda:	5d 29       	or	r21, r13
     cdc:	b7 01       	movw	r22, r14
     cde:	ca 01       	movw	r24, r20
     ce0:	1f 91       	pop	r17
     ce2:	0f 91       	pop	r16
     ce4:	ff 90       	pop	r15
     ce6:	ef 90       	pop	r14
     ce8:	df 90       	pop	r13
     cea:	08 95       	ret

00000cec <__unpack_f>:
     cec:	fc 01       	movw	r30, r24
     cee:	db 01       	movw	r26, r22
     cf0:	40 81       	ld	r20, Z
     cf2:	51 81       	ldd	r21, Z+1	; 0x01
     cf4:	22 81       	ldd	r18, Z+2	; 0x02
     cf6:	62 2f       	mov	r22, r18
     cf8:	6f 77       	andi	r22, 0x7F	; 127
     cfa:	70 e0       	ldi	r23, 0x00	; 0
     cfc:	22 1f       	adc	r18, r18
     cfe:	22 27       	eor	r18, r18
     d00:	22 1f       	adc	r18, r18
     d02:	93 81       	ldd	r25, Z+3	; 0x03
     d04:	89 2f       	mov	r24, r25
     d06:	88 0f       	add	r24, r24
     d08:	82 2b       	or	r24, r18
     d0a:	28 2f       	mov	r18, r24
     d0c:	30 e0       	ldi	r19, 0x00	; 0
     d0e:	99 1f       	adc	r25, r25
     d10:	99 27       	eor	r25, r25
     d12:	99 1f       	adc	r25, r25
     d14:	11 96       	adiw	r26, 0x01	; 1
     d16:	9c 93       	st	X, r25
     d18:	11 97       	sbiw	r26, 0x01	; 1
     d1a:	21 15       	cp	r18, r1
     d1c:	31 05       	cpc	r19, r1
     d1e:	a9 f5       	brne	.+106    	; 0xd8a <__unpack_f+0x9e>
     d20:	41 15       	cp	r20, r1
     d22:	51 05       	cpc	r21, r1
     d24:	61 05       	cpc	r22, r1
     d26:	71 05       	cpc	r23, r1
     d28:	11 f4       	brne	.+4      	; 0xd2e <__unpack_f+0x42>
     d2a:	82 e0       	ldi	r24, 0x02	; 2
     d2c:	37 c0       	rjmp	.+110    	; 0xd9c <__unpack_f+0xb0>
     d2e:	82 e8       	ldi	r24, 0x82	; 130
     d30:	9f ef       	ldi	r25, 0xFF	; 255
     d32:	13 96       	adiw	r26, 0x03	; 3
     d34:	9c 93       	st	X, r25
     d36:	8e 93       	st	-X, r24
     d38:	12 97       	sbiw	r26, 0x02	; 2
     d3a:	9a 01       	movw	r18, r20
     d3c:	ab 01       	movw	r20, r22
     d3e:	67 e0       	ldi	r22, 0x07	; 7
     d40:	22 0f       	add	r18, r18
     d42:	33 1f       	adc	r19, r19
     d44:	44 1f       	adc	r20, r20
     d46:	55 1f       	adc	r21, r21
     d48:	6a 95       	dec	r22
     d4a:	d1 f7       	brne	.-12     	; 0xd40 <__unpack_f+0x54>
     d4c:	83 e0       	ldi	r24, 0x03	; 3
     d4e:	8c 93       	st	X, r24
     d50:	0d c0       	rjmp	.+26     	; 0xd6c <__unpack_f+0x80>
     d52:	22 0f       	add	r18, r18
     d54:	33 1f       	adc	r19, r19
     d56:	44 1f       	adc	r20, r20
     d58:	55 1f       	adc	r21, r21
     d5a:	12 96       	adiw	r26, 0x02	; 2
     d5c:	8d 91       	ld	r24, X+
     d5e:	9c 91       	ld	r25, X
     d60:	13 97       	sbiw	r26, 0x03	; 3
     d62:	01 97       	sbiw	r24, 0x01	; 1
     d64:	13 96       	adiw	r26, 0x03	; 3
     d66:	9c 93       	st	X, r25
     d68:	8e 93       	st	-X, r24
     d6a:	12 97       	sbiw	r26, 0x02	; 2
     d6c:	20 30       	cpi	r18, 0x00	; 0
     d6e:	80 e0       	ldi	r24, 0x00	; 0
     d70:	38 07       	cpc	r19, r24
     d72:	80 e0       	ldi	r24, 0x00	; 0
     d74:	48 07       	cpc	r20, r24
     d76:	80 e4       	ldi	r24, 0x40	; 64
     d78:	58 07       	cpc	r21, r24
     d7a:	58 f3       	brcs	.-42     	; 0xd52 <__unpack_f+0x66>
     d7c:	14 96       	adiw	r26, 0x04	; 4
     d7e:	2d 93       	st	X+, r18
     d80:	3d 93       	st	X+, r19
     d82:	4d 93       	st	X+, r20
     d84:	5c 93       	st	X, r21
     d86:	17 97       	sbiw	r26, 0x07	; 7
     d88:	08 95       	ret
     d8a:	2f 3f       	cpi	r18, 0xFF	; 255
     d8c:	31 05       	cpc	r19, r1
     d8e:	79 f4       	brne	.+30     	; 0xdae <__unpack_f+0xc2>
     d90:	41 15       	cp	r20, r1
     d92:	51 05       	cpc	r21, r1
     d94:	61 05       	cpc	r22, r1
     d96:	71 05       	cpc	r23, r1
     d98:	19 f4       	brne	.+6      	; 0xda0 <__unpack_f+0xb4>
     d9a:	84 e0       	ldi	r24, 0x04	; 4
     d9c:	8c 93       	st	X, r24
     d9e:	08 95       	ret
     da0:	64 ff       	sbrs	r22, 4
     da2:	03 c0       	rjmp	.+6      	; 0xdaa <__unpack_f+0xbe>
     da4:	81 e0       	ldi	r24, 0x01	; 1
     da6:	8c 93       	st	X, r24
     da8:	12 c0       	rjmp	.+36     	; 0xdce <__unpack_f+0xe2>
     daa:	1c 92       	st	X, r1
     dac:	10 c0       	rjmp	.+32     	; 0xdce <__unpack_f+0xe2>
     dae:	2f 57       	subi	r18, 0x7F	; 127
     db0:	30 40       	sbci	r19, 0x00	; 0
     db2:	13 96       	adiw	r26, 0x03	; 3
     db4:	3c 93       	st	X, r19
     db6:	2e 93       	st	-X, r18
     db8:	12 97       	sbiw	r26, 0x02	; 2
     dba:	83 e0       	ldi	r24, 0x03	; 3
     dbc:	8c 93       	st	X, r24
     dbe:	87 e0       	ldi	r24, 0x07	; 7
     dc0:	44 0f       	add	r20, r20
     dc2:	55 1f       	adc	r21, r21
     dc4:	66 1f       	adc	r22, r22
     dc6:	77 1f       	adc	r23, r23
     dc8:	8a 95       	dec	r24
     dca:	d1 f7       	brne	.-12     	; 0xdc0 <__unpack_f+0xd4>
     dcc:	70 64       	ori	r23, 0x40	; 64
     dce:	14 96       	adiw	r26, 0x04	; 4
     dd0:	4d 93       	st	X+, r20
     dd2:	5d 93       	st	X+, r21
     dd4:	6d 93       	st	X+, r22
     dd6:	7c 93       	st	X, r23
     dd8:	17 97       	sbiw	r26, 0x07	; 7
     dda:	08 95       	ret

00000ddc <__fpcmp_parts_f>:
     ddc:	1f 93       	push	r17
     dde:	dc 01       	movw	r26, r24
     de0:	fb 01       	movw	r30, r22
     de2:	9c 91       	ld	r25, X
     de4:	92 30       	cpi	r25, 0x02	; 2
     de6:	08 f4       	brcc	.+2      	; 0xdea <__fpcmp_parts_f+0xe>
     de8:	47 c0       	rjmp	.+142    	; 0xe78 <__fpcmp_parts_f+0x9c>
     dea:	80 81       	ld	r24, Z
     dec:	82 30       	cpi	r24, 0x02	; 2
     dee:	08 f4       	brcc	.+2      	; 0xdf2 <__fpcmp_parts_f+0x16>
     df0:	43 c0       	rjmp	.+134    	; 0xe78 <__fpcmp_parts_f+0x9c>
     df2:	94 30       	cpi	r25, 0x04	; 4
     df4:	51 f4       	brne	.+20     	; 0xe0a <__fpcmp_parts_f+0x2e>
     df6:	11 96       	adiw	r26, 0x01	; 1
     df8:	1c 91       	ld	r17, X
     dfa:	84 30       	cpi	r24, 0x04	; 4
     dfc:	99 f5       	brne	.+102    	; 0xe64 <__fpcmp_parts_f+0x88>
     dfe:	81 81       	ldd	r24, Z+1	; 0x01
     e00:	68 2f       	mov	r22, r24
     e02:	70 e0       	ldi	r23, 0x00	; 0
     e04:	61 1b       	sub	r22, r17
     e06:	71 09       	sbc	r23, r1
     e08:	3f c0       	rjmp	.+126    	; 0xe88 <__fpcmp_parts_f+0xac>
     e0a:	84 30       	cpi	r24, 0x04	; 4
     e0c:	21 f0       	breq	.+8      	; 0xe16 <__fpcmp_parts_f+0x3a>
     e0e:	92 30       	cpi	r25, 0x02	; 2
     e10:	31 f4       	brne	.+12     	; 0xe1e <__fpcmp_parts_f+0x42>
     e12:	82 30       	cpi	r24, 0x02	; 2
     e14:	b9 f1       	breq	.+110    	; 0xe84 <__fpcmp_parts_f+0xa8>
     e16:	81 81       	ldd	r24, Z+1	; 0x01
     e18:	88 23       	and	r24, r24
     e1a:	89 f1       	breq	.+98     	; 0xe7e <__fpcmp_parts_f+0xa2>
     e1c:	2d c0       	rjmp	.+90     	; 0xe78 <__fpcmp_parts_f+0x9c>
     e1e:	11 96       	adiw	r26, 0x01	; 1
     e20:	1c 91       	ld	r17, X
     e22:	11 97       	sbiw	r26, 0x01	; 1
     e24:	82 30       	cpi	r24, 0x02	; 2
     e26:	f1 f0       	breq	.+60     	; 0xe64 <__fpcmp_parts_f+0x88>
     e28:	81 81       	ldd	r24, Z+1	; 0x01
     e2a:	18 17       	cp	r17, r24
     e2c:	d9 f4       	brne	.+54     	; 0xe64 <__fpcmp_parts_f+0x88>
     e2e:	12 96       	adiw	r26, 0x02	; 2
     e30:	2d 91       	ld	r18, X+
     e32:	3c 91       	ld	r19, X
     e34:	13 97       	sbiw	r26, 0x03	; 3
     e36:	82 81       	ldd	r24, Z+2	; 0x02
     e38:	93 81       	ldd	r25, Z+3	; 0x03
     e3a:	82 17       	cp	r24, r18
     e3c:	93 07       	cpc	r25, r19
     e3e:	94 f0       	brlt	.+36     	; 0xe64 <__fpcmp_parts_f+0x88>
     e40:	28 17       	cp	r18, r24
     e42:	39 07       	cpc	r19, r25
     e44:	bc f0       	brlt	.+46     	; 0xe74 <__fpcmp_parts_f+0x98>
     e46:	14 96       	adiw	r26, 0x04	; 4
     e48:	8d 91       	ld	r24, X+
     e4a:	9d 91       	ld	r25, X+
     e4c:	0d 90       	ld	r0, X+
     e4e:	bc 91       	ld	r27, X
     e50:	a0 2d       	mov	r26, r0
     e52:	24 81       	ldd	r18, Z+4	; 0x04
     e54:	35 81       	ldd	r19, Z+5	; 0x05
     e56:	46 81       	ldd	r20, Z+6	; 0x06
     e58:	57 81       	ldd	r21, Z+7	; 0x07
     e5a:	28 17       	cp	r18, r24
     e5c:	39 07       	cpc	r19, r25
     e5e:	4a 07       	cpc	r20, r26
     e60:	5b 07       	cpc	r21, r27
     e62:	18 f4       	brcc	.+6      	; 0xe6a <__fpcmp_parts_f+0x8e>
     e64:	11 23       	and	r17, r17
     e66:	41 f0       	breq	.+16     	; 0xe78 <__fpcmp_parts_f+0x9c>
     e68:	0a c0       	rjmp	.+20     	; 0xe7e <__fpcmp_parts_f+0xa2>
     e6a:	82 17       	cp	r24, r18
     e6c:	93 07       	cpc	r25, r19
     e6e:	a4 07       	cpc	r26, r20
     e70:	b5 07       	cpc	r27, r21
     e72:	40 f4       	brcc	.+16     	; 0xe84 <__fpcmp_parts_f+0xa8>
     e74:	11 23       	and	r17, r17
     e76:	19 f0       	breq	.+6      	; 0xe7e <__fpcmp_parts_f+0xa2>
     e78:	61 e0       	ldi	r22, 0x01	; 1
     e7a:	70 e0       	ldi	r23, 0x00	; 0
     e7c:	05 c0       	rjmp	.+10     	; 0xe88 <__fpcmp_parts_f+0xac>
     e7e:	6f ef       	ldi	r22, 0xFF	; 255
     e80:	7f ef       	ldi	r23, 0xFF	; 255
     e82:	02 c0       	rjmp	.+4      	; 0xe88 <__fpcmp_parts_f+0xac>
     e84:	60 e0       	ldi	r22, 0x00	; 0
     e86:	70 e0       	ldi	r23, 0x00	; 0
     e88:	cb 01       	movw	r24, r22
     e8a:	1f 91       	pop	r17
     e8c:	08 95       	ret

00000e8e <USART_enuInit>:
#include "USART_priv.h"
#include "USART_config.h"


ES_t USART_enuInit(void)
{
     e8e:	df 93       	push	r29
     e90:	cf 93       	push	r28
     e92:	00 d0       	rcall	.+0      	; 0xe94 <USART_enuInit+0x6>
     e94:	00 d0       	rcall	.+0      	; 0xe96 <USART_enuInit+0x8>
     e96:	cd b7       	in	r28, 0x3d	; 61
     e98:	de b7       	in	r29, 0x3e	; 62
	ES_t Local_enuErrorState = ES_NOK;
     e9a:	81 e0       	ldi	r24, 0x01	; 1
     e9c:	8c 83       	std	Y+4, r24	; 0x04
	u8 Local_u8UCSRAvalue = 0;
     e9e:	1b 82       	std	Y+3, r1	; 0x03
	u16 Local_u16UBRRvalue = 0;
     ea0:	1a 82       	std	Y+2, r1	; 0x02
     ea2:	19 82       	std	Y+1, r1	; 0x01
	
	#if USART_SPEED == NORMAL_SPEED
	UCSRA &= ~(MASK_BIT << U2X);
     ea4:	ab e2       	ldi	r26, 0x2B	; 43
     ea6:	b0 e0       	ldi	r27, 0x00	; 0
     ea8:	eb e2       	ldi	r30, 0x2B	; 43
     eaa:	f0 e0       	ldi	r31, 0x00	; 0
     eac:	80 81       	ld	r24, Z
     eae:	8d 7f       	andi	r24, 0xFD	; 253
     eb0:	8c 93       	st	X, r24
	#if USART_MODE == TRANSMITTER
	UCSRB |= (MASK_BIT << TXEN);
	#elif USART_MODE == RECEIVER
	UCSRB |= (MASK_BIT << RXEN);
	#elif USART_MODE == TRANSCEIVER
	UCSRB |= (MASK_BIT << TXEN);
     eb2:	aa e2       	ldi	r26, 0x2A	; 42
     eb4:	b0 e0       	ldi	r27, 0x00	; 0
     eb6:	ea e2       	ldi	r30, 0x2A	; 42
     eb8:	f0 e0       	ldi	r31, 0x00	; 0
     eba:	80 81       	ld	r24, Z
     ebc:	88 60       	ori	r24, 0x08	; 8
     ebe:	8c 93       	st	X, r24
	UCSRB |= (MASK_BIT << RXEN);
     ec0:	aa e2       	ldi	r26, 0x2A	; 42
     ec2:	b0 e0       	ldi	r27, 0x00	; 0
     ec4:	ea e2       	ldi	r30, 0x2A	; 42
     ec6:	f0 e0       	ldi	r31, 0x00	; 0
     ec8:	80 81       	ld	r24, Z
     eca:	80 61       	ori	r24, 0x10	; 16
     ecc:	8c 93       	st	X, r24
	#elif USART_DATA_LENGTH == SEVEN_DATA_LENGTH
	Local_u8UCSRAvalue &= ~(MASK_BIT << UCSZ0);
	Local_u8UCSRAvalue |=  (MASK_BIT << UCSZ1);
	UCSRB &= ~(MASK_BIT << UCSZ2);
	#elif USART_DATA_LENGTH == EIGHT_DATA_LENGTH
	Local_u8UCSRAvalue |=  (MASK_BIT << UCSZ0);
     ece:	8b 81       	ldd	r24, Y+3	; 0x03
     ed0:	82 60       	ori	r24, 0x02	; 2
     ed2:	8b 83       	std	Y+3, r24	; 0x03
	Local_u8UCSRAvalue |=  (MASK_BIT << UCSZ1);
     ed4:	8b 81       	ldd	r24, Y+3	; 0x03
     ed6:	84 60       	ori	r24, 0x04	; 4
     ed8:	8b 83       	std	Y+3, r24	; 0x03
	UCSRB &= ~(MASK_BIT << UCSZ2);
     eda:	aa e2       	ldi	r26, 0x2A	; 42
     edc:	b0 e0       	ldi	r27, 0x00	; 0
     ede:	ea e2       	ldi	r30, 0x2A	; 42
     ee0:	f0 e0       	ldi	r31, 0x00	; 0
     ee2:	80 81       	ld	r24, Z
     ee4:	8b 7f       	andi	r24, 0xFB	; 251
     ee6:	8c 93       	st	X, r24
	#else
	#error "USART DATA LENGTH has a wrong configuration"
	#endif
	
	#if TRANSMITTION_MODE == ASYNCHRONOUS
	Local_u8UCSRAvalue &= ~(MASK_BIT << UMSEL);
     ee8:	8b 81       	ldd	r24, Y+3	; 0x03
     eea:	8f 7b       	andi	r24, 0xBF	; 191
     eec:	8b 83       	std	Y+3, r24	; 0x03
	#else
	#error "USART TRANSMITTION MODE has a wrong configuration"
	#endif
	
	#if PARITY_STATE == NO_PARITY
	Local_u8UCSRAvalue &= ~(MASK_BIT << UPM0);
     eee:	8b 81       	ldd	r24, Y+3	; 0x03
     ef0:	8f 7e       	andi	r24, 0xEF	; 239
     ef2:	8b 83       	std	Y+3, r24	; 0x03
	Local_u8UCSRAvalue &= ~(MASK_BIT << UPM1);
     ef4:	8b 81       	ldd	r24, Y+3	; 0x03
     ef6:	8f 7d       	andi	r24, 0xDF	; 223
     ef8:	8b 83       	std	Y+3, r24	; 0x03
	#else
	#error "USART PARITY has a wrong configuration"
	#endif
	
	#if NO_STOP_BITS == ONE_STOP_BITS
	Local_u8UCSRAvalue &= ~(MASK_BIT << USBS);
     efa:	8b 81       	ldd	r24, Y+3	; 0x03
     efc:	87 7f       	andi	r24, 0xF7	; 247
     efe:	8b 83       	std	Y+3, r24	; 0x03
	Local_u8UCSRAvalue |=  (MASK_BIT << USBS);
	#else
	#error "USART STOP BITS has a wrong configuration"
	#endif
	
	Local_u8UCSRAvalue |= (MASK_BIT << URSEL);
     f00:	8b 81       	ldd	r24, Y+3	; 0x03
     f02:	80 68       	ori	r24, 0x80	; 128
     f04:	8b 83       	std	Y+3, r24	; 0x03
	UCSRC = Local_u8UCSRAvalue;
     f06:	e0 e4       	ldi	r30, 0x40	; 64
     f08:	f0 e0       	ldi	r31, 0x00	; 0
     f0a:	8b 81       	ldd	r24, Y+3	; 0x03
     f0c:	80 83       	st	Z, r24
	
	
	Local_u16UBRRvalue = (u16)CALCULATE_BAUDRATE(USART_BAUD_RATE);
     f0e:	83 e3       	ldi	r24, 0x33	; 51
     f10:	90 e0       	ldi	r25, 0x00	; 0
     f12:	9a 83       	std	Y+2, r25	; 0x02
     f14:	89 83       	std	Y+1, r24	; 0x01
	
	Local_u16UBRRvalue &= ~(MASK_BIT << 15);
     f16:	89 81       	ldd	r24, Y+1	; 0x01
     f18:	9a 81       	ldd	r25, Y+2	; 0x02
     f1a:	9f 77       	andi	r25, 0x7F	; 127
     f1c:	9a 83       	std	Y+2, r25	; 0x02
     f1e:	89 83       	std	Y+1, r24	; 0x01
	UBRRL = (u8)Local_u16UBRRvalue;
     f20:	e9 e2       	ldi	r30, 0x29	; 41
     f22:	f0 e0       	ldi	r31, 0x00	; 0
     f24:	89 81       	ldd	r24, Y+1	; 0x01
     f26:	80 83       	st	Z, r24
	UBRRH = (Local_u16UBRRvalue >> 8);
     f28:	e0 e4       	ldi	r30, 0x40	; 64
     f2a:	f0 e0       	ldi	r31, 0x00	; 0
     f2c:	89 81       	ldd	r24, Y+1	; 0x01
     f2e:	9a 81       	ldd	r25, Y+2	; 0x02
     f30:	89 2f       	mov	r24, r25
     f32:	99 27       	eor	r25, r25
     f34:	80 83       	st	Z, r24
	
	Local_enuErrorState = ES_OK;
     f36:	1c 82       	std	Y+4, r1	; 0x04
	
	return Local_enuErrorState;
     f38:	8c 81       	ldd	r24, Y+4	; 0x04
}
     f3a:	0f 90       	pop	r0
     f3c:	0f 90       	pop	r0
     f3e:	0f 90       	pop	r0
     f40:	0f 90       	pop	r0
     f42:	cf 91       	pop	r28
     f44:	df 91       	pop	r29
     f46:	08 95       	ret

00000f48 <USART_enuSendCharacter>:

ES_t USART_enuSendCharacter(u8 Copy_u8SendedChar)
{
     f48:	df 93       	push	r29
     f4a:	cf 93       	push	r28
     f4c:	00 d0       	rcall	.+0      	; 0xf4e <USART_enuSendCharacter+0x6>
     f4e:	cd b7       	in	r28, 0x3d	; 61
     f50:	de b7       	in	r29, 0x3e	; 62
     f52:	8a 83       	std	Y+2, r24	; 0x02
	ES_t Local_enuErrorState = ES_NOK;
     f54:	81 e0       	ldi	r24, 0x01	; 1
     f56:	89 83       	std	Y+1, r24	; 0x01
	
	while(!((UCSRA >> UDRE) & 1));
     f58:	eb e2       	ldi	r30, 0x2B	; 43
     f5a:	f0 e0       	ldi	r31, 0x00	; 0
     f5c:	80 81       	ld	r24, Z
     f5e:	82 95       	swap	r24
     f60:	86 95       	lsr	r24
     f62:	87 70       	andi	r24, 0x07	; 7
     f64:	88 2f       	mov	r24, r24
     f66:	90 e0       	ldi	r25, 0x00	; 0
     f68:	81 70       	andi	r24, 0x01	; 1
     f6a:	90 70       	andi	r25, 0x00	; 0
     f6c:	00 97       	sbiw	r24, 0x00	; 0
     f6e:	a1 f3       	breq	.-24     	; 0xf58 <USART_enuSendCharacter+0x10>
	UDR = Copy_u8SendedChar;
     f70:	ec e2       	ldi	r30, 0x2C	; 44
     f72:	f0 e0       	ldi	r31, 0x00	; 0
     f74:	8a 81       	ldd	r24, Y+2	; 0x02
     f76:	80 83       	st	Z, r24
	
	Local_enuErrorState = ES_OK;
     f78:	19 82       	std	Y+1, r1	; 0x01
	
	return Local_enuErrorState;
     f7a:	89 81       	ldd	r24, Y+1	; 0x01
}
     f7c:	0f 90       	pop	r0
     f7e:	0f 90       	pop	r0
     f80:	cf 91       	pop	r28
     f82:	df 91       	pop	r29
     f84:	08 95       	ret

00000f86 <USART_enuReceiveCharacter>:

ES_t USART_enuReceiveCharacter(u8 *Copy_Pu8ReceivedChar)
{
     f86:	df 93       	push	r29
     f88:	cf 93       	push	r28
     f8a:	00 d0       	rcall	.+0      	; 0xf8c <USART_enuReceiveCharacter+0x6>
     f8c:	0f 92       	push	r0
     f8e:	cd b7       	in	r28, 0x3d	; 61
     f90:	de b7       	in	r29, 0x3e	; 62
     f92:	9b 83       	std	Y+3, r25	; 0x03
     f94:	8a 83       	std	Y+2, r24	; 0x02
	ES_t Local_enuErrorState = ES_NOK;
     f96:	81 e0       	ldi	r24, 0x01	; 1
     f98:	89 83       	std	Y+1, r24	; 0x01
	
	if(Copy_Pu8ReceivedChar != NULL)
     f9a:	8a 81       	ldd	r24, Y+2	; 0x02
     f9c:	9b 81       	ldd	r25, Y+3	; 0x03
     f9e:	00 97       	sbiw	r24, 0x00	; 0
     fa0:	69 f0       	breq	.+26     	; 0xfbc <USART_enuReceiveCharacter+0x36>
	{
		while(!((UCSRA >> RXC) & 1));
     fa2:	eb e2       	ldi	r30, 0x2B	; 43
     fa4:	f0 e0       	ldi	r31, 0x00	; 0
     fa6:	80 81       	ld	r24, Z
     fa8:	88 23       	and	r24, r24
     faa:	dc f7       	brge	.-10     	; 0xfa2 <USART_enuReceiveCharacter+0x1c>
		*Copy_Pu8ReceivedChar = UDR;
     fac:	ec e2       	ldi	r30, 0x2C	; 44
     fae:	f0 e0       	ldi	r31, 0x00	; 0
     fb0:	80 81       	ld	r24, Z
     fb2:	ea 81       	ldd	r30, Y+2	; 0x02
     fb4:	fb 81       	ldd	r31, Y+3	; 0x03
     fb6:	80 83       	st	Z, r24
		
		Local_enuErrorState = ES_OK;
     fb8:	19 82       	std	Y+1, r1	; 0x01
     fba:	02 c0       	rjmp	.+4      	; 0xfc0 <USART_enuReceiveCharacter+0x3a>
	}
	else
	{
		Local_enuErrorState = ES_NULL_POINTER;
     fbc:	82 e0       	ldi	r24, 0x02	; 2
     fbe:	89 83       	std	Y+1, r24	; 0x01
	}
	
	return Local_enuErrorState;
     fc0:	89 81       	ldd	r24, Y+1	; 0x01
}
     fc2:	0f 90       	pop	r0
     fc4:	0f 90       	pop	r0
     fc6:	0f 90       	pop	r0
     fc8:	cf 91       	pop	r28
     fca:	df 91       	pop	r29
     fcc:	08 95       	ret

00000fce <USART_enuSendString>:

ES_t USART_enuSendString(u8 *Copy_Pu8SendedString)
{
     fce:	df 93       	push	r29
     fd0:	cf 93       	push	r28
     fd2:	00 d0       	rcall	.+0      	; 0xfd4 <USART_enuSendString+0x6>
     fd4:	0f 92       	push	r0
     fd6:	cd b7       	in	r28, 0x3d	; 61
     fd8:	de b7       	in	r29, 0x3e	; 62
     fda:	9b 83       	std	Y+3, r25	; 0x03
     fdc:	8a 83       	std	Y+2, r24	; 0x02
	ES_t Local_enuErrorState = ES_NOK;
     fde:	81 e0       	ldi	r24, 0x01	; 1
     fe0:	89 83       	std	Y+1, r24	; 0x01
	
	if(Copy_Pu8SendedString != NULL)
     fe2:	8a 81       	ldd	r24, Y+2	; 0x02
     fe4:	9b 81       	ldd	r25, Y+3	; 0x03
     fe6:	00 97       	sbiw	r24, 0x00	; 0
     fe8:	f9 f0       	breq	.+62     	; 0x1028 <USART_enuSendString+0x5a>
     fea:	17 c0       	rjmp	.+46     	; 0x101a <USART_enuSendString+0x4c>
	{
		while(*Copy_Pu8SendedString != '\0')
		{
			while(!((UCSRA >> UDRE) & 1));
     fec:	eb e2       	ldi	r30, 0x2B	; 43
     fee:	f0 e0       	ldi	r31, 0x00	; 0
     ff0:	80 81       	ld	r24, Z
     ff2:	82 95       	swap	r24
     ff4:	86 95       	lsr	r24
     ff6:	87 70       	andi	r24, 0x07	; 7
     ff8:	88 2f       	mov	r24, r24
     ffa:	90 e0       	ldi	r25, 0x00	; 0
     ffc:	81 70       	andi	r24, 0x01	; 1
     ffe:	90 70       	andi	r25, 0x00	; 0
    1000:	00 97       	sbiw	r24, 0x00	; 0
    1002:	a1 f3       	breq	.-24     	; 0xfec <USART_enuSendString+0x1e>
			UDR = *Copy_Pu8SendedString;
    1004:	ac e2       	ldi	r26, 0x2C	; 44
    1006:	b0 e0       	ldi	r27, 0x00	; 0
    1008:	ea 81       	ldd	r30, Y+2	; 0x02
    100a:	fb 81       	ldd	r31, Y+3	; 0x03
    100c:	80 81       	ld	r24, Z
    100e:	8c 93       	st	X, r24
			Copy_Pu8SendedString++;
    1010:	8a 81       	ldd	r24, Y+2	; 0x02
    1012:	9b 81       	ldd	r25, Y+3	; 0x03
    1014:	01 96       	adiw	r24, 0x01	; 1
    1016:	9b 83       	std	Y+3, r25	; 0x03
    1018:	8a 83       	std	Y+2, r24	; 0x02
{
	ES_t Local_enuErrorState = ES_NOK;
	
	if(Copy_Pu8SendedString != NULL)
	{
		while(*Copy_Pu8SendedString != '\0')
    101a:	ea 81       	ldd	r30, Y+2	; 0x02
    101c:	fb 81       	ldd	r31, Y+3	; 0x03
    101e:	80 81       	ld	r24, Z
    1020:	88 23       	and	r24, r24
    1022:	21 f7       	brne	.-56     	; 0xfec <USART_enuSendString+0x1e>
			while(!((UCSRA >> UDRE) & 1));
			UDR = *Copy_Pu8SendedString;
			Copy_Pu8SendedString++;
		}
		
		Local_enuErrorState = ES_OK;
    1024:	19 82       	std	Y+1, r1	; 0x01
    1026:	02 c0       	rjmp	.+4      	; 0x102c <USART_enuSendString+0x5e>
	}
	else
	{
		Local_enuErrorState = ES_NULL_POINTER;
    1028:	82 e0       	ldi	r24, 0x02	; 2
    102a:	89 83       	std	Y+1, r24	; 0x01
	}
	
	return Local_enuErrorState;
    102c:	89 81       	ldd	r24, Y+1	; 0x01
}
    102e:	0f 90       	pop	r0
    1030:	0f 90       	pop	r0
    1032:	0f 90       	pop	r0
    1034:	cf 91       	pop	r28
    1036:	df 91       	pop	r29
    1038:	08 95       	ret

0000103a <USART_enuReceiveStringUntilEnter>:

/* we will stop receive string (end of string) when we press 'Enter' --> (\r = 13), \n */
ES_t USART_enuReceiveStringUntilEnter(u8 *Copy_Pu8ReceivedString)
{
    103a:	df 93       	push	r29
    103c:	cf 93       	push	r28
    103e:	00 d0       	rcall	.+0      	; 0x1040 <USART_enuReceiveStringUntilEnter+0x6>
    1040:	00 d0       	rcall	.+0      	; 0x1042 <USART_enuReceiveStringUntilEnter+0x8>
    1042:	0f 92       	push	r0
    1044:	cd b7       	in	r28, 0x3d	; 61
    1046:	de b7       	in	r29, 0x3e	; 62
    1048:	9d 83       	std	Y+5, r25	; 0x05
    104a:	8c 83       	std	Y+4, r24	; 0x04
	ES_t Local_enuErrorState = ES_NOK;
    104c:	81 e0       	ldi	r24, 0x01	; 1
    104e:	8b 83       	std	Y+3, r24	; 0x03
	
	u8 Local_u8String = 0, Local_u8CharIndex = 0;
    1050:	1a 82       	std	Y+2, r1	; 0x02
    1052:	19 82       	std	Y+1, r1	; 0x01
	
	if(Copy_Pu8ReceivedString != NULL)
    1054:	8c 81       	ldd	r24, Y+4	; 0x04
    1056:	9d 81       	ldd	r25, Y+5	; 0x05
    1058:	00 97       	sbiw	r24, 0x00	; 0
    105a:	41 f1       	breq	.+80     	; 0x10ac <USART_enuReceiveStringUntilEnter+0x72>
	{
		while(1)
		{
			while(!((UCSRA >> RXC) & 1));
    105c:	eb e2       	ldi	r30, 0x2B	; 43
    105e:	f0 e0       	ldi	r31, 0x00	; 0
    1060:	80 81       	ld	r24, Z
    1062:	88 23       	and	r24, r24
    1064:	dc f7       	brge	.-10     	; 0x105c <USART_enuReceiveStringUntilEnter+0x22>
			Local_u8String = UDR;
    1066:	ec e2       	ldi	r30, 0x2C	; 44
    1068:	f0 e0       	ldi	r31, 0x00	; 0
    106a:	80 81       	ld	r24, Z
    106c:	8a 83       	std	Y+2, r24	; 0x02
			
			if(Local_u8String == '\r' || Local_u8String == '\n')
    106e:	8a 81       	ldd	r24, Y+2	; 0x02
    1070:	8d 30       	cpi	r24, 0x0D	; 13
    1072:	19 f0       	breq	.+6      	; 0x107a <USART_enuReceiveStringUntilEnter+0x40>
    1074:	8a 81       	ldd	r24, Y+2	; 0x02
    1076:	8a 30       	cpi	r24, 0x0A	; 10
    1078:	51 f4       	brne	.+20     	; 0x108e <USART_enuReceiveStringUntilEnter+0x54>
			{
				Copy_Pu8ReceivedString[Local_u8CharIndex] = '\0';
    107a:	89 81       	ldd	r24, Y+1	; 0x01
    107c:	28 2f       	mov	r18, r24
    107e:	30 e0       	ldi	r19, 0x00	; 0
    1080:	8c 81       	ldd	r24, Y+4	; 0x04
    1082:	9d 81       	ldd	r25, Y+5	; 0x05
    1084:	fc 01       	movw	r30, r24
    1086:	e2 0f       	add	r30, r18
    1088:	f3 1f       	adc	r31, r19
    108a:	10 82       	st	Z, r1
    108c:	11 c0       	rjmp	.+34     	; 0x10b0 <USART_enuReceiveStringUntilEnter+0x76>
				break;
			}
			else
			{
				Copy_Pu8ReceivedString[Local_u8CharIndex++] = Local_u8String;
    108e:	89 81       	ldd	r24, Y+1	; 0x01
    1090:	28 2f       	mov	r18, r24
    1092:	30 e0       	ldi	r19, 0x00	; 0
    1094:	8c 81       	ldd	r24, Y+4	; 0x04
    1096:	9d 81       	ldd	r25, Y+5	; 0x05
    1098:	fc 01       	movw	r30, r24
    109a:	e2 0f       	add	r30, r18
    109c:	f3 1f       	adc	r31, r19
    109e:	8a 81       	ldd	r24, Y+2	; 0x02
    10a0:	80 83       	st	Z, r24
    10a2:	89 81       	ldd	r24, Y+1	; 0x01
    10a4:	8f 5f       	subi	r24, 0xFF	; 255
    10a6:	89 83       	std	Y+1, r24	; 0x01
			}
			
			Local_enuErrorState = ES_OK;
    10a8:	1b 82       	std	Y+3, r1	; 0x03
    10aa:	d8 cf       	rjmp	.-80     	; 0x105c <USART_enuReceiveStringUntilEnter+0x22>
		}
	}
	else
	{
		Local_enuErrorState = ES_NULL_POINTER;
    10ac:	82 e0       	ldi	r24, 0x02	; 2
    10ae:	8b 83       	std	Y+3, r24	; 0x03
	}
	
	return Local_enuErrorState;
    10b0:	8b 81       	ldd	r24, Y+3	; 0x03
}
    10b2:	0f 90       	pop	r0
    10b4:	0f 90       	pop	r0
    10b6:	0f 90       	pop	r0
    10b8:	0f 90       	pop	r0
    10ba:	0f 90       	pop	r0
    10bc:	cf 91       	pop	r28
    10be:	df 91       	pop	r29
    10c0:	08 95       	ret

000010c2 <USART_enuReceiveStringWithKey>:


ES_t USART_enuReceiveStringWithKey(u8 *Copy_Pu8ReceivedString)
{
    10c2:	df 93       	push	r29
    10c4:	cf 93       	push	r28
    10c6:	00 d0       	rcall	.+0      	; 0x10c8 <USART_enuReceiveStringWithKey+0x6>
    10c8:	00 d0       	rcall	.+0      	; 0x10ca <USART_enuReceiveStringWithKey+0x8>
    10ca:	00 d0       	rcall	.+0      	; 0x10cc <USART_enuReceiveStringWithKey+0xa>
    10cc:	cd b7       	in	r28, 0x3d	; 61
    10ce:	de b7       	in	r29, 0x3e	; 62
    10d0:	9e 83       	std	Y+6, r25	; 0x06
    10d2:	8d 83       	std	Y+5, r24	; 0x05
	ES_t Local_enuErrorState = ES_NOK;
    10d4:	81 e0       	ldi	r24, 0x01	; 1
    10d6:	8c 83       	std	Y+4, r24	; 0x04
	
	u8 Local_u8String = 0, Local_u8CharIndex = 0;
    10d8:	1b 82       	std	Y+3, r1	; 0x03
    10da:	1a 82       	std	Y+2, r1	; 0x02
	u8 Local_u8StringKey = 0;
    10dc:	19 82       	std	Y+1, r1	; 0x01
	
	if(Copy_Pu8ReceivedString != NULL)
    10de:	8d 81       	ldd	r24, Y+5	; 0x05
    10e0:	9e 81       	ldd	r25, Y+6	; 0x06
    10e2:	00 97       	sbiw	r24, 0x00	; 0
    10e4:	79 f1       	breq	.+94     	; 0x1144 <USART_enuReceiveStringWithKey+0x82>
	{
		while(!((UCSRA >> RXC) & 1));
    10e6:	eb e2       	ldi	r30, 0x2B	; 43
    10e8:	f0 e0       	ldi	r31, 0x00	; 0
    10ea:	80 81       	ld	r24, Z
    10ec:	88 23       	and	r24, r24
    10ee:	dc f7       	brge	.-10     	; 0x10e6 <USART_enuReceiveStringWithKey+0x24>
		Local_u8StringKey = UDR;
    10f0:	ec e2       	ldi	r30, 0x2C	; 44
    10f2:	f0 e0       	ldi	r31, 0x00	; 0
    10f4:	80 81       	ld	r24, Z
    10f6:	89 83       	std	Y+1, r24	; 0x01
		
		while(1)
		{
			while(!((UCSRA >> RXC) & 1));
    10f8:	eb e2       	ldi	r30, 0x2B	; 43
    10fa:	f0 e0       	ldi	r31, 0x00	; 0
    10fc:	80 81       	ld	r24, Z
    10fe:	88 23       	and	r24, r24
    1100:	dc f7       	brge	.-10     	; 0x10f8 <USART_enuReceiveStringWithKey+0x36>
			Local_u8String = UDR;
    1102:	ec e2       	ldi	r30, 0x2C	; 44
    1104:	f0 e0       	ldi	r31, 0x00	; 0
    1106:	80 81       	ld	r24, Z
    1108:	8b 83       	std	Y+3, r24	; 0x03
			
			if(Local_u8String == Local_u8StringKey)
    110a:	9b 81       	ldd	r25, Y+3	; 0x03
    110c:	89 81       	ldd	r24, Y+1	; 0x01
    110e:	98 17       	cp	r25, r24
    1110:	51 f4       	brne	.+20     	; 0x1126 <USART_enuReceiveStringWithKey+0x64>
			{
				Copy_Pu8ReceivedString[Local_u8CharIndex] = '\0';
    1112:	8a 81       	ldd	r24, Y+2	; 0x02
    1114:	28 2f       	mov	r18, r24
    1116:	30 e0       	ldi	r19, 0x00	; 0
    1118:	8d 81       	ldd	r24, Y+5	; 0x05
    111a:	9e 81       	ldd	r25, Y+6	; 0x06
    111c:	fc 01       	movw	r30, r24
    111e:	e2 0f       	add	r30, r18
    1120:	f3 1f       	adc	r31, r19
    1122:	10 82       	st	Z, r1
    1124:	11 c0       	rjmp	.+34     	; 0x1148 <USART_enuReceiveStringWithKey+0x86>
				break;
			}
			else
			{
				Copy_Pu8ReceivedString[Local_u8CharIndex++] = Local_u8String;
    1126:	8a 81       	ldd	r24, Y+2	; 0x02
    1128:	28 2f       	mov	r18, r24
    112a:	30 e0       	ldi	r19, 0x00	; 0
    112c:	8d 81       	ldd	r24, Y+5	; 0x05
    112e:	9e 81       	ldd	r25, Y+6	; 0x06
    1130:	fc 01       	movw	r30, r24
    1132:	e2 0f       	add	r30, r18
    1134:	f3 1f       	adc	r31, r19
    1136:	8b 81       	ldd	r24, Y+3	; 0x03
    1138:	80 83       	st	Z, r24
    113a:	8a 81       	ldd	r24, Y+2	; 0x02
    113c:	8f 5f       	subi	r24, 0xFF	; 255
    113e:	8a 83       	std	Y+2, r24	; 0x02
			}
			
			Local_enuErrorState = ES_OK;
    1140:	1c 82       	std	Y+4, r1	; 0x04
    1142:	da cf       	rjmp	.-76     	; 0x10f8 <USART_enuReceiveStringWithKey+0x36>
		}
	}
	else
	{
		Local_enuErrorState = ES_NULL_POINTER;
    1144:	82 e0       	ldi	r24, 0x02	; 2
    1146:	8c 83       	std	Y+4, r24	; 0x04
	}
	
	return Local_enuErrorState;
    1148:	8c 81       	ldd	r24, Y+4	; 0x04
    114a:	26 96       	adiw	r28, 0x06	; 6
    114c:	0f b6       	in	r0, 0x3f	; 63
    114e:	f8 94       	cli
    1150:	de bf       	out	0x3e, r29	; 62
    1152:	0f be       	out	0x3f, r0	; 63
    1154:	cd bf       	out	0x3d, r28	; 61
    1156:	cf 91       	pop	r28
    1158:	df 91       	pop	r29
    115a:	08 95       	ret

0000115c <TIMER1_enuInit>:
#include "TIMER1_config.h"

#include "../interrupt.h"

ES_t TIMER1_enuInit(void)
{
    115c:	df 93       	push	r29
    115e:	cf 93       	push	r28
    1160:	0f 92       	push	r0
    1162:	cd b7       	in	r28, 0x3d	; 61
    1164:	de b7       	in	r29, 0x3e	; 62
	ES_t Local_enuErrorState = ES_NOK;
    1166:	81 e0       	ldi	r24, 0x01	; 1
    1168:	89 83       	std	Y+1, r24	; 0x01
	
	/* Mask the four bits of Waveform Generation Mode */
	TCCR1A &= 0xFC;
    116a:	af e4       	ldi	r26, 0x4F	; 79
    116c:	b0 e0       	ldi	r27, 0x00	; 0
    116e:	ef e4       	ldi	r30, 0x4F	; 79
    1170:	f0 e0       	ldi	r31, 0x00	; 0
    1172:	80 81       	ld	r24, Z
    1174:	8c 7f       	andi	r24, 0xFC	; 252
    1176:	8c 93       	st	X, r24
	TCCR1B &= 0xE7;
    1178:	ae e4       	ldi	r26, 0x4E	; 78
    117a:	b0 e0       	ldi	r27, 0x00	; 0
    117c:	ee e4       	ldi	r30, 0x4E	; 78
    117e:	f0 e0       	ldi	r31, 0x00	; 0
    1180:	80 81       	ld	r24, Z
    1182:	87 7e       	andi	r24, 0xE7	; 231
    1184:	8c 93       	st	X, r24
	TCCR1A &= ~(MASK_BIT << WGM10);
	TCCR1A &= ~(MASK_BIT << WGM11);
	TCCR1B |=  (MASK_BIT << WGM12);
	TCCR1B &= ~(MASK_BIT << WGM13);
	#elif TIMER1_MODE == TIMER1_FAST_PWM_8B
	TCCR1A |=  (MASK_BIT << WGM10);
    1186:	af e4       	ldi	r26, 0x4F	; 79
    1188:	b0 e0       	ldi	r27, 0x00	; 0
    118a:	ef e4       	ldi	r30, 0x4F	; 79
    118c:	f0 e0       	ldi	r31, 0x00	; 0
    118e:	80 81       	ld	r24, Z
    1190:	81 60       	ori	r24, 0x01	; 1
    1192:	8c 93       	st	X, r24
	TCCR1A &= ~(MASK_BIT << WGM11);
    1194:	af e4       	ldi	r26, 0x4F	; 79
    1196:	b0 e0       	ldi	r27, 0x00	; 0
    1198:	ef e4       	ldi	r30, 0x4F	; 79
    119a:	f0 e0       	ldi	r31, 0x00	; 0
    119c:	80 81       	ld	r24, Z
    119e:	8d 7f       	andi	r24, 0xFD	; 253
    11a0:	8c 93       	st	X, r24
	TCCR1B |=  (MASK_BIT << WGM12);
    11a2:	ae e4       	ldi	r26, 0x4E	; 78
    11a4:	b0 e0       	ldi	r27, 0x00	; 0
    11a6:	ee e4       	ldi	r30, 0x4E	; 78
    11a8:	f0 e0       	ldi	r31, 0x00	; 0
    11aa:	80 81       	ld	r24, Z
    11ac:	88 60       	ori	r24, 0x08	; 8
    11ae:	8c 93       	st	X, r24
	TCCR1B &= ~(MASK_BIT << WGM13);
    11b0:	ae e4       	ldi	r26, 0x4E	; 78
    11b2:	b0 e0       	ldi	r27, 0x00	; 0
    11b4:	ee e4       	ldi	r30, 0x4E	; 78
    11b6:	f0 e0       	ldi	r31, 0x00	; 0
    11b8:	80 81       	ld	r24, Z
    11ba:	8f 7e       	andi	r24, 0xEF	; 239
    11bc:	8c 93       	st	X, r24
	#else
	#error "Timer1 Mode has a wrong configuration"
	#endif
	
	/* Mask the three bits of Timer1 Prescaler */
	TCCR1B &= 0xF8;
    11be:	ae e4       	ldi	r26, 0x4E	; 78
    11c0:	b0 e0       	ldi	r27, 0x00	; 0
    11c2:	ee e4       	ldi	r30, 0x4E	; 78
    11c4:	f0 e0       	ldi	r31, 0x00	; 0
    11c6:	80 81       	ld	r24, Z
    11c8:	88 7f       	andi	r24, 0xF8	; 248
    11ca:	8c 93       	st	X, r24
	#elif TIMER1_PRES == PRES_8
	TCCR1B &= ~(MASK_BIT << CS10);
	TCCR1B |=  (MASK_BIT << CS11);
	TCCR1B &= ~(MASK_BIT << CS12);
	#elif TIMER1_PRES == PRES_64
	TCCR1B |=  (MASK_BIT << CS10);
    11cc:	ae e4       	ldi	r26, 0x4E	; 78
    11ce:	b0 e0       	ldi	r27, 0x00	; 0
    11d0:	ee e4       	ldi	r30, 0x4E	; 78
    11d2:	f0 e0       	ldi	r31, 0x00	; 0
    11d4:	80 81       	ld	r24, Z
    11d6:	81 60       	ori	r24, 0x01	; 1
    11d8:	8c 93       	st	X, r24
	TCCR1B |=  (MASK_BIT << CS11);
    11da:	ae e4       	ldi	r26, 0x4E	; 78
    11dc:	b0 e0       	ldi	r27, 0x00	; 0
    11de:	ee e4       	ldi	r30, 0x4E	; 78
    11e0:	f0 e0       	ldi	r31, 0x00	; 0
    11e2:	80 81       	ld	r24, Z
    11e4:	82 60       	ori	r24, 0x02	; 2
    11e6:	8c 93       	st	X, r24
	TCCR1B &= ~(MASK_BIT << CS12);
    11e8:	ae e4       	ldi	r26, 0x4E	; 78
    11ea:	b0 e0       	ldi	r27, 0x00	; 0
    11ec:	ee e4       	ldi	r30, 0x4E	; 78
    11ee:	f0 e0       	ldi	r31, 0x00	; 0
    11f0:	80 81       	ld	r24, Z
    11f2:	8b 7f       	andi	r24, 0xFB	; 251
    11f4:	8c 93       	st	X, r24
	#error "Timer1 Prescaler has a wrong configuration"
	#endif
	
	

	return Local_enuErrorState;	
    11f6:	89 81       	ldd	r24, Y+1	; 0x01
}
    11f8:	0f 90       	pop	r0
    11fa:	cf 91       	pop	r28
    11fc:	df 91       	pop	r29
    11fe:	08 95       	ret

00001200 <TIMER1_enuDelayMilliSecondSyn>:

ES_t TIMER1_enuDelayMilliSecondSyn(u32 Copy_u32DelayTime_ms)
{
    1200:	df 93       	push	r29
    1202:	cf 93       	push	r28
    1204:	00 d0       	rcall	.+0      	; 0x1206 <TIMER1_enuDelayMilliSecondSyn+0x6>
    1206:	00 d0       	rcall	.+0      	; 0x1208 <TIMER1_enuDelayMilliSecondSyn+0x8>
    1208:	0f 92       	push	r0
    120a:	cd b7       	in	r28, 0x3d	; 61
    120c:	de b7       	in	r29, 0x3e	; 62
    120e:	6a 83       	std	Y+2, r22	; 0x02
    1210:	7b 83       	std	Y+3, r23	; 0x03
    1212:	8c 83       	std	Y+4, r24	; 0x04
    1214:	9d 83       	std	Y+5, r25	; 0x05
	ES_t Local_enuErrorState = ES_NOK;
    1216:	81 e0       	ldi	r24, 0x01	; 1
    1218:	89 83       	std	Y+1, r24	; 0x01



	return Local_enuErrorState;
    121a:	89 81       	ldd	r24, Y+1	; 0x01
}
    121c:	0f 90       	pop	r0
    121e:	0f 90       	pop	r0
    1220:	0f 90       	pop	r0
    1222:	0f 90       	pop	r0
    1224:	0f 90       	pop	r0
    1226:	cf 91       	pop	r28
    1228:	df 91       	pop	r29
    122a:	08 95       	ret

0000122c <TIMER1_enuDelayMilliSecondASyn>:

ES_t TIMER1_enuDelayMilliSecondASyn(u32 Copy_u32DelayTime_ms, void (*Copy_PFunApp)(void *), void *Copy_PParameterApp)
{
    122c:	df 93       	push	r29
    122e:	cf 93       	push	r28
    1230:	cd b7       	in	r28, 0x3d	; 61
    1232:	de b7       	in	r29, 0x3e	; 62
    1234:	29 97       	sbiw	r28, 0x09	; 9
    1236:	0f b6       	in	r0, 0x3f	; 63
    1238:	f8 94       	cli
    123a:	de bf       	out	0x3e, r29	; 62
    123c:	0f be       	out	0x3f, r0	; 63
    123e:	cd bf       	out	0x3d, r28	; 61
    1240:	6a 83       	std	Y+2, r22	; 0x02
    1242:	7b 83       	std	Y+3, r23	; 0x03
    1244:	8c 83       	std	Y+4, r24	; 0x04
    1246:	9d 83       	std	Y+5, r25	; 0x05
    1248:	5f 83       	std	Y+7, r21	; 0x07
    124a:	4e 83       	std	Y+6, r20	; 0x06
    124c:	39 87       	std	Y+9, r19	; 0x09
    124e:	28 87       	std	Y+8, r18	; 0x08
	ES_t Local_enuErrorState = ES_NOK;
    1250:	81 e0       	ldi	r24, 0x01	; 1
    1252:	89 83       	std	Y+1, r24	; 0x01



	return Local_enuErrorState;
    1254:	89 81       	ldd	r24, Y+1	; 0x01
}
    1256:	29 96       	adiw	r28, 0x09	; 9
    1258:	0f b6       	in	r0, 0x3f	; 63
    125a:	f8 94       	cli
    125c:	de bf       	out	0x3e, r29	; 62
    125e:	0f be       	out	0x3f, r0	; 63
    1260:	cd bf       	out	0x3d, r28	; 61
    1262:	cf 91       	pop	r28
    1264:	df 91       	pop	r29
    1266:	08 95       	ret

00001268 <TIMER1_enuSetPreload>:

ES_t TIMER1_enuSetPreload(u8 Copy_u8PreloadValue)
{
    1268:	df 93       	push	r29
    126a:	cf 93       	push	r28
    126c:	00 d0       	rcall	.+0      	; 0x126e <TIMER1_enuSetPreload+0x6>
    126e:	cd b7       	in	r28, 0x3d	; 61
    1270:	de b7       	in	r29, 0x3e	; 62
    1272:	8a 83       	std	Y+2, r24	; 0x02
	ES_t Local_enuErrorState = ES_NOK;
    1274:	81 e0       	ldi	r24, 0x01	; 1
    1276:	89 83       	std	Y+1, r24	; 0x01



	return Local_enuErrorState;
    1278:	89 81       	ldd	r24, Y+1	; 0x01
}
    127a:	0f 90       	pop	r0
    127c:	0f 90       	pop	r0
    127e:	cf 91       	pop	r28
    1280:	df 91       	pop	r29
    1282:	08 95       	ret

00001284 <TIMER1_enuSetOutputCompareRegisterChannelA>:

ES_t TIMER1_enuSetOutputCompareRegisterChannelA(u8 Copy_u8OCRValue)
{
    1284:	df 93       	push	r29
    1286:	cf 93       	push	r28
    1288:	00 d0       	rcall	.+0      	; 0x128a <TIMER1_enuSetOutputCompareRegisterChannelA+0x6>
    128a:	cd b7       	in	r28, 0x3d	; 61
    128c:	de b7       	in	r29, 0x3e	; 62
    128e:	8a 83       	std	Y+2, r24	; 0x02
	ES_t Local_enuErrorState = ES_NOK;
    1290:	81 e0       	ldi	r24, 0x01	; 1
    1292:	89 83       	std	Y+1, r24	; 0x01



	return Local_enuErrorState;
    1294:	89 81       	ldd	r24, Y+1	; 0x01
}
    1296:	0f 90       	pop	r0
    1298:	0f 90       	pop	r0
    129a:	cf 91       	pop	r28
    129c:	df 91       	pop	r29
    129e:	08 95       	ret

000012a0 <TIMER1_enuSetOutputCompareRegisterChannelB>:

ES_t TIMER1_enuSetOutputCompareRegisterChannelB(u8 Copy_u8OCRValue)
{
    12a0:	df 93       	push	r29
    12a2:	cf 93       	push	r28
    12a4:	00 d0       	rcall	.+0      	; 0x12a6 <TIMER1_enuSetOutputCompareRegisterChannelB+0x6>
    12a6:	cd b7       	in	r28, 0x3d	; 61
    12a8:	de b7       	in	r29, 0x3e	; 62
    12aa:	8a 83       	std	Y+2, r24	; 0x02
	ES_t Local_enuErrorState = ES_NOK;
    12ac:	81 e0       	ldi	r24, 0x01	; 1
    12ae:	89 83       	std	Y+1, r24	; 0x01



	return Local_enuErrorState;
    12b0:	89 81       	ldd	r24, Y+1	; 0x01
}
    12b2:	0f 90       	pop	r0
    12b4:	0f 90       	pop	r0
    12b6:	cf 91       	pop	r28
    12b8:	df 91       	pop	r29
    12ba:	08 95       	ret

000012bc <TIMER1_enuSetCALLBACK_OVF>:

ES_t TIMER1_enuSetCALLBACK_OVF(void (*Copy_PFunApp)(void *), void *Copy_PParameterApp)
{
    12bc:	df 93       	push	r29
    12be:	cf 93       	push	r28
    12c0:	00 d0       	rcall	.+0      	; 0x12c2 <TIMER1_enuSetCALLBACK_OVF+0x6>
    12c2:	00 d0       	rcall	.+0      	; 0x12c4 <TIMER1_enuSetCALLBACK_OVF+0x8>
    12c4:	0f 92       	push	r0
    12c6:	cd b7       	in	r28, 0x3d	; 61
    12c8:	de b7       	in	r29, 0x3e	; 62
    12ca:	9b 83       	std	Y+3, r25	; 0x03
    12cc:	8a 83       	std	Y+2, r24	; 0x02
    12ce:	7d 83       	std	Y+5, r23	; 0x05
    12d0:	6c 83       	std	Y+4, r22	; 0x04
	ES_t Local_enuErrorState = ES_NOK;
    12d2:	81 e0       	ldi	r24, 0x01	; 1
    12d4:	89 83       	std	Y+1, r24	; 0x01



	return Local_enuErrorState;
    12d6:	89 81       	ldd	r24, Y+1	; 0x01
}
    12d8:	0f 90       	pop	r0
    12da:	0f 90       	pop	r0
    12dc:	0f 90       	pop	r0
    12de:	0f 90       	pop	r0
    12e0:	0f 90       	pop	r0
    12e2:	cf 91       	pop	r28
    12e4:	df 91       	pop	r29
    12e6:	08 95       	ret

000012e8 <TIMER1_enuSetCALLBACK_CTC_ChannelA>:

ES_t TIMER1_enuSetCALLBACK_CTC_ChannelA(void (*Copy_PFunApp)(void *), void *Copy_PParameterApp)
{
    12e8:	df 93       	push	r29
    12ea:	cf 93       	push	r28
    12ec:	00 d0       	rcall	.+0      	; 0x12ee <TIMER1_enuSetCALLBACK_CTC_ChannelA+0x6>
    12ee:	00 d0       	rcall	.+0      	; 0x12f0 <TIMER1_enuSetCALLBACK_CTC_ChannelA+0x8>
    12f0:	0f 92       	push	r0
    12f2:	cd b7       	in	r28, 0x3d	; 61
    12f4:	de b7       	in	r29, 0x3e	; 62
    12f6:	9b 83       	std	Y+3, r25	; 0x03
    12f8:	8a 83       	std	Y+2, r24	; 0x02
    12fa:	7d 83       	std	Y+5, r23	; 0x05
    12fc:	6c 83       	std	Y+4, r22	; 0x04
	ES_t Local_enuErrorState = ES_NOK;
    12fe:	81 e0       	ldi	r24, 0x01	; 1
    1300:	89 83       	std	Y+1, r24	; 0x01



	return Local_enuErrorState;
    1302:	89 81       	ldd	r24, Y+1	; 0x01
}
    1304:	0f 90       	pop	r0
    1306:	0f 90       	pop	r0
    1308:	0f 90       	pop	r0
    130a:	0f 90       	pop	r0
    130c:	0f 90       	pop	r0
    130e:	cf 91       	pop	r28
    1310:	df 91       	pop	r29
    1312:	08 95       	ret

00001314 <TIMER1_enuSetCALLBACK_CTC_ChannelB>:

ES_t TIMER1_enuSetCALLBACK_CTC_ChannelB(void (*Copy_PFunApp)(void *), void *Copy_PParameterApp)
{
    1314:	df 93       	push	r29
    1316:	cf 93       	push	r28
    1318:	00 d0       	rcall	.+0      	; 0x131a <TIMER1_enuSetCALLBACK_CTC_ChannelB+0x6>
    131a:	00 d0       	rcall	.+0      	; 0x131c <TIMER1_enuSetCALLBACK_CTC_ChannelB+0x8>
    131c:	0f 92       	push	r0
    131e:	cd b7       	in	r28, 0x3d	; 61
    1320:	de b7       	in	r29, 0x3e	; 62
    1322:	9b 83       	std	Y+3, r25	; 0x03
    1324:	8a 83       	std	Y+2, r24	; 0x02
    1326:	7d 83       	std	Y+5, r23	; 0x05
    1328:	6c 83       	std	Y+4, r22	; 0x04
	ES_t Local_enuErrorState = ES_NOK;
    132a:	81 e0       	ldi	r24, 0x01	; 1
    132c:	89 83       	std	Y+1, r24	; 0x01



	return Local_enuErrorState;
    132e:	89 81       	ldd	r24, Y+1	; 0x01
}
    1330:	0f 90       	pop	r0
    1332:	0f 90       	pop	r0
    1334:	0f 90       	pop	r0
    1336:	0f 90       	pop	r0
    1338:	0f 90       	pop	r0
    133a:	cf 91       	pop	r28
    133c:	df 91       	pop	r29
    133e:	08 95       	ret

00001340 <TIMER1_enuSetCALLBACK_ICU>:

ES_t TIMER1_enuSetCALLBACK_ICU(void (*Copy_PFunApp)(void *), void *Copy_PParameterApp)
{
    1340:	df 93       	push	r29
    1342:	cf 93       	push	r28
    1344:	00 d0       	rcall	.+0      	; 0x1346 <TIMER1_enuSetCALLBACK_ICU+0x6>
    1346:	00 d0       	rcall	.+0      	; 0x1348 <TIMER1_enuSetCALLBACK_ICU+0x8>
    1348:	0f 92       	push	r0
    134a:	cd b7       	in	r28, 0x3d	; 61
    134c:	de b7       	in	r29, 0x3e	; 62
    134e:	9b 83       	std	Y+3, r25	; 0x03
    1350:	8a 83       	std	Y+2, r24	; 0x02
    1352:	7d 83       	std	Y+5, r23	; 0x05
    1354:	6c 83       	std	Y+4, r22	; 0x04
	ES_t Local_enuErrorState = ES_NOK;
    1356:	81 e0       	ldi	r24, 0x01	; 1
    1358:	89 83       	std	Y+1, r24	; 0x01



	return Local_enuErrorState;
    135a:	89 81       	ldd	r24, Y+1	; 0x01
}
    135c:	0f 90       	pop	r0
    135e:	0f 90       	pop	r0
    1360:	0f 90       	pop	r0
    1362:	0f 90       	pop	r0
    1364:	0f 90       	pop	r0
    1366:	cf 91       	pop	r28
    1368:	df 91       	pop	r29
    136a:	08 95       	ret

0000136c <TIMER1_enuEnableOVFInterrupt>:

ES_t TIMER1_enuEnableOVFInterrupt(void)
{
    136c:	df 93       	push	r29
    136e:	cf 93       	push	r28
    1370:	0f 92       	push	r0
    1372:	cd b7       	in	r28, 0x3d	; 61
    1374:	de b7       	in	r29, 0x3e	; 62
	ES_t Local_enuErrorState = ES_NOK;
    1376:	81 e0       	ldi	r24, 0x01	; 1
    1378:	89 83       	std	Y+1, r24	; 0x01



	return Local_enuErrorState;
    137a:	89 81       	ldd	r24, Y+1	; 0x01
}
    137c:	0f 90       	pop	r0
    137e:	cf 91       	pop	r28
    1380:	df 91       	pop	r29
    1382:	08 95       	ret

00001384 <TIMER1_enuEnableCTCInterruptChannelA>:

ES_t TIMER1_enuEnableCTCInterruptChannelA(void)
{
    1384:	df 93       	push	r29
    1386:	cf 93       	push	r28
    1388:	0f 92       	push	r0
    138a:	cd b7       	in	r28, 0x3d	; 61
    138c:	de b7       	in	r29, 0x3e	; 62
	ES_t Local_enuErrorState = ES_NOK;
    138e:	81 e0       	ldi	r24, 0x01	; 1
    1390:	89 83       	std	Y+1, r24	; 0x01



	return Local_enuErrorState;
    1392:	89 81       	ldd	r24, Y+1	; 0x01
}
    1394:	0f 90       	pop	r0
    1396:	cf 91       	pop	r28
    1398:	df 91       	pop	r29
    139a:	08 95       	ret

0000139c <TIMER1_enuEnableCTCInterruptChannelB>:

ES_t TIMER1_enuEnableCTCInterruptChannelB(void)
{
    139c:	df 93       	push	r29
    139e:	cf 93       	push	r28
    13a0:	0f 92       	push	r0
    13a2:	cd b7       	in	r28, 0x3d	; 61
    13a4:	de b7       	in	r29, 0x3e	; 62
	ES_t Local_enuErrorState = ES_NOK;
    13a6:	81 e0       	ldi	r24, 0x01	; 1
    13a8:	89 83       	std	Y+1, r24	; 0x01



	return Local_enuErrorState;
    13aa:	89 81       	ldd	r24, Y+1	; 0x01
}
    13ac:	0f 90       	pop	r0
    13ae:	cf 91       	pop	r28
    13b0:	df 91       	pop	r29
    13b2:	08 95       	ret

000013b4 <TIMER1_enuPrepareICU>:
EDGE_STATE_t ICU_enuEdgeDetect = FAILLING_DETECT;
ICU_STATE_t ICU_enuState = start;
u16 TimeOn = 0, TimeTotal = 0;

ES_t TIMER1_enuPrepareICU(EDGE_STATE_t Copy_enuEdgeState, NOISE_CANCELER_STATE_t Copy_enuNoiseCancelerState)
{
    13b4:	df 93       	push	r29
    13b6:	cf 93       	push	r28
    13b8:	00 d0       	rcall	.+0      	; 0x13ba <TIMER1_enuPrepareICU+0x6>
    13ba:	0f 92       	push	r0
    13bc:	cd b7       	in	r28, 0x3d	; 61
    13be:	de b7       	in	r29, 0x3e	; 62
    13c0:	8a 83       	std	Y+2, r24	; 0x02
    13c2:	6b 83       	std	Y+3, r22	; 0x03
	ES_t Local_enuErrorState = ES_NOK;
    13c4:	81 e0       	ldi	r24, 0x01	; 1
    13c6:	89 83       	std	Y+1, r24	; 0x01

	/* Mask the three bits of Timer1 Prescaler */
	TCCR1B &= 0xF8;
    13c8:	ae e4       	ldi	r26, 0x4E	; 78
    13ca:	b0 e0       	ldi	r27, 0x00	; 0
    13cc:	ee e4       	ldi	r30, 0x4E	; 78
    13ce:	f0 e0       	ldi	r31, 0x00	; 0
    13d0:	80 81       	ld	r24, Z
    13d2:	88 7f       	andi	r24, 0xF8	; 248
    13d4:	8c 93       	st	X, r24
	#elif TIMER1_PRES == PRES_8
	TCCR1B &= ~(MASK_BIT << CS10);
	TCCR1B |=  (MASK_BIT << CS11);
	TCCR1B &= ~(MASK_BIT << CS12);
	#elif TIMER1_PRES == PRES_64
	TCCR1B |=  (MASK_BIT << CS10);
    13d6:	ae e4       	ldi	r26, 0x4E	; 78
    13d8:	b0 e0       	ldi	r27, 0x00	; 0
    13da:	ee e4       	ldi	r30, 0x4E	; 78
    13dc:	f0 e0       	ldi	r31, 0x00	; 0
    13de:	80 81       	ld	r24, Z
    13e0:	81 60       	ori	r24, 0x01	; 1
    13e2:	8c 93       	st	X, r24
	TCCR1B |=  (MASK_BIT << CS11);
    13e4:	ae e4       	ldi	r26, 0x4E	; 78
    13e6:	b0 e0       	ldi	r27, 0x00	; 0
    13e8:	ee e4       	ldi	r30, 0x4E	; 78
    13ea:	f0 e0       	ldi	r31, 0x00	; 0
    13ec:	80 81       	ld	r24, Z
    13ee:	82 60       	ori	r24, 0x02	; 2
    13f0:	8c 93       	st	X, r24
	TCCR1B &= ~(MASK_BIT << CS12);
    13f2:	ae e4       	ldi	r26, 0x4E	; 78
    13f4:	b0 e0       	ldi	r27, 0x00	; 0
    13f6:	ee e4       	ldi	r30, 0x4E	; 78
    13f8:	f0 e0       	ldi	r31, 0x00	; 0
    13fa:	80 81       	ld	r24, Z
    13fc:	8b 7f       	andi	r24, 0xFB	; 251
    13fe:	8c 93       	st	X, r24
	TCCR1B |=  (MASK_BIT << CS12);
	#else
	#error "Timer1 Prescaler has a wrong configuration"
	#endif
	
	ICU_enuEdgeDetect = Copy_enuEdgeState;
    1400:	8a 81       	ldd	r24, Y+2	; 0x02
    1402:	80 93 f4 01 	sts	0x01F4, r24
	if(Copy_enuEdgeState == FAILLING_DETECT)
    1406:	8a 81       	ldd	r24, Y+2	; 0x02
    1408:	88 23       	and	r24, r24
    140a:	41 f4       	brne	.+16     	; 0x141c <TIMER1_enuPrepareICU+0x68>
	{
		TCCR1B &= ~(MASK_BIT << ICES1);
    140c:	ae e4       	ldi	r26, 0x4E	; 78
    140e:	b0 e0       	ldi	r27, 0x00	; 0
    1410:	ee e4       	ldi	r30, 0x4E	; 78
    1412:	f0 e0       	ldi	r31, 0x00	; 0
    1414:	80 81       	ld	r24, Z
    1416:	8f 7b       	andi	r24, 0xBF	; 191
    1418:	8c 93       	st	X, r24
    141a:	0a c0       	rjmp	.+20     	; 0x1430 <TIMER1_enuPrepareICU+0x7c>
	}
	else if (Copy_enuEdgeState == RISING_DETECT)
    141c:	8a 81       	ldd	r24, Y+2	; 0x02
    141e:	81 30       	cpi	r24, 0x01	; 1
    1420:	39 f4       	brne	.+14     	; 0x1430 <TIMER1_enuPrepareICU+0x7c>
	{
		TCCR1B |=  (MASK_BIT << ICES1);
    1422:	ae e4       	ldi	r26, 0x4E	; 78
    1424:	b0 e0       	ldi	r27, 0x00	; 0
    1426:	ee e4       	ldi	r30, 0x4E	; 78
    1428:	f0 e0       	ldi	r31, 0x00	; 0
    142a:	80 81       	ld	r24, Z
    142c:	80 64       	ori	r24, 0x40	; 64
    142e:	8c 93       	st	X, r24
	}
	
	if(Copy_enuNoiseCancelerState == DISABLE_NOISE_CANCELER)
    1430:	8b 81       	ldd	r24, Y+3	; 0x03
    1432:	88 23       	and	r24, r24
    1434:	41 f4       	brne	.+16     	; 0x1446 <TIMER1_enuPrepareICU+0x92>
	{
		TCCR1B &= ~(MASK_BIT << ICNC1);
    1436:	ae e4       	ldi	r26, 0x4E	; 78
    1438:	b0 e0       	ldi	r27, 0x00	; 0
    143a:	ee e4       	ldi	r30, 0x4E	; 78
    143c:	f0 e0       	ldi	r31, 0x00	; 0
    143e:	80 81       	ld	r24, Z
    1440:	8f 77       	andi	r24, 0x7F	; 127
    1442:	8c 93       	st	X, r24
    1444:	0a c0       	rjmp	.+20     	; 0x145a <TIMER1_enuPrepareICU+0xa6>
	}
	else if (Copy_enuNoiseCancelerState == ENABLE_NOISE_CANCELER)
    1446:	8b 81       	ldd	r24, Y+3	; 0x03
    1448:	81 30       	cpi	r24, 0x01	; 1
    144a:	39 f4       	brne	.+14     	; 0x145a <TIMER1_enuPrepareICU+0xa6>
	{
		TCCR1B |=  (MASK_BIT << ICNC1);
    144c:	ae e4       	ldi	r26, 0x4E	; 78
    144e:	b0 e0       	ldi	r27, 0x00	; 0
    1450:	ee e4       	ldi	r30, 0x4E	; 78
    1452:	f0 e0       	ldi	r31, 0x00	; 0
    1454:	80 81       	ld	r24, Z
    1456:	80 68       	ori	r24, 0x80	; 128
    1458:	8c 93       	st	X, r24
	}

	/* put 0 at the registers as initial value */
	ICR1H = 0;
    145a:	e7 e4       	ldi	r30, 0x47	; 71
    145c:	f0 e0       	ldi	r31, 0x00	; 0
    145e:	10 82       	st	Z, r1
	ICR1L = 0;
    1460:	e6 e4       	ldi	r30, 0x46	; 70
    1462:	f0 e0       	ldi	r31, 0x00	; 0
    1464:	10 82       	st	Z, r1
	TCNT1H = 0;
    1466:	ed e4       	ldi	r30, 0x4D	; 77
    1468:	f0 e0       	ldi	r31, 0x00	; 0
    146a:	10 82       	st	Z, r1
	TCNT1L = 0;
    146c:	ec e4       	ldi	r30, 0x4C	; 76
    146e:	f0 e0       	ldi	r31, 0x00	; 0
    1470:	10 82       	st	Z, r1
	
	Local_enuErrorState = ES_OK;
    1472:	19 82       	std	Y+1, r1	; 0x01
	return Local_enuErrorState;
    1474:	89 81       	ldd	r24, Y+1	; 0x01
}
    1476:	0f 90       	pop	r0
    1478:	0f 90       	pop	r0
    147a:	0f 90       	pop	r0
    147c:	cf 91       	pop	r28
    147e:	df 91       	pop	r29
    1480:	08 95       	ret

00001482 <TIMER1_enuCalculateICUResults>:

ES_t TIMER1_enuCalculateICUResults(f32 *Copy_Pf32Frequency, f32 *Copy_Pf32DutyCycle)
{
    1482:	ef 92       	push	r14
    1484:	ff 92       	push	r15
    1486:	0f 93       	push	r16
    1488:	1f 93       	push	r17
    148a:	df 93       	push	r29
    148c:	cf 93       	push	r28
    148e:	cd b7       	in	r28, 0x3d	; 61
    1490:	de b7       	in	r29, 0x3e	; 62
    1492:	29 97       	sbiw	r28, 0x09	; 9
    1494:	0f b6       	in	r0, 0x3f	; 63
    1496:	f8 94       	cli
    1498:	de bf       	out	0x3e, r29	; 62
    149a:	0f be       	out	0x3f, r0	; 63
    149c:	cd bf       	out	0x3d, r28	; 61
    149e:	9f 83       	std	Y+7, r25	; 0x07
    14a0:	8e 83       	std	Y+6, r24	; 0x06
    14a2:	79 87       	std	Y+9, r23	; 0x09
    14a4:	68 87       	std	Y+8, r22	; 0x08
	ES_t Local_enuErrorState = ES_NOK;
    14a6:	81 e0       	ldi	r24, 0x01	; 1
    14a8:	8d 83       	std	Y+5, r24	; 0x05
	
	f32 Local_f32Time = 0;
    14aa:	80 e0       	ldi	r24, 0x00	; 0
    14ac:	90 e0       	ldi	r25, 0x00	; 0
    14ae:	a0 e0       	ldi	r26, 0x00	; 0
    14b0:	b0 e0       	ldi	r27, 0x00	; 0
    14b2:	89 83       	std	Y+1, r24	; 0x01
    14b4:	9a 83       	std	Y+2, r25	; 0x02
    14b6:	ab 83       	std	Y+3, r26	; 0x03
    14b8:	bc 83       	std	Y+4, r27	; 0x04

	if(Copy_Pf32DutyCycle != NULL && Copy_Pf32Frequency != NULL)
    14ba:	88 85       	ldd	r24, Y+8	; 0x08
    14bc:	99 85       	ldd	r25, Y+9	; 0x09
    14be:	00 97       	sbiw	r24, 0x00	; 0
    14c0:	09 f4       	brne	.+2      	; 0x14c4 <TIMER1_enuCalculateICUResults+0x42>
    14c2:	75 c0       	rjmp	.+234    	; 0x15ae <TIMER1_enuCalculateICUResults+0x12c>
    14c4:	8e 81       	ldd	r24, Y+6	; 0x06
    14c6:	9f 81       	ldd	r25, Y+7	; 0x07
    14c8:	00 97       	sbiw	r24, 0x00	; 0
    14ca:	09 f4       	brne	.+2      	; 0x14ce <TIMER1_enuCalculateICUResults+0x4c>
    14cc:	70 c0       	rjmp	.+224    	; 0x15ae <TIMER1_enuCalculateICUResults+0x12c>
	{
		if(ICU_enuState == Off)
    14ce:	80 91 f5 01 	lds	r24, 0x01F5
    14d2:	83 30       	cpi	r24, 0x03	; 3
    14d4:	09 f0       	breq	.+2      	; 0x14d8 <TIMER1_enuCalculateICUResults+0x56>
    14d6:	6d c0       	rjmp	.+218    	; 0x15b2 <TIMER1_enuCalculateICUResults+0x130>
		{
			*Copy_Pf32DutyCycle = (f32)(TimeOn * 100.0 / TimeTotal);
    14d8:	80 91 f6 01 	lds	r24, 0x01F6
    14dc:	90 91 f7 01 	lds	r25, 0x01F7
    14e0:	cc 01       	movw	r24, r24
    14e2:	a0 e0       	ldi	r26, 0x00	; 0
    14e4:	b0 e0       	ldi	r27, 0x00	; 0
    14e6:	bc 01       	movw	r22, r24
    14e8:	cd 01       	movw	r24, r26
    14ea:	0e 94 d9 04 	call	0x9b2	; 0x9b2 <__floatunsisf>
    14ee:	dc 01       	movw	r26, r24
    14f0:	cb 01       	movw	r24, r22
    14f2:	bc 01       	movw	r22, r24
    14f4:	cd 01       	movw	r24, r26
    14f6:	20 e0       	ldi	r18, 0x00	; 0
    14f8:	30 e0       	ldi	r19, 0x00	; 0
    14fa:	48 ec       	ldi	r20, 0xC8	; 200
    14fc:	52 e4       	ldi	r21, 0x42	; 66
    14fe:	0e 94 1f 02 	call	0x43e	; 0x43e <__mulsf3>
    1502:	dc 01       	movw	r26, r24
    1504:	cb 01       	movw	r24, r22
    1506:	7c 01       	movw	r14, r24
    1508:	8d 01       	movw	r16, r26
    150a:	80 91 f8 01 	lds	r24, 0x01F8
    150e:	90 91 f9 01 	lds	r25, 0x01F9
    1512:	cc 01       	movw	r24, r24
    1514:	a0 e0       	ldi	r26, 0x00	; 0
    1516:	b0 e0       	ldi	r27, 0x00	; 0
    1518:	bc 01       	movw	r22, r24
    151a:	cd 01       	movw	r24, r26
    151c:	0e 94 d9 04 	call	0x9b2	; 0x9b2 <__floatunsisf>
    1520:	9b 01       	movw	r18, r22
    1522:	ac 01       	movw	r20, r24
    1524:	c8 01       	movw	r24, r16
    1526:	b7 01       	movw	r22, r14
    1528:	0e 94 19 03 	call	0x632	; 0x632 <__divsf3>
    152c:	dc 01       	movw	r26, r24
    152e:	cb 01       	movw	r24, r22
    1530:	e8 85       	ldd	r30, Y+8	; 0x08
    1532:	f9 85       	ldd	r31, Y+9	; 0x09
    1534:	80 83       	st	Z, r24
    1536:	91 83       	std	Z+1, r25	; 0x01
    1538:	a2 83       	std	Z+2, r26	; 0x02
    153a:	b3 83       	std	Z+3, r27	; 0x03
			Local_f32Time = ((f32)((TimeTotal * TIMER1_PRES) / (F_SYSTEM * 1000.0)));
    153c:	80 91 f8 01 	lds	r24, 0x01F8
    1540:	90 91 f9 01 	lds	r25, 0x01F9
    1544:	00 24       	eor	r0, r0
    1546:	96 95       	lsr	r25
    1548:	87 95       	ror	r24
    154a:	07 94       	ror	r0
    154c:	96 95       	lsr	r25
    154e:	87 95       	ror	r24
    1550:	07 94       	ror	r0
    1552:	98 2f       	mov	r25, r24
    1554:	80 2d       	mov	r24, r0
    1556:	cc 01       	movw	r24, r24
    1558:	a0 e0       	ldi	r26, 0x00	; 0
    155a:	b0 e0       	ldi	r27, 0x00	; 0
    155c:	bc 01       	movw	r22, r24
    155e:	cd 01       	movw	r24, r26
    1560:	0e 94 d9 04 	call	0x9b2	; 0x9b2 <__floatunsisf>
    1564:	dc 01       	movw	r26, r24
    1566:	cb 01       	movw	r24, r22
    1568:	bc 01       	movw	r22, r24
    156a:	cd 01       	movw	r24, r26
    156c:	20 e0       	ldi	r18, 0x00	; 0
    156e:	34 e2       	ldi	r19, 0x24	; 36
    1570:	44 e7       	ldi	r20, 0x74	; 116
    1572:	59 e4       	ldi	r21, 0x49	; 73
    1574:	0e 94 19 03 	call	0x632	; 0x632 <__divsf3>
    1578:	dc 01       	movw	r26, r24
    157a:	cb 01       	movw	r24, r22
    157c:	89 83       	std	Y+1, r24	; 0x01
    157e:	9a 83       	std	Y+2, r25	; 0x02
    1580:	ab 83       	std	Y+3, r26	; 0x03
    1582:	bc 83       	std	Y+4, r27	; 0x04
			*Copy_Pf32Frequency = ((f32)(1.0 / Local_f32Time));
    1584:	60 e0       	ldi	r22, 0x00	; 0
    1586:	70 e0       	ldi	r23, 0x00	; 0
    1588:	80 e8       	ldi	r24, 0x80	; 128
    158a:	9f e3       	ldi	r25, 0x3F	; 63
    158c:	29 81       	ldd	r18, Y+1	; 0x01
    158e:	3a 81       	ldd	r19, Y+2	; 0x02
    1590:	4b 81       	ldd	r20, Y+3	; 0x03
    1592:	5c 81       	ldd	r21, Y+4	; 0x04
    1594:	0e 94 19 03 	call	0x632	; 0x632 <__divsf3>
    1598:	dc 01       	movw	r26, r24
    159a:	cb 01       	movw	r24, r22
    159c:	ee 81       	ldd	r30, Y+6	; 0x06
    159e:	ff 81       	ldd	r31, Y+7	; 0x07
    15a0:	80 83       	st	Z, r24
    15a2:	91 83       	std	Z+1, r25	; 0x01
    15a4:	a2 83       	std	Z+2, r26	; 0x02
    15a6:	b3 83       	std	Z+3, r27	; 0x03
			
			ICU_enuState = start;
    15a8:	10 92 f5 01 	sts	0x01F5, r1
    15ac:	02 c0       	rjmp	.+4      	; 0x15b2 <TIMER1_enuCalculateICUResults+0x130>
		}
	}
	else
	{
		Local_enuErrorState = ES_NULL_POINTER;
    15ae:	82 e0       	ldi	r24, 0x02	; 2
    15b0:	8d 83       	std	Y+5, r24	; 0x05
	}

	return Local_enuErrorState;
    15b2:	8d 81       	ldd	r24, Y+5	; 0x05
}
    15b4:	29 96       	adiw	r28, 0x09	; 9
    15b6:	0f b6       	in	r0, 0x3f	; 63
    15b8:	f8 94       	cli
    15ba:	de bf       	out	0x3e, r29	; 62
    15bc:	0f be       	out	0x3f, r0	; 63
    15be:	cd bf       	out	0x3d, r28	; 61
    15c0:	cf 91       	pop	r28
    15c2:	df 91       	pop	r29
    15c4:	1f 91       	pop	r17
    15c6:	0f 91       	pop	r16
    15c8:	ff 90       	pop	r15
    15ca:	ef 90       	pop	r14
    15cc:	08 95       	ret

000015ce <TIMER1_enuEnableInputCaptureUnitInterrupt>:


ES_t TIMER1_enuEnableInputCaptureUnitInterrupt(void)
{
    15ce:	df 93       	push	r29
    15d0:	cf 93       	push	r28
    15d2:	0f 92       	push	r0
    15d4:	cd b7       	in	r28, 0x3d	; 61
    15d6:	de b7       	in	r29, 0x3e	; 62
	ES_t Local_enuErrorState = ES_NOK;
    15d8:	81 e0       	ldi	r24, 0x01	; 1
    15da:	89 83       	std	Y+1, r24	; 0x01

	TIMSK |= (MASK_BIT << TICIE1);
    15dc:	a9 e5       	ldi	r26, 0x59	; 89
    15de:	b0 e0       	ldi	r27, 0x00	; 0
    15e0:	e9 e5       	ldi	r30, 0x59	; 89
    15e2:	f0 e0       	ldi	r31, 0x00	; 0
    15e4:	80 81       	ld	r24, Z
    15e6:	80 62       	ori	r24, 0x20	; 32
    15e8:	8c 93       	st	X, r24

	Local_enuErrorState = ES_OK;
    15ea:	19 82       	std	Y+1, r1	; 0x01
	return Local_enuErrorState;
    15ec:	89 81       	ldd	r24, Y+1	; 0x01
}
    15ee:	0f 90       	pop	r0
    15f0:	cf 91       	pop	r28
    15f2:	df 91       	pop	r29
    15f4:	08 95       	ret

000015f6 <__vector_6>:

ISR(VECT_TIMER1_ICU)
{
    15f6:	1f 92       	push	r1
    15f8:	0f 92       	push	r0
    15fa:	0f b6       	in	r0, 0x3f	; 63
    15fc:	0f 92       	push	r0
    15fe:	11 24       	eor	r1, r1
    1600:	2f 93       	push	r18
    1602:	3f 93       	push	r19
    1604:	8f 93       	push	r24
    1606:	9f 93       	push	r25
    1608:	af 93       	push	r26
    160a:	bf 93       	push	r27
    160c:	ef 93       	push	r30
    160e:	ff 93       	push	r31
    1610:	df 93       	push	r29
    1612:	cf 93       	push	r28
    1614:	00 d0       	rcall	.+0      	; 0x1616 <__vector_6+0x20>
    1616:	cd b7       	in	r28, 0x3d	; 61
    1618:	de b7       	in	r29, 0x3e	; 62
	if(ICU_enuState == start)
    161a:	80 91 f5 01 	lds	r24, 0x01F5
    161e:	88 23       	and	r24, r24
    1620:	89 f5       	brne	.+98     	; 0x1684 <__vector_6+0x8e>
	{
		/* put 0 at the registers as initial value */
		ICR1H = 0;
    1622:	e7 e4       	ldi	r30, 0x47	; 71
    1624:	f0 e0       	ldi	r31, 0x00	; 0
    1626:	10 82       	st	Z, r1
		ICR1L = 0;
    1628:	e6 e4       	ldi	r30, 0x46	; 70
    162a:	f0 e0       	ldi	r31, 0x00	; 0
    162c:	10 82       	st	Z, r1
		TCNT1H = 0;
    162e:	ed e4       	ldi	r30, 0x4D	; 77
    1630:	f0 e0       	ldi	r31, 0x00	; 0
    1632:	10 82       	st	Z, r1
		TCNT1L = 0;
    1634:	ec e4       	ldi	r30, 0x4C	; 76
    1636:	f0 e0       	ldi	r31, 0x00	; 0
    1638:	10 82       	st	Z, r1
		
		ICU_enuEdgeDetect = !ICU_enuEdgeDetect;
    163a:	80 91 f4 01 	lds	r24, 0x01F4
    163e:	1a 82       	std	Y+2, r1	; 0x02
    1640:	88 23       	and	r24, r24
    1642:	11 f4       	brne	.+4      	; 0x1648 <__vector_6+0x52>
    1644:	81 e0       	ldi	r24, 0x01	; 1
    1646:	8a 83       	std	Y+2, r24	; 0x02
    1648:	8a 81       	ldd	r24, Y+2	; 0x02
    164a:	80 93 f4 01 	sts	0x01F4, r24
		if(ICU_enuEdgeDetect == FAILLING_DETECT)
    164e:	80 91 f4 01 	lds	r24, 0x01F4
    1652:	88 23       	and	r24, r24
    1654:	41 f4       	brne	.+16     	; 0x1666 <__vector_6+0x70>
		{
			TCCR1B &= ~(MASK_BIT << ICES1);
    1656:	ae e4       	ldi	r26, 0x4E	; 78
    1658:	b0 e0       	ldi	r27, 0x00	; 0
    165a:	ee e4       	ldi	r30, 0x4E	; 78
    165c:	f0 e0       	ldi	r31, 0x00	; 0
    165e:	80 81       	ld	r24, Z
    1660:	8f 7b       	andi	r24, 0xBF	; 191
    1662:	8c 93       	st	X, r24
    1664:	0b c0       	rjmp	.+22     	; 0x167c <__vector_6+0x86>
		}
		else if (ICU_enuEdgeDetect == RISING_DETECT)
    1666:	80 91 f4 01 	lds	r24, 0x01F4
    166a:	81 30       	cpi	r24, 0x01	; 1
    166c:	39 f4       	brne	.+14     	; 0x167c <__vector_6+0x86>
		{
			TCCR1B |=  (MASK_BIT << ICES1);
    166e:	ae e4       	ldi	r26, 0x4E	; 78
    1670:	b0 e0       	ldi	r27, 0x00	; 0
    1672:	ee e4       	ldi	r30, 0x4E	; 78
    1674:	f0 e0       	ldi	r31, 0x00	; 0
    1676:	80 81       	ld	r24, Z
    1678:	80 64       	ori	r24, 0x40	; 64
    167a:	8c 93       	st	X, r24
		}
		
		ICU_enuState = Ton;
    167c:	81 e0       	ldi	r24, 0x01	; 1
    167e:	80 93 f5 01 	sts	0x01F5, r24
    1682:	67 c0       	rjmp	.+206    	; 0x1752 <__vector_6+0x15c>
	}
	else if(ICU_enuState == Ton)
    1684:	80 91 f5 01 	lds	r24, 0x01F5
    1688:	81 30       	cpi	r24, 0x01	; 1
    168a:	09 f0       	breq	.+2      	; 0x168e <__vector_6+0x98>
    168c:	40 c0       	rjmp	.+128    	; 0x170e <__vector_6+0x118>
	{
		TimeOn = ICR1L;
    168e:	e6 e4       	ldi	r30, 0x46	; 70
    1690:	f0 e0       	ldi	r31, 0x00	; 0
    1692:	80 81       	ld	r24, Z
    1694:	88 2f       	mov	r24, r24
    1696:	90 e0       	ldi	r25, 0x00	; 0
    1698:	90 93 f7 01 	sts	0x01F7, r25
    169c:	80 93 f6 01 	sts	0x01F6, r24
		TimeOn |= ((u16)(ICR1H << 8));
    16a0:	e7 e4       	ldi	r30, 0x47	; 71
    16a2:	f0 e0       	ldi	r31, 0x00	; 0
    16a4:	80 81       	ld	r24, Z
    16a6:	88 2f       	mov	r24, r24
    16a8:	90 e0       	ldi	r25, 0x00	; 0
    16aa:	98 2f       	mov	r25, r24
    16ac:	88 27       	eor	r24, r24
    16ae:	9c 01       	movw	r18, r24
    16b0:	80 91 f6 01 	lds	r24, 0x01F6
    16b4:	90 91 f7 01 	lds	r25, 0x01F7
    16b8:	82 2b       	or	r24, r18
    16ba:	93 2b       	or	r25, r19
    16bc:	90 93 f7 01 	sts	0x01F7, r25
    16c0:	80 93 f6 01 	sts	0x01F6, r24
		
		ICU_enuEdgeDetect = !ICU_enuEdgeDetect;
    16c4:	80 91 f4 01 	lds	r24, 0x01F4
    16c8:	19 82       	std	Y+1, r1	; 0x01
    16ca:	88 23       	and	r24, r24
    16cc:	11 f4       	brne	.+4      	; 0x16d2 <__vector_6+0xdc>
    16ce:	81 e0       	ldi	r24, 0x01	; 1
    16d0:	89 83       	std	Y+1, r24	; 0x01
    16d2:	89 81       	ldd	r24, Y+1	; 0x01
    16d4:	80 93 f4 01 	sts	0x01F4, r24
		if(ICU_enuEdgeDetect == FAILLING_DETECT)
    16d8:	80 91 f4 01 	lds	r24, 0x01F4
    16dc:	88 23       	and	r24, r24
    16de:	41 f4       	brne	.+16     	; 0x16f0 <__vector_6+0xfa>
		{
			TCCR1B &= ~(MASK_BIT << ICES1);
    16e0:	ae e4       	ldi	r26, 0x4E	; 78
    16e2:	b0 e0       	ldi	r27, 0x00	; 0
    16e4:	ee e4       	ldi	r30, 0x4E	; 78
    16e6:	f0 e0       	ldi	r31, 0x00	; 0
    16e8:	80 81       	ld	r24, Z
    16ea:	8f 7b       	andi	r24, 0xBF	; 191
    16ec:	8c 93       	st	X, r24
    16ee:	0b c0       	rjmp	.+22     	; 0x1706 <__vector_6+0x110>
		}
		else if (ICU_enuEdgeDetect == RISING_DETECT)
    16f0:	80 91 f4 01 	lds	r24, 0x01F4
    16f4:	81 30       	cpi	r24, 0x01	; 1
    16f6:	39 f4       	brne	.+14     	; 0x1706 <__vector_6+0x110>
		{
			TCCR1B |=  (MASK_BIT << ICES1);
    16f8:	ae e4       	ldi	r26, 0x4E	; 78
    16fa:	b0 e0       	ldi	r27, 0x00	; 0
    16fc:	ee e4       	ldi	r30, 0x4E	; 78
    16fe:	f0 e0       	ldi	r31, 0x00	; 0
    1700:	80 81       	ld	r24, Z
    1702:	80 64       	ori	r24, 0x40	; 64
    1704:	8c 93       	st	X, r24
		}
		
		ICU_enuState = Ttotal;
    1706:	82 e0       	ldi	r24, 0x02	; 2
    1708:	80 93 f5 01 	sts	0x01F5, r24
    170c:	22 c0       	rjmp	.+68     	; 0x1752 <__vector_6+0x15c>
	}
	else if(ICU_enuState == Ttotal)
    170e:	80 91 f5 01 	lds	r24, 0x01F5
    1712:	82 30       	cpi	r24, 0x02	; 2
    1714:	f1 f4       	brne	.+60     	; 0x1752 <__vector_6+0x15c>
	{
		TimeTotal = ICR1L;
    1716:	e6 e4       	ldi	r30, 0x46	; 70
    1718:	f0 e0       	ldi	r31, 0x00	; 0
    171a:	80 81       	ld	r24, Z
    171c:	88 2f       	mov	r24, r24
    171e:	90 e0       	ldi	r25, 0x00	; 0
    1720:	90 93 f9 01 	sts	0x01F9, r25
    1724:	80 93 f8 01 	sts	0x01F8, r24
		TimeTotal |= ((u16)(ICR1H << 8));
    1728:	e7 e4       	ldi	r30, 0x47	; 71
    172a:	f0 e0       	ldi	r31, 0x00	; 0
    172c:	80 81       	ld	r24, Z
    172e:	88 2f       	mov	r24, r24
    1730:	90 e0       	ldi	r25, 0x00	; 0
    1732:	98 2f       	mov	r25, r24
    1734:	88 27       	eor	r24, r24
    1736:	9c 01       	movw	r18, r24
    1738:	80 91 f8 01 	lds	r24, 0x01F8
    173c:	90 91 f9 01 	lds	r25, 0x01F9
    1740:	82 2b       	or	r24, r18
    1742:	93 2b       	or	r25, r19
    1744:	90 93 f9 01 	sts	0x01F9, r25
    1748:	80 93 f8 01 	sts	0x01F8, r24
		
		ICU_enuState = Off;
    174c:	83 e0       	ldi	r24, 0x03	; 3
    174e:	80 93 f5 01 	sts	0x01F5, r24
	}
    1752:	0f 90       	pop	r0
    1754:	0f 90       	pop	r0
    1756:	cf 91       	pop	r28
    1758:	df 91       	pop	r29
    175a:	ff 91       	pop	r31
    175c:	ef 91       	pop	r30
    175e:	bf 91       	pop	r27
    1760:	af 91       	pop	r26
    1762:	9f 91       	pop	r25
    1764:	8f 91       	pop	r24
    1766:	3f 91       	pop	r19
    1768:	2f 91       	pop	r18
    176a:	0f 90       	pop	r0
    176c:	0f be       	out	0x3f, r0	; 63
    176e:	0f 90       	pop	r0
    1770:	1f 90       	pop	r1
    1772:	18 95       	reti

00001774 <TIMER0_enuInit>:
u8 TIMER0_PRELOAD = 0;
u32 TIMER0_NUM_OVF = 0;
f32 TIMER0_f32OC0Value = 0;

ES_t TIMER0_enuInit(void)
{
    1774:	df 93       	push	r29
    1776:	cf 93       	push	r28
    1778:	0f 92       	push	r0
    177a:	cd b7       	in	r28, 0x3d	; 61
    177c:	de b7       	in	r29, 0x3e	; 62
	ES_t Local_enuErrorState = ES_NOK;
    177e:	81 e0       	ldi	r24, 0x01	; 1
    1780:	89 83       	std	Y+1, r24	; 0x01
	
	/* Mask the two bits of Wave Generation Mode */
	TCCR0 &= WGM_MASK;
    1782:	a3 e5       	ldi	r26, 0x53	; 83
    1784:	b0 e0       	ldi	r27, 0x00	; 0
    1786:	e3 e5       	ldi	r30, 0x53	; 83
    1788:	f0 e0       	ldi	r31, 0x00	; 0
    178a:	80 81       	ld	r24, Z
    178c:	87 7b       	andi	r24, 0xB7	; 183
    178e:	8c 93       	st	X, r24
	
	#if TIMER0_MODE == OVF
	TCCR0 &= ~(MASK_BIT << WGM00);
    1790:	a3 e5       	ldi	r26, 0x53	; 83
    1792:	b0 e0       	ldi	r27, 0x00	; 0
    1794:	e3 e5       	ldi	r30, 0x53	; 83
    1796:	f0 e0       	ldi	r31, 0x00	; 0
    1798:	80 81       	ld	r24, Z
    179a:	8f 7b       	andi	r24, 0xBF	; 191
    179c:	8c 93       	st	X, r24
	TCCR0 &= ~(MASK_BIT << WGM01);
    179e:	a3 e5       	ldi	r26, 0x53	; 83
    17a0:	b0 e0       	ldi	r27, 0x00	; 0
    17a2:	e3 e5       	ldi	r30, 0x53	; 83
    17a4:	f0 e0       	ldi	r31, 0x00	; 0
    17a6:	80 81       	ld	r24, Z
    17a8:	87 7f       	andi	r24, 0xF7	; 247
    17aa:	8c 93       	st	X, r24
	#else
	#error "Timer0 Mode has a wrong configuration"
	#endif
	
	/* Mask the three bits of Timer0 Prescaler */
	TCCR0 &= PRESCALER_MASK;
    17ac:	a3 e5       	ldi	r26, 0x53	; 83
    17ae:	b0 e0       	ldi	r27, 0x00	; 0
    17b0:	e3 e5       	ldi	r30, 0x53	; 83
    17b2:	f0 e0       	ldi	r31, 0x00	; 0
    17b4:	80 81       	ld	r24, Z
    17b6:	88 7f       	andi	r24, 0xF8	; 248
    17b8:	8c 93       	st	X, r24
	#elif TIMER0_PRES == PRES_256
	TCCR0 &= ~(MASK_BIT << CS00);
	TCCR0 &= ~(MASK_BIT << CS01);
	TCCR0 |=  (MASK_BIT << CS02);
	#elif TIMER0_PRES == PRES_1024
	TCCR0 |=  (MASK_BIT << CS00);
    17ba:	a3 e5       	ldi	r26, 0x53	; 83
    17bc:	b0 e0       	ldi	r27, 0x00	; 0
    17be:	e3 e5       	ldi	r30, 0x53	; 83
    17c0:	f0 e0       	ldi	r31, 0x00	; 0
    17c2:	80 81       	ld	r24, Z
    17c4:	81 60       	ori	r24, 0x01	; 1
    17c6:	8c 93       	st	X, r24
	TCCR0 &= ~(MASK_BIT << CS01);
    17c8:	a3 e5       	ldi	r26, 0x53	; 83
    17ca:	b0 e0       	ldi	r27, 0x00	; 0
    17cc:	e3 e5       	ldi	r30, 0x53	; 83
    17ce:	f0 e0       	ldi	r31, 0x00	; 0
    17d0:	80 81       	ld	r24, Z
    17d2:	8d 7f       	andi	r24, 0xFD	; 253
    17d4:	8c 93       	st	X, r24
	TCCR0 |=  (MASK_BIT << CS02);
    17d6:	a3 e5       	ldi	r26, 0x53	; 83
    17d8:	b0 e0       	ldi	r27, 0x00	; 0
    17da:	e3 e5       	ldi	r30, 0x53	; 83
    17dc:	f0 e0       	ldi	r31, 0x00	; 0
    17de:	80 81       	ld	r24, Z
    17e0:	84 60       	ori	r24, 0x04	; 4
    17e2:	8c 93       	st	X, r24
	#else
	#error "Timer0 Prescaler has a wrong configuration"
	#endif
	
	/* Mask the two bits of Output Compare Pin (OC0) */
	TCCR0 &= COM_OC0_MASK;
    17e4:	a3 e5       	ldi	r26, 0x53	; 83
    17e6:	b0 e0       	ldi	r27, 0x00	; 0
    17e8:	e3 e5       	ldi	r30, 0x53	; 83
    17ea:	f0 e0       	ldi	r31, 0x00	; 0
    17ec:	80 81       	ld	r24, Z
    17ee:	8f 7c       	andi	r24, 0xCF	; 207
    17f0:	8c 93       	st	X, r24
	
	#if OC0_MODE == DISCONNECTED
	TCCR0 &= ~(MASK_BIT << COM00);
    17f2:	a3 e5       	ldi	r26, 0x53	; 83
    17f4:	b0 e0       	ldi	r27, 0x00	; 0
    17f6:	e3 e5       	ldi	r30, 0x53	; 83
    17f8:	f0 e0       	ldi	r31, 0x00	; 0
    17fa:	80 81       	ld	r24, Z
    17fc:	8f 7e       	andi	r24, 0xEF	; 239
    17fe:	8c 93       	st	X, r24
	TCCR0 &= ~(MASK_BIT << COM01);
    1800:	a3 e5       	ldi	r26, 0x53	; 83
    1802:	b0 e0       	ldi	r27, 0x00	; 0
    1804:	e3 e5       	ldi	r30, 0x53	; 83
    1806:	f0 e0       	ldi	r31, 0x00	; 0
    1808:	80 81       	ld	r24, Z
    180a:	8f 7d       	andi	r24, 0xDF	; 223
    180c:	8c 93       	st	X, r24
	TCCR0 |=  (MASK_BIT << COM01);
	#else
	#error "OC0 has a wrong configuration"
	#endif
	
	Local_enuErrorState = ES_OK;
    180e:	19 82       	std	Y+1, r1	; 0x01
	
	return Local_enuErrorState;
    1810:	89 81       	ldd	r24, Y+1	; 0x01
}
    1812:	0f 90       	pop	r0
    1814:	cf 91       	pop	r28
    1816:	df 91       	pop	r29
    1818:	08 95       	ret

0000181a <TIMER0_enuDelayMilliSecondSyn>:

ES_t TIMER0_enuDelayMilliSecondSyn(u32 Copy_u32DelayTime_ms)
{
    181a:	df 93       	push	r29
    181c:	cf 93       	push	r28
    181e:	cd b7       	in	r28, 0x3d	; 61
    1820:	de b7       	in	r29, 0x3e	; 62
    1822:	66 97       	sbiw	r28, 0x16	; 22
    1824:	0f b6       	in	r0, 0x3f	; 63
    1826:	f8 94       	cli
    1828:	de bf       	out	0x3e, r29	; 62
    182a:	0f be       	out	0x3f, r0	; 63
    182c:	cd bf       	out	0x3d, r28	; 61
    182e:	6b 8b       	std	Y+19, r22	; 0x13
    1830:	7c 8b       	std	Y+20, r23	; 0x14
    1832:	8d 8b       	std	Y+21, r24	; 0x15
    1834:	9e 8b       	std	Y+22, r25	; 0x16
	ES_t Local_enuErrorState = ES_NOK;
    1836:	81 e0       	ldi	r24, 0x01	; 1
    1838:	8a 8b       	std	Y+18, r24	; 0x12
	
	f32 Local_f32TimeOverFlow = 256.0 * TIMER0_PRES / F_SYSTEM;
    183a:	8f e6       	ldi	r24, 0x6F	; 111
    183c:	92 e1       	ldi	r25, 0x12	; 18
    183e:	a3 e8       	ldi	r26, 0x83	; 131
    1840:	b3 e4       	ldi	r27, 0x43	; 67
    1842:	8e 87       	std	Y+14, r24	; 0x0e
    1844:	9f 87       	std	Y+15, r25	; 0x0f
    1846:	a8 8b       	std	Y+16, r26	; 0x10
    1848:	b9 8b       	std	Y+17, r27	; 0x11
	f32 Local_f32Num_OVF_FLOAT = (f32)Copy_u32DelayTime_ms / Local_f32TimeOverFlow;
    184a:	6b 89       	ldd	r22, Y+19	; 0x13
    184c:	7c 89       	ldd	r23, Y+20	; 0x14
    184e:	8d 89       	ldd	r24, Y+21	; 0x15
    1850:	9e 89       	ldd	r25, Y+22	; 0x16
    1852:	0e 94 d9 04 	call	0x9b2	; 0x9b2 <__floatunsisf>
    1856:	dc 01       	movw	r26, r24
    1858:	cb 01       	movw	r24, r22
    185a:	bc 01       	movw	r22, r24
    185c:	cd 01       	movw	r24, r26
    185e:	2e 85       	ldd	r18, Y+14	; 0x0e
    1860:	3f 85       	ldd	r19, Y+15	; 0x0f
    1862:	48 89       	ldd	r20, Y+16	; 0x10
    1864:	59 89       	ldd	r21, Y+17	; 0x11
    1866:	0e 94 19 03 	call	0x632	; 0x632 <__divsf3>
    186a:	dc 01       	movw	r26, r24
    186c:	cb 01       	movw	r24, r22
    186e:	8a 87       	std	Y+10, r24	; 0x0a
    1870:	9b 87       	std	Y+11, r25	; 0x0b
    1872:	ac 87       	std	Y+12, r26	; 0x0c
    1874:	bd 87       	std	Y+13, r27	; 0x0d
	
	if((Local_f32Num_OVF_FLOAT - (u32)Local_f32Num_OVF_FLOAT) != 0.0)
    1876:	6a 85       	ldd	r22, Y+10	; 0x0a
    1878:	7b 85       	ldd	r23, Y+11	; 0x0b
    187a:	8c 85       	ldd	r24, Y+12	; 0x0c
    187c:	9d 85       	ldd	r25, Y+13	; 0x0d
    187e:	0e 94 49 00 	call	0x92	; 0x92 <__fixunssfsi>
    1882:	dc 01       	movw	r26, r24
    1884:	cb 01       	movw	r24, r22
    1886:	bc 01       	movw	r22, r24
    1888:	cd 01       	movw	r24, r26
    188a:	0e 94 d9 04 	call	0x9b2	; 0x9b2 <__floatunsisf>
    188e:	9b 01       	movw	r18, r22
    1890:	ac 01       	movw	r20, r24
    1892:	6a 85       	ldd	r22, Y+10	; 0x0a
    1894:	7b 85       	ldd	r23, Y+11	; 0x0b
    1896:	8c 85       	ldd	r24, Y+12	; 0x0c
    1898:	9d 85       	ldd	r25, Y+13	; 0x0d
    189a:	0e 94 c1 01 	call	0x382	; 0x382 <__subsf3>
    189e:	dc 01       	movw	r26, r24
    18a0:	cb 01       	movw	r24, r22
    18a2:	bc 01       	movw	r22, r24
    18a4:	cd 01       	movw	r24, r26
    18a6:	20 e0       	ldi	r18, 0x00	; 0
    18a8:	30 e0       	ldi	r19, 0x00	; 0
    18aa:	40 e0       	ldi	r20, 0x00	; 0
    18ac:	50 e0       	ldi	r21, 0x00	; 0
    18ae:	0e 94 c5 03 	call	0x78a	; 0x78a <__nesf2>
    18b2:	88 23       	and	r24, r24
    18b4:	09 f4       	brne	.+2      	; 0x18b8 <TIMER0_enuDelayMilliSecondSyn+0x9e>
    18b6:	6f c0       	rjmp	.+222    	; 0x1996 <TIMER0_enuDelayMilliSecondSyn+0x17c>
	{
		u32 Local_u32Num_OVF_INT = (u32)Local_f32Num_OVF_FLOAT + 1;
    18b8:	6a 85       	ldd	r22, Y+10	; 0x0a
    18ba:	7b 85       	ldd	r23, Y+11	; 0x0b
    18bc:	8c 85       	ldd	r24, Y+12	; 0x0c
    18be:	9d 85       	ldd	r25, Y+13	; 0x0d
    18c0:	0e 94 49 00 	call	0x92	; 0x92 <__fixunssfsi>
    18c4:	dc 01       	movw	r26, r24
    18c6:	cb 01       	movw	r24, r22
    18c8:	01 96       	adiw	r24, 0x01	; 1
    18ca:	a1 1d       	adc	r26, r1
    18cc:	b1 1d       	adc	r27, r1
    18ce:	8e 83       	std	Y+6, r24	; 0x06
    18d0:	9f 83       	std	Y+7, r25	; 0x07
    18d2:	a8 87       	std	Y+8, r26	; 0x08
    18d4:	b9 87       	std	Y+9, r27	; 0x09
		Local_f32Num_OVF_FLOAT = Local_f32Num_OVF_FLOAT - (u32)Local_f32Num_OVF_FLOAT;
    18d6:	6a 85       	ldd	r22, Y+10	; 0x0a
    18d8:	7b 85       	ldd	r23, Y+11	; 0x0b
    18da:	8c 85       	ldd	r24, Y+12	; 0x0c
    18dc:	9d 85       	ldd	r25, Y+13	; 0x0d
    18de:	0e 94 49 00 	call	0x92	; 0x92 <__fixunssfsi>
    18e2:	dc 01       	movw	r26, r24
    18e4:	cb 01       	movw	r24, r22
    18e6:	bc 01       	movw	r22, r24
    18e8:	cd 01       	movw	r24, r26
    18ea:	0e 94 d9 04 	call	0x9b2	; 0x9b2 <__floatunsisf>
    18ee:	9b 01       	movw	r18, r22
    18f0:	ac 01       	movw	r20, r24
    18f2:	6a 85       	ldd	r22, Y+10	; 0x0a
    18f4:	7b 85       	ldd	r23, Y+11	; 0x0b
    18f6:	8c 85       	ldd	r24, Y+12	; 0x0c
    18f8:	9d 85       	ldd	r25, Y+13	; 0x0d
    18fa:	0e 94 c1 01 	call	0x382	; 0x382 <__subsf3>
    18fe:	dc 01       	movw	r26, r24
    1900:	cb 01       	movw	r24, r22
    1902:	8a 87       	std	Y+10, r24	; 0x0a
    1904:	9b 87       	std	Y+11, r25	; 0x0b
    1906:	ac 87       	std	Y+12, r26	; 0x0c
    1908:	bd 87       	std	Y+13, r27	; 0x0d
		u8 Local_u32PreLoad = 256 - (256 * Local_f32Num_OVF_FLOAT);
    190a:	6a 85       	ldd	r22, Y+10	; 0x0a
    190c:	7b 85       	ldd	r23, Y+11	; 0x0b
    190e:	8c 85       	ldd	r24, Y+12	; 0x0c
    1910:	9d 85       	ldd	r25, Y+13	; 0x0d
    1912:	20 e0       	ldi	r18, 0x00	; 0
    1914:	30 e0       	ldi	r19, 0x00	; 0
    1916:	40 e8       	ldi	r20, 0x80	; 128
    1918:	53 ec       	ldi	r21, 0xC3	; 195
    191a:	0e 94 1f 02 	call	0x43e	; 0x43e <__mulsf3>
    191e:	dc 01       	movw	r26, r24
    1920:	cb 01       	movw	r24, r22
    1922:	bc 01       	movw	r22, r24
    1924:	cd 01       	movw	r24, r26
    1926:	20 e0       	ldi	r18, 0x00	; 0
    1928:	30 e0       	ldi	r19, 0x00	; 0
    192a:	40 e8       	ldi	r20, 0x80	; 128
    192c:	53 e4       	ldi	r21, 0x43	; 67
    192e:	0e 94 f2 01 	call	0x3e4	; 0x3e4 <__addsf3>
    1932:	dc 01       	movw	r26, r24
    1934:	cb 01       	movw	r24, r22
    1936:	bc 01       	movw	r22, r24
    1938:	cd 01       	movw	r24, r26
    193a:	0e 94 49 00 	call	0x92	; 0x92 <__fixunssfsi>
    193e:	dc 01       	movw	r26, r24
    1940:	cb 01       	movw	r24, r22
    1942:	8d 83       	std	Y+5, r24	; 0x05
		TCNT0 = Local_u32PreLoad;
    1944:	e2 e5       	ldi	r30, 0x52	; 82
    1946:	f0 e0       	ldi	r31, 0x00	; 0
    1948:	8d 81       	ldd	r24, Y+5	; 0x05
    194a:	80 83       	st	Z, r24
    194c:	1b c0       	rjmp	.+54     	; 0x1984 <TIMER0_enuDelayMilliSecondSyn+0x16a>
		while(Local_u32Num_OVF_INT)
		{
			while(!((TIFR >> TOV0) & MASK_BIT));
    194e:	e8 e5       	ldi	r30, 0x58	; 88
    1950:	f0 e0       	ldi	r31, 0x00	; 0
    1952:	80 81       	ld	r24, Z
    1954:	88 2f       	mov	r24, r24
    1956:	90 e0       	ldi	r25, 0x00	; 0
    1958:	81 70       	andi	r24, 0x01	; 1
    195a:	90 70       	andi	r25, 0x00	; 0
    195c:	00 97       	sbiw	r24, 0x00	; 0
    195e:	b9 f3       	breq	.-18     	; 0x194e <TIMER0_enuDelayMilliSecondSyn+0x134>
			TIFR |= (MASK_BIT << TOV0);
    1960:	a8 e5       	ldi	r26, 0x58	; 88
    1962:	b0 e0       	ldi	r27, 0x00	; 0
    1964:	e8 e5       	ldi	r30, 0x58	; 88
    1966:	f0 e0       	ldi	r31, 0x00	; 0
    1968:	80 81       	ld	r24, Z
    196a:	81 60       	ori	r24, 0x01	; 1
    196c:	8c 93       	st	X, r24
			Local_u32Num_OVF_INT--;
    196e:	8e 81       	ldd	r24, Y+6	; 0x06
    1970:	9f 81       	ldd	r25, Y+7	; 0x07
    1972:	a8 85       	ldd	r26, Y+8	; 0x08
    1974:	b9 85       	ldd	r27, Y+9	; 0x09
    1976:	01 97       	sbiw	r24, 0x01	; 1
    1978:	a1 09       	sbc	r26, r1
    197a:	b1 09       	sbc	r27, r1
    197c:	8e 83       	std	Y+6, r24	; 0x06
    197e:	9f 83       	std	Y+7, r25	; 0x07
    1980:	a8 87       	std	Y+8, r26	; 0x08
    1982:	b9 87       	std	Y+9, r27	; 0x09
	{
		u32 Local_u32Num_OVF_INT = (u32)Local_f32Num_OVF_FLOAT + 1;
		Local_f32Num_OVF_FLOAT = Local_f32Num_OVF_FLOAT - (u32)Local_f32Num_OVF_FLOAT;
		u8 Local_u32PreLoad = 256 - (256 * Local_f32Num_OVF_FLOAT);
		TCNT0 = Local_u32PreLoad;
		while(Local_u32Num_OVF_INT)
    1984:	8e 81       	ldd	r24, Y+6	; 0x06
    1986:	9f 81       	ldd	r25, Y+7	; 0x07
    1988:	a8 85       	ldd	r26, Y+8	; 0x08
    198a:	b9 85       	ldd	r27, Y+9	; 0x09
    198c:	00 97       	sbiw	r24, 0x00	; 0
    198e:	a1 05       	cpc	r26, r1
    1990:	b1 05       	cpc	r27, r1
    1992:	e9 f6       	brne	.-70     	; 0x194e <TIMER0_enuDelayMilliSecondSyn+0x134>
    1994:	30 c0       	rjmp	.+96     	; 0x19f6 <TIMER0_enuDelayMilliSecondSyn+0x1dc>
			Local_u32Num_OVF_INT--;
		}	
	}
	else
	{
		u32 Local_u32Num_OVF_INT = (u32)Local_f32TimeOverFlow;
    1996:	6e 85       	ldd	r22, Y+14	; 0x0e
    1998:	7f 85       	ldd	r23, Y+15	; 0x0f
    199a:	88 89       	ldd	r24, Y+16	; 0x10
    199c:	99 89       	ldd	r25, Y+17	; 0x11
    199e:	0e 94 49 00 	call	0x92	; 0x92 <__fixunssfsi>
    19a2:	dc 01       	movw	r26, r24
    19a4:	cb 01       	movw	r24, r22
    19a6:	89 83       	std	Y+1, r24	; 0x01
    19a8:	9a 83       	std	Y+2, r25	; 0x02
    19aa:	ab 83       	std	Y+3, r26	; 0x03
    19ac:	bc 83       	std	Y+4, r27	; 0x04
    19ae:	1b c0       	rjmp	.+54     	; 0x19e6 <TIMER0_enuDelayMilliSecondSyn+0x1cc>
		while(Local_u32Num_OVF_INT)
		{
			while(!((TIFR >> TOV0) & MASK_BIT));
    19b0:	e8 e5       	ldi	r30, 0x58	; 88
    19b2:	f0 e0       	ldi	r31, 0x00	; 0
    19b4:	80 81       	ld	r24, Z
    19b6:	88 2f       	mov	r24, r24
    19b8:	90 e0       	ldi	r25, 0x00	; 0
    19ba:	81 70       	andi	r24, 0x01	; 1
    19bc:	90 70       	andi	r25, 0x00	; 0
    19be:	00 97       	sbiw	r24, 0x00	; 0
    19c0:	b9 f3       	breq	.-18     	; 0x19b0 <TIMER0_enuDelayMilliSecondSyn+0x196>
			TIFR |= (MASK_BIT << TOV0);
    19c2:	a8 e5       	ldi	r26, 0x58	; 88
    19c4:	b0 e0       	ldi	r27, 0x00	; 0
    19c6:	e8 e5       	ldi	r30, 0x58	; 88
    19c8:	f0 e0       	ldi	r31, 0x00	; 0
    19ca:	80 81       	ld	r24, Z
    19cc:	81 60       	ori	r24, 0x01	; 1
    19ce:	8c 93       	st	X, r24
			Local_u32Num_OVF_INT--;
    19d0:	89 81       	ldd	r24, Y+1	; 0x01
    19d2:	9a 81       	ldd	r25, Y+2	; 0x02
    19d4:	ab 81       	ldd	r26, Y+3	; 0x03
    19d6:	bc 81       	ldd	r27, Y+4	; 0x04
    19d8:	01 97       	sbiw	r24, 0x01	; 1
    19da:	a1 09       	sbc	r26, r1
    19dc:	b1 09       	sbc	r27, r1
    19de:	89 83       	std	Y+1, r24	; 0x01
    19e0:	9a 83       	std	Y+2, r25	; 0x02
    19e2:	ab 83       	std	Y+3, r26	; 0x03
    19e4:	bc 83       	std	Y+4, r27	; 0x04
		}	
	}
	else
	{
		u32 Local_u32Num_OVF_INT = (u32)Local_f32TimeOverFlow;
		while(Local_u32Num_OVF_INT)
    19e6:	89 81       	ldd	r24, Y+1	; 0x01
    19e8:	9a 81       	ldd	r25, Y+2	; 0x02
    19ea:	ab 81       	ldd	r26, Y+3	; 0x03
    19ec:	bc 81       	ldd	r27, Y+4	; 0x04
    19ee:	00 97       	sbiw	r24, 0x00	; 0
    19f0:	a1 05       	cpc	r26, r1
    19f2:	b1 05       	cpc	r27, r1
    19f4:	e9 f6       	brne	.-70     	; 0x19b0 <TIMER0_enuDelayMilliSecondSyn+0x196>
			TIFR |= (MASK_BIT << TOV0);
			Local_u32Num_OVF_INT--;
		}
	}
	
	Local_enuErrorState = ES_OK;
    19f6:	1a 8a       	std	Y+18, r1	; 0x12
	return Local_enuErrorState;
    19f8:	8a 89       	ldd	r24, Y+18	; 0x12
}
    19fa:	66 96       	adiw	r28, 0x16	; 22
    19fc:	0f b6       	in	r0, 0x3f	; 63
    19fe:	f8 94       	cli
    1a00:	de bf       	out	0x3e, r29	; 62
    1a02:	0f be       	out	0x3f, r0	; 63
    1a04:	cd bf       	out	0x3d, r28	; 61
    1a06:	cf 91       	pop	r28
    1a08:	df 91       	pop	r29
    1a0a:	08 95       	ret

00001a0c <TIMER0_enuDelayMilliSecondASyn>:

ES_t TIMER0_enuDelayMilliSecondASyn(u32 Copy_u32DelayTime_ms, void (*Copy_PFunApp)(void *), void *Copy_PParameterApp)
{
    1a0c:	df 93       	push	r29
    1a0e:	cf 93       	push	r28
    1a10:	cd b7       	in	r28, 0x3d	; 61
    1a12:	de b7       	in	r29, 0x3e	; 62
    1a14:	66 97       	sbiw	r28, 0x16	; 22
    1a16:	0f b6       	in	r0, 0x3f	; 63
    1a18:	f8 94       	cli
    1a1a:	de bf       	out	0x3e, r29	; 62
    1a1c:	0f be       	out	0x3f, r0	; 63
    1a1e:	cd bf       	out	0x3d, r28	; 61
    1a20:	6f 87       	std	Y+15, r22	; 0x0f
    1a22:	78 8b       	std	Y+16, r23	; 0x10
    1a24:	89 8b       	std	Y+17, r24	; 0x11
    1a26:	9a 8b       	std	Y+18, r25	; 0x12
    1a28:	5c 8b       	std	Y+20, r21	; 0x14
    1a2a:	4b 8b       	std	Y+19, r20	; 0x13
    1a2c:	3e 8b       	std	Y+22, r19	; 0x16
    1a2e:	2d 8b       	std	Y+21, r18	; 0x15
	ES_t Local_enuErrorState = ES_NOK;
    1a30:	81 e0       	ldi	r24, 0x01	; 1
    1a32:	8e 87       	std	Y+14, r24	; 0x0e
	
	TIMSK &= ~(MASK_BIT << TOIE0);
    1a34:	a9 e5       	ldi	r26, 0x59	; 89
    1a36:	b0 e0       	ldi	r27, 0x00	; 0
    1a38:	e9 e5       	ldi	r30, 0x59	; 89
    1a3a:	f0 e0       	ldi	r31, 0x00	; 0
    1a3c:	80 81       	ld	r24, Z
    1a3e:	8e 7f       	andi	r24, 0xFE	; 254
    1a40:	8c 93       	st	X, r24
	
	f32 Local_f32TimeOverFlow = 256.0 * TIMER0_PRES / F_SYSTEM;
    1a42:	8f e6       	ldi	r24, 0x6F	; 111
    1a44:	92 e1       	ldi	r25, 0x12	; 18
    1a46:	a3 e8       	ldi	r26, 0x83	; 131
    1a48:	b3 e4       	ldi	r27, 0x43	; 67
    1a4a:	8a 87       	std	Y+10, r24	; 0x0a
    1a4c:	9b 87       	std	Y+11, r25	; 0x0b
    1a4e:	ac 87       	std	Y+12, r26	; 0x0c
    1a50:	bd 87       	std	Y+13, r27	; 0x0d
	f32 Local_f32Num_OVF_FLOAT = (f32)Copy_u32DelayTime_ms / Local_f32TimeOverFlow;
    1a52:	6f 85       	ldd	r22, Y+15	; 0x0f
    1a54:	78 89       	ldd	r23, Y+16	; 0x10
    1a56:	89 89       	ldd	r24, Y+17	; 0x11
    1a58:	9a 89       	ldd	r25, Y+18	; 0x12
    1a5a:	0e 94 d9 04 	call	0x9b2	; 0x9b2 <__floatunsisf>
    1a5e:	dc 01       	movw	r26, r24
    1a60:	cb 01       	movw	r24, r22
    1a62:	bc 01       	movw	r22, r24
    1a64:	cd 01       	movw	r24, r26
    1a66:	2a 85       	ldd	r18, Y+10	; 0x0a
    1a68:	3b 85       	ldd	r19, Y+11	; 0x0b
    1a6a:	4c 85       	ldd	r20, Y+12	; 0x0c
    1a6c:	5d 85       	ldd	r21, Y+13	; 0x0d
    1a6e:	0e 94 19 03 	call	0x632	; 0x632 <__divsf3>
    1a72:	dc 01       	movw	r26, r24
    1a74:	cb 01       	movw	r24, r22
    1a76:	8e 83       	std	Y+6, r24	; 0x06
    1a78:	9f 83       	std	Y+7, r25	; 0x07
    1a7a:	a8 87       	std	Y+8, r26	; 0x08
    1a7c:	b9 87       	std	Y+9, r27	; 0x09
	
	if((Local_f32Num_OVF_FLOAT - (u32)Local_f32Num_OVF_FLOAT) != 0.0)
    1a7e:	6e 81       	ldd	r22, Y+6	; 0x06
    1a80:	7f 81       	ldd	r23, Y+7	; 0x07
    1a82:	88 85       	ldd	r24, Y+8	; 0x08
    1a84:	99 85       	ldd	r25, Y+9	; 0x09
    1a86:	0e 94 49 00 	call	0x92	; 0x92 <__fixunssfsi>
    1a8a:	dc 01       	movw	r26, r24
    1a8c:	cb 01       	movw	r24, r22
    1a8e:	bc 01       	movw	r22, r24
    1a90:	cd 01       	movw	r24, r26
    1a92:	0e 94 d9 04 	call	0x9b2	; 0x9b2 <__floatunsisf>
    1a96:	9b 01       	movw	r18, r22
    1a98:	ac 01       	movw	r20, r24
    1a9a:	6e 81       	ldd	r22, Y+6	; 0x06
    1a9c:	7f 81       	ldd	r23, Y+7	; 0x07
    1a9e:	88 85       	ldd	r24, Y+8	; 0x08
    1aa0:	99 85       	ldd	r25, Y+9	; 0x09
    1aa2:	0e 94 c1 01 	call	0x382	; 0x382 <__subsf3>
    1aa6:	dc 01       	movw	r26, r24
    1aa8:	cb 01       	movw	r24, r22
    1aaa:	bc 01       	movw	r22, r24
    1aac:	cd 01       	movw	r24, r26
    1aae:	20 e0       	ldi	r18, 0x00	; 0
    1ab0:	30 e0       	ldi	r19, 0x00	; 0
    1ab2:	40 e0       	ldi	r20, 0x00	; 0
    1ab4:	50 e0       	ldi	r21, 0x00	; 0
    1ab6:	0e 94 c5 03 	call	0x78a	; 0x78a <__nesf2>
    1aba:	88 23       	and	r24, r24
    1abc:	09 f4       	brne	.+2      	; 0x1ac0 <TIMER0_enuDelayMilliSecondASyn+0xb4>
    1abe:	5b c0       	rjmp	.+182    	; 0x1b76 <TIMER0_enuDelayMilliSecondASyn+0x16a>
	{
		u32 Local_u32Num_OVF_INT = (u32)Local_f32Num_OVF_FLOAT + 1;
    1ac0:	6e 81       	ldd	r22, Y+6	; 0x06
    1ac2:	7f 81       	ldd	r23, Y+7	; 0x07
    1ac4:	88 85       	ldd	r24, Y+8	; 0x08
    1ac6:	99 85       	ldd	r25, Y+9	; 0x09
    1ac8:	0e 94 49 00 	call	0x92	; 0x92 <__fixunssfsi>
    1acc:	dc 01       	movw	r26, r24
    1ace:	cb 01       	movw	r24, r22
    1ad0:	01 96       	adiw	r24, 0x01	; 1
    1ad2:	a1 1d       	adc	r26, r1
    1ad4:	b1 1d       	adc	r27, r1
    1ad6:	8a 83       	std	Y+2, r24	; 0x02
    1ad8:	9b 83       	std	Y+3, r25	; 0x03
    1ada:	ac 83       	std	Y+4, r26	; 0x04
    1adc:	bd 83       	std	Y+5, r27	; 0x05
		Local_f32Num_OVF_FLOAT = Local_f32Num_OVF_FLOAT - (u32)Local_f32Num_OVF_FLOAT;
    1ade:	6e 81       	ldd	r22, Y+6	; 0x06
    1ae0:	7f 81       	ldd	r23, Y+7	; 0x07
    1ae2:	88 85       	ldd	r24, Y+8	; 0x08
    1ae4:	99 85       	ldd	r25, Y+9	; 0x09
    1ae6:	0e 94 49 00 	call	0x92	; 0x92 <__fixunssfsi>
    1aea:	dc 01       	movw	r26, r24
    1aec:	cb 01       	movw	r24, r22
    1aee:	bc 01       	movw	r22, r24
    1af0:	cd 01       	movw	r24, r26
    1af2:	0e 94 d9 04 	call	0x9b2	; 0x9b2 <__floatunsisf>
    1af6:	9b 01       	movw	r18, r22
    1af8:	ac 01       	movw	r20, r24
    1afa:	6e 81       	ldd	r22, Y+6	; 0x06
    1afc:	7f 81       	ldd	r23, Y+7	; 0x07
    1afe:	88 85       	ldd	r24, Y+8	; 0x08
    1b00:	99 85       	ldd	r25, Y+9	; 0x09
    1b02:	0e 94 c1 01 	call	0x382	; 0x382 <__subsf3>
    1b06:	dc 01       	movw	r26, r24
    1b08:	cb 01       	movw	r24, r22
    1b0a:	8e 83       	std	Y+6, r24	; 0x06
    1b0c:	9f 83       	std	Y+7, r25	; 0x07
    1b0e:	a8 87       	std	Y+8, r26	; 0x08
    1b10:	b9 87       	std	Y+9, r27	; 0x09
		u8 Local_u32PreLoad = 256 - (256 * Local_f32Num_OVF_FLOAT);
    1b12:	6e 81       	ldd	r22, Y+6	; 0x06
    1b14:	7f 81       	ldd	r23, Y+7	; 0x07
    1b16:	88 85       	ldd	r24, Y+8	; 0x08
    1b18:	99 85       	ldd	r25, Y+9	; 0x09
    1b1a:	20 e0       	ldi	r18, 0x00	; 0
    1b1c:	30 e0       	ldi	r19, 0x00	; 0
    1b1e:	40 e8       	ldi	r20, 0x80	; 128
    1b20:	53 ec       	ldi	r21, 0xC3	; 195
    1b22:	0e 94 1f 02 	call	0x43e	; 0x43e <__mulsf3>
    1b26:	dc 01       	movw	r26, r24
    1b28:	cb 01       	movw	r24, r22
    1b2a:	bc 01       	movw	r22, r24
    1b2c:	cd 01       	movw	r24, r26
    1b2e:	20 e0       	ldi	r18, 0x00	; 0
    1b30:	30 e0       	ldi	r19, 0x00	; 0
    1b32:	40 e8       	ldi	r20, 0x80	; 128
    1b34:	53 e4       	ldi	r21, 0x43	; 67
    1b36:	0e 94 f2 01 	call	0x3e4	; 0x3e4 <__addsf3>
    1b3a:	dc 01       	movw	r26, r24
    1b3c:	cb 01       	movw	r24, r22
    1b3e:	bc 01       	movw	r22, r24
    1b40:	cd 01       	movw	r24, r26
    1b42:	0e 94 49 00 	call	0x92	; 0x92 <__fixunssfsi>
    1b46:	dc 01       	movw	r26, r24
    1b48:	cb 01       	movw	r24, r22
    1b4a:	89 83       	std	Y+1, r24	; 0x01
		TIMER0_NUM_OVF = Local_u32Num_OVF_INT;
    1b4c:	8a 81       	ldd	r24, Y+2	; 0x02
    1b4e:	9b 81       	ldd	r25, Y+3	; 0x03
    1b50:	ac 81       	ldd	r26, Y+4	; 0x04
    1b52:	bd 81       	ldd	r27, Y+5	; 0x05
    1b54:	80 93 03 02 	sts	0x0203, r24
    1b58:	90 93 04 02 	sts	0x0204, r25
    1b5c:	a0 93 05 02 	sts	0x0205, r26
    1b60:	b0 93 06 02 	sts	0x0206, r27
		TIMER0_PRELOAD = Local_u32PreLoad;
    1b64:	89 81       	ldd	r24, Y+1	; 0x01
    1b66:	80 93 02 02 	sts	0x0202, r24
		TCNT0 = Local_u32PreLoad;
    1b6a:	e2 e5       	ldi	r30, 0x52	; 82
    1b6c:	f0 e0       	ldi	r31, 0x00	; 0
    1b6e:	89 81       	ldd	r24, Y+1	; 0x01
    1b70:	80 83       	st	Z, r24
		Local_enuErrorState = ES_OK;
    1b72:	1e 86       	std	Y+14, r1	; 0x0e
    1b74:	11 c0       	rjmp	.+34     	; 0x1b98 <TIMER0_enuDelayMilliSecondASyn+0x18c>
	}
	else
	{
		TIMER0_NUM_OVF = (u32)Local_f32Num_OVF_FLOAT;
    1b76:	6e 81       	ldd	r22, Y+6	; 0x06
    1b78:	7f 81       	ldd	r23, Y+7	; 0x07
    1b7a:	88 85       	ldd	r24, Y+8	; 0x08
    1b7c:	99 85       	ldd	r25, Y+9	; 0x09
    1b7e:	0e 94 49 00 	call	0x92	; 0x92 <__fixunssfsi>
    1b82:	dc 01       	movw	r26, r24
    1b84:	cb 01       	movw	r24, r22
    1b86:	80 93 03 02 	sts	0x0203, r24
    1b8a:	90 93 04 02 	sts	0x0204, r25
    1b8e:	a0 93 05 02 	sts	0x0205, r26
    1b92:	b0 93 06 02 	sts	0x0206, r27
		Local_enuErrorState = ES_OK;
    1b96:	1e 86       	std	Y+14, r1	; 0x0e
	}
	
	if(Copy_PFunApp != NULL)
    1b98:	8b 89       	ldd	r24, Y+19	; 0x13
    1b9a:	9c 89       	ldd	r25, Y+20	; 0x14
    1b9c:	00 97       	sbiw	r24, 0x00	; 0
    1b9e:	71 f0       	breq	.+28     	; 0x1bbc <TIMER0_enuDelayMilliSecondASyn+0x1b0>
	{
		TIMER0_PFunISRfun_OVF = Copy_PFunApp;
    1ba0:	8b 89       	ldd	r24, Y+19	; 0x13
    1ba2:	9c 89       	ldd	r25, Y+20	; 0x14
    1ba4:	90 93 fb 01 	sts	0x01FB, r25
    1ba8:	80 93 fa 01 	sts	0x01FA, r24
		TIMER0_PvidISRparameter_OVF = Copy_PParameterApp;
    1bac:	8d 89       	ldd	r24, Y+21	; 0x15
    1bae:	9e 89       	ldd	r25, Y+22	; 0x16
    1bb0:	90 93 fd 01 	sts	0x01FD, r25
    1bb4:	80 93 fc 01 	sts	0x01FC, r24
		Local_enuErrorState = ES_OK;
    1bb8:	1e 86       	std	Y+14, r1	; 0x0e
    1bba:	02 c0       	rjmp	.+4      	; 0x1bc0 <TIMER0_enuDelayMilliSecondASyn+0x1b4>
	}
	else
	{
		Local_enuErrorState = ES_NULL_POINTER;
    1bbc:	82 e0       	ldi	r24, 0x02	; 2
    1bbe:	8e 87       	std	Y+14, r24	; 0x0e
	}
	
	TIMSK |= (MASK_BIT << TOIE0);
    1bc0:	a9 e5       	ldi	r26, 0x59	; 89
    1bc2:	b0 e0       	ldi	r27, 0x00	; 0
    1bc4:	e9 e5       	ldi	r30, 0x59	; 89
    1bc6:	f0 e0       	ldi	r31, 0x00	; 0
    1bc8:	80 81       	ld	r24, Z
    1bca:	81 60       	ori	r24, 0x01	; 1
    1bcc:	8c 93       	st	X, r24
	
	return Local_enuErrorState;
    1bce:	8e 85       	ldd	r24, Y+14	; 0x0e
}
    1bd0:	66 96       	adiw	r28, 0x16	; 22
    1bd2:	0f b6       	in	r0, 0x3f	; 63
    1bd4:	f8 94       	cli
    1bd6:	de bf       	out	0x3e, r29	; 62
    1bd8:	0f be       	out	0x3f, r0	; 63
    1bda:	cd bf       	out	0x3d, r28	; 61
    1bdc:	cf 91       	pop	r28
    1bde:	df 91       	pop	r29
    1be0:	08 95       	ret

00001be2 <TIMER0_enuGeneratePWM>:

ES_t TIMER0_enuGeneratePWM(u8 Copy_u8DutyCycle)
{
    1be2:	0f 93       	push	r16
    1be4:	1f 93       	push	r17
    1be6:	df 93       	push	r29
    1be8:	cf 93       	push	r28
    1bea:	00 d0       	rcall	.+0      	; 0x1bec <TIMER0_enuGeneratePWM+0xa>
    1bec:	cd b7       	in	r28, 0x3d	; 61
    1bee:	de b7       	in	r29, 0x3e	; 62
    1bf0:	8a 83       	std	Y+2, r24	; 0x02
	ES_t Local_enuErrorState = ES_NOK;
    1bf2:	81 e0       	ldi	r24, 0x01	; 1
    1bf4:	89 83       	std	Y+1, r24	; 0x01
	#else
	#error "OC0 has a wrong configuration"
	#endif
	#endif
	
	OCR0 = TIMER0_f32OC0Value;	
    1bf6:	0c e5       	ldi	r16, 0x5C	; 92
    1bf8:	10 e0       	ldi	r17, 0x00	; 0
    1bfa:	80 91 07 02 	lds	r24, 0x0207
    1bfe:	90 91 08 02 	lds	r25, 0x0208
    1c02:	a0 91 09 02 	lds	r26, 0x0209
    1c06:	b0 91 0a 02 	lds	r27, 0x020A
    1c0a:	bc 01       	movw	r22, r24
    1c0c:	cd 01       	movw	r24, r26
    1c0e:	0e 94 49 00 	call	0x92	; 0x92 <__fixunssfsi>
    1c12:	dc 01       	movw	r26, r24
    1c14:	cb 01       	movw	r24, r22
    1c16:	f8 01       	movw	r30, r16
    1c18:	80 83       	st	Z, r24
	
	return Local_enuErrorState;
    1c1a:	89 81       	ldd	r24, Y+1	; 0x01
}
    1c1c:	0f 90       	pop	r0
    1c1e:	0f 90       	pop	r0
    1c20:	cf 91       	pop	r28
    1c22:	df 91       	pop	r29
    1c24:	1f 91       	pop	r17
    1c26:	0f 91       	pop	r16
    1c28:	08 95       	ret

00001c2a <TIMER0_enuSetOutputCompareRegister>:

ES_t TIMER0_enuSetOutputCompareRegister(u8 Copy_u8OCRValue)
{
    1c2a:	df 93       	push	r29
    1c2c:	cf 93       	push	r28
    1c2e:	00 d0       	rcall	.+0      	; 0x1c30 <TIMER0_enuSetOutputCompareRegister+0x6>
    1c30:	cd b7       	in	r28, 0x3d	; 61
    1c32:	de b7       	in	r29, 0x3e	; 62
    1c34:	8a 83       	std	Y+2, r24	; 0x02
	ES_t Local_enuErrorState = ES_NOK;
    1c36:	81 e0       	ldi	r24, 0x01	; 1
    1c38:	89 83       	std	Y+1, r24	; 0x01
	
	OCR0 = Copy_u8OCRValue;
    1c3a:	ec e5       	ldi	r30, 0x5C	; 92
    1c3c:	f0 e0       	ldi	r31, 0x00	; 0
    1c3e:	8a 81       	ldd	r24, Y+2	; 0x02
    1c40:	80 83       	st	Z, r24
	Local_enuErrorState = ES_OK;
    1c42:	19 82       	std	Y+1, r1	; 0x01
	
	return Local_enuErrorState;
    1c44:	89 81       	ldd	r24, Y+1	; 0x01
}
    1c46:	0f 90       	pop	r0
    1c48:	0f 90       	pop	r0
    1c4a:	cf 91       	pop	r28
    1c4c:	df 91       	pop	r29
    1c4e:	08 95       	ret

00001c50 <TIMER0_enuSetPreload>:

ES_t TIMER0_enuSetPreload(u8 Copy_u8PreloadValue)
{
    1c50:	df 93       	push	r29
    1c52:	cf 93       	push	r28
    1c54:	00 d0       	rcall	.+0      	; 0x1c56 <TIMER0_enuSetPreload+0x6>
    1c56:	cd b7       	in	r28, 0x3d	; 61
    1c58:	de b7       	in	r29, 0x3e	; 62
    1c5a:	8a 83       	std	Y+2, r24	; 0x02
	ES_t Local_enuErrorState = ES_NOK;
    1c5c:	81 e0       	ldi	r24, 0x01	; 1
    1c5e:	89 83       	std	Y+1, r24	; 0x01
	
	TCNT0 = Copy_u8PreloadValue;
    1c60:	e2 e5       	ldi	r30, 0x52	; 82
    1c62:	f0 e0       	ldi	r31, 0x00	; 0
    1c64:	8a 81       	ldd	r24, Y+2	; 0x02
    1c66:	80 83       	st	Z, r24
	Local_enuErrorState = ES_OK;
    1c68:	19 82       	std	Y+1, r1	; 0x01
	
	return Local_enuErrorState;
    1c6a:	89 81       	ldd	r24, Y+1	; 0x01
}
    1c6c:	0f 90       	pop	r0
    1c6e:	0f 90       	pop	r0
    1c70:	cf 91       	pop	r28
    1c72:	df 91       	pop	r29
    1c74:	08 95       	ret

00001c76 <TIMER0_enuSetCALLBACK_CTC>:

ES_t TIMER0_enuSetCALLBACK_CTC(void (*Copy_PFunApp)(void *), void *Copy_PParameterApp)
{
    1c76:	df 93       	push	r29
    1c78:	cf 93       	push	r28
    1c7a:	00 d0       	rcall	.+0      	; 0x1c7c <TIMER0_enuSetCALLBACK_CTC+0x6>
    1c7c:	00 d0       	rcall	.+0      	; 0x1c7e <TIMER0_enuSetCALLBACK_CTC+0x8>
    1c7e:	0f 92       	push	r0
    1c80:	cd b7       	in	r28, 0x3d	; 61
    1c82:	de b7       	in	r29, 0x3e	; 62
    1c84:	9b 83       	std	Y+3, r25	; 0x03
    1c86:	8a 83       	std	Y+2, r24	; 0x02
    1c88:	7d 83       	std	Y+5, r23	; 0x05
    1c8a:	6c 83       	std	Y+4, r22	; 0x04
	ES_t Local_enuErrorState = ES_NOK;
    1c8c:	81 e0       	ldi	r24, 0x01	; 1
    1c8e:	89 83       	std	Y+1, r24	; 0x01
	
	if(Copy_PFunApp != NULL)
    1c90:	8a 81       	ldd	r24, Y+2	; 0x02
    1c92:	9b 81       	ldd	r25, Y+3	; 0x03
    1c94:	00 97       	sbiw	r24, 0x00	; 0
    1c96:	71 f0       	breq	.+28     	; 0x1cb4 <TIMER0_enuSetCALLBACK_CTC+0x3e>
	{
		TIMER0_PFunISRfun_CTC = Copy_PFunApp;
    1c98:	8a 81       	ldd	r24, Y+2	; 0x02
    1c9a:	9b 81       	ldd	r25, Y+3	; 0x03
    1c9c:	90 93 ff 01 	sts	0x01FF, r25
    1ca0:	80 93 fe 01 	sts	0x01FE, r24
		TIMER0_PvidISRparameter_CTC = Copy_PParameterApp;
    1ca4:	8c 81       	ldd	r24, Y+4	; 0x04
    1ca6:	9d 81       	ldd	r25, Y+5	; 0x05
    1ca8:	90 93 01 02 	sts	0x0201, r25
    1cac:	80 93 00 02 	sts	0x0200, r24
		Local_enuErrorState = ES_OK;
    1cb0:	19 82       	std	Y+1, r1	; 0x01
    1cb2:	02 c0       	rjmp	.+4      	; 0x1cb8 <TIMER0_enuSetCALLBACK_CTC+0x42>
	}
	else
	{
		Local_enuErrorState = ES_NULL_POINTER;
    1cb4:	82 e0       	ldi	r24, 0x02	; 2
    1cb6:	89 83       	std	Y+1, r24	; 0x01
	}
	
	return Local_enuErrorState;
    1cb8:	89 81       	ldd	r24, Y+1	; 0x01
}
    1cba:	0f 90       	pop	r0
    1cbc:	0f 90       	pop	r0
    1cbe:	0f 90       	pop	r0
    1cc0:	0f 90       	pop	r0
    1cc2:	0f 90       	pop	r0
    1cc4:	cf 91       	pop	r28
    1cc6:	df 91       	pop	r29
    1cc8:	08 95       	ret

00001cca <TIMER0_enuEnableOVFInterrupt>:

ES_t TIMER0_enuEnableOVFInterrupt(void)
{
    1cca:	df 93       	push	r29
    1ccc:	cf 93       	push	r28
    1cce:	0f 92       	push	r0
    1cd0:	cd b7       	in	r28, 0x3d	; 61
    1cd2:	de b7       	in	r29, 0x3e	; 62
	ES_t Local_enuErrorState = ES_NOK;
    1cd4:	81 e0       	ldi	r24, 0x01	; 1
    1cd6:	89 83       	std	Y+1, r24	; 0x01
	
	TIMSK |= (MASK_BIT << TOIE0);
    1cd8:	a9 e5       	ldi	r26, 0x59	; 89
    1cda:	b0 e0       	ldi	r27, 0x00	; 0
    1cdc:	e9 e5       	ldi	r30, 0x59	; 89
    1cde:	f0 e0       	ldi	r31, 0x00	; 0
    1ce0:	80 81       	ld	r24, Z
    1ce2:	81 60       	ori	r24, 0x01	; 1
    1ce4:	8c 93       	st	X, r24
	Local_enuErrorState = ES_OK;
    1ce6:	19 82       	std	Y+1, r1	; 0x01
	
	return Local_enuErrorState;
    1ce8:	89 81       	ldd	r24, Y+1	; 0x01
}
    1cea:	0f 90       	pop	r0
    1cec:	cf 91       	pop	r28
    1cee:	df 91       	pop	r29
    1cf0:	08 95       	ret

00001cf2 <TIMER0_enuEnableCTCInterrupt>:

ES_t TIMER0_enuEnableCTCInterrupt(void)
{
    1cf2:	df 93       	push	r29
    1cf4:	cf 93       	push	r28
    1cf6:	0f 92       	push	r0
    1cf8:	cd b7       	in	r28, 0x3d	; 61
    1cfa:	de b7       	in	r29, 0x3e	; 62
	ES_t Local_enuErrorState = ES_NOK;
    1cfc:	81 e0       	ldi	r24, 0x01	; 1
    1cfe:	89 83       	std	Y+1, r24	; 0x01
	
	TIMSK |= (MASK_BIT << OCIE0);
    1d00:	a9 e5       	ldi	r26, 0x59	; 89
    1d02:	b0 e0       	ldi	r27, 0x00	; 0
    1d04:	e9 e5       	ldi	r30, 0x59	; 89
    1d06:	f0 e0       	ldi	r31, 0x00	; 0
    1d08:	80 81       	ld	r24, Z
    1d0a:	82 60       	ori	r24, 0x02	; 2
    1d0c:	8c 93       	st	X, r24
	Local_enuErrorState = ES_OK;
    1d0e:	19 82       	std	Y+1, r1	; 0x01
	
	return Local_enuErrorState;
    1d10:	89 81       	ldd	r24, Y+1	; 0x01
}
    1d12:	0f 90       	pop	r0
    1d14:	cf 91       	pop	r28
    1d16:	df 91       	pop	r29
    1d18:	08 95       	ret

00001d1a <__vector_11>:

ISR(VECT_TIMER0_OVF)
{
    1d1a:	1f 92       	push	r1
    1d1c:	0f 92       	push	r0
    1d1e:	0f b6       	in	r0, 0x3f	; 63
    1d20:	0f 92       	push	r0
    1d22:	11 24       	eor	r1, r1
    1d24:	2f 93       	push	r18
    1d26:	3f 93       	push	r19
    1d28:	4f 93       	push	r20
    1d2a:	5f 93       	push	r21
    1d2c:	6f 93       	push	r22
    1d2e:	7f 93       	push	r23
    1d30:	8f 93       	push	r24
    1d32:	9f 93       	push	r25
    1d34:	af 93       	push	r26
    1d36:	bf 93       	push	r27
    1d38:	ef 93       	push	r30
    1d3a:	ff 93       	push	r31
    1d3c:	df 93       	push	r29
    1d3e:	cf 93       	push	r28
    1d40:	cd b7       	in	r28, 0x3d	; 61
    1d42:	de b7       	in	r29, 0x3e	; 62
	if(TIMER0_PFunISRfun_OVF != NULL)
    1d44:	80 91 fa 01 	lds	r24, 0x01FA
    1d48:	90 91 fb 01 	lds	r25, 0x01FB
    1d4c:	00 97       	sbiw	r24, 0x00	; 0
    1d4e:	09 f4       	brne	.+2      	; 0x1d52 <__vector_11+0x38>
    1d50:	3e c0       	rjmp	.+124    	; 0x1dce <__vector_11+0xb4>
	{
		static u32 Local_u32Counter = 0;
		Local_u32Counter++;
    1d52:	80 91 0b 02 	lds	r24, 0x020B
    1d56:	90 91 0c 02 	lds	r25, 0x020C
    1d5a:	a0 91 0d 02 	lds	r26, 0x020D
    1d5e:	b0 91 0e 02 	lds	r27, 0x020E
    1d62:	01 96       	adiw	r24, 0x01	; 1
    1d64:	a1 1d       	adc	r26, r1
    1d66:	b1 1d       	adc	r27, r1
    1d68:	80 93 0b 02 	sts	0x020B, r24
    1d6c:	90 93 0c 02 	sts	0x020C, r25
    1d70:	a0 93 0d 02 	sts	0x020D, r26
    1d74:	b0 93 0e 02 	sts	0x020E, r27
		if(Local_u32Counter == TIMER0_NUM_OVF)
    1d78:	20 91 0b 02 	lds	r18, 0x020B
    1d7c:	30 91 0c 02 	lds	r19, 0x020C
    1d80:	40 91 0d 02 	lds	r20, 0x020D
    1d84:	50 91 0e 02 	lds	r21, 0x020E
    1d88:	80 91 03 02 	lds	r24, 0x0203
    1d8c:	90 91 04 02 	lds	r25, 0x0204
    1d90:	a0 91 05 02 	lds	r26, 0x0205
    1d94:	b0 91 06 02 	lds	r27, 0x0206
    1d98:	28 17       	cp	r18, r24
    1d9a:	39 07       	cpc	r19, r25
    1d9c:	4a 07       	cpc	r20, r26
    1d9e:	5b 07       	cpc	r21, r27
    1da0:	b1 f4       	brne	.+44     	; 0x1dce <__vector_11+0xb4>
		{
			TCNT0 = TIMER0_PRELOAD;
    1da2:	e2 e5       	ldi	r30, 0x52	; 82
    1da4:	f0 e0       	ldi	r31, 0x00	; 0
    1da6:	80 91 02 02 	lds	r24, 0x0202
    1daa:	80 83       	st	Z, r24
			TIMER0_PFunISRfun_OVF((void *)TIMER0_PvidISRparameter_OVF);
    1dac:	e0 91 fa 01 	lds	r30, 0x01FA
    1db0:	f0 91 fb 01 	lds	r31, 0x01FB
    1db4:	80 91 fc 01 	lds	r24, 0x01FC
    1db8:	90 91 fd 01 	lds	r25, 0x01FD
    1dbc:	09 95       	icall
			Local_u32Counter = 0;
    1dbe:	10 92 0b 02 	sts	0x020B, r1
    1dc2:	10 92 0c 02 	sts	0x020C, r1
    1dc6:	10 92 0d 02 	sts	0x020D, r1
    1dca:	10 92 0e 02 	sts	0x020E, r1
		}
	}
}
    1dce:	cf 91       	pop	r28
    1dd0:	df 91       	pop	r29
    1dd2:	ff 91       	pop	r31
    1dd4:	ef 91       	pop	r30
    1dd6:	bf 91       	pop	r27
    1dd8:	af 91       	pop	r26
    1dda:	9f 91       	pop	r25
    1ddc:	8f 91       	pop	r24
    1dde:	7f 91       	pop	r23
    1de0:	6f 91       	pop	r22
    1de2:	5f 91       	pop	r21
    1de4:	4f 91       	pop	r20
    1de6:	3f 91       	pop	r19
    1de8:	2f 91       	pop	r18
    1dea:	0f 90       	pop	r0
    1dec:	0f be       	out	0x3f, r0	; 63
    1dee:	0f 90       	pop	r0
    1df0:	1f 90       	pop	r1
    1df2:	18 95       	reti

00001df4 <__vector_10>:

ISR(VECT_TIMER0_CTC)
{
    1df4:	1f 92       	push	r1
    1df6:	0f 92       	push	r0
    1df8:	0f b6       	in	r0, 0x3f	; 63
    1dfa:	0f 92       	push	r0
    1dfc:	11 24       	eor	r1, r1
    1dfe:	2f 93       	push	r18
    1e00:	3f 93       	push	r19
    1e02:	4f 93       	push	r20
    1e04:	5f 93       	push	r21
    1e06:	6f 93       	push	r22
    1e08:	7f 93       	push	r23
    1e0a:	8f 93       	push	r24
    1e0c:	9f 93       	push	r25
    1e0e:	af 93       	push	r26
    1e10:	bf 93       	push	r27
    1e12:	ef 93       	push	r30
    1e14:	ff 93       	push	r31
    1e16:	df 93       	push	r29
    1e18:	cf 93       	push	r28
    1e1a:	cd b7       	in	r28, 0x3d	; 61
    1e1c:	de b7       	in	r29, 0x3e	; 62
	if(TIMER0_PFunISRfun_CTC != NULL)
    1e1e:	80 91 fe 01 	lds	r24, 0x01FE
    1e22:	90 91 ff 01 	lds	r25, 0x01FF
    1e26:	00 97       	sbiw	r24, 0x00	; 0
    1e28:	49 f0       	breq	.+18     	; 0x1e3c <__vector_10+0x48>
	{
		TIMER0_PFunISRfun_CTC((void *)TIMER0_PvidISRparameter_CTC);
    1e2a:	e0 91 fe 01 	lds	r30, 0x01FE
    1e2e:	f0 91 ff 01 	lds	r31, 0x01FF
    1e32:	80 91 00 02 	lds	r24, 0x0200
    1e36:	90 91 01 02 	lds	r25, 0x0201
    1e3a:	09 95       	icall
	}
    1e3c:	cf 91       	pop	r28
    1e3e:	df 91       	pop	r29
    1e40:	ff 91       	pop	r31
    1e42:	ef 91       	pop	r30
    1e44:	bf 91       	pop	r27
    1e46:	af 91       	pop	r26
    1e48:	9f 91       	pop	r25
    1e4a:	8f 91       	pop	r24
    1e4c:	7f 91       	pop	r23
    1e4e:	6f 91       	pop	r22
    1e50:	5f 91       	pop	r21
    1e52:	4f 91       	pop	r20
    1e54:	3f 91       	pop	r19
    1e56:	2f 91       	pop	r18
    1e58:	0f 90       	pop	r0
    1e5a:	0f be       	out	0x3f, r0	; 63
    1e5c:	0f 90       	pop	r0
    1e5e:	1f 90       	pop	r1
    1e60:	18 95       	reti

00001e62 <SPI_enuInit>:

volatile static void (* SPI_PappFunc)(void *) = NULL;
volatile static void *SPI_PappParameter = NULL;

ES_t SPI_enuInit()
{
    1e62:	df 93       	push	r29
    1e64:	cf 93       	push	r28
    1e66:	0f 92       	push	r0
    1e68:	cd b7       	in	r28, 0x3d	; 61
    1e6a:	de b7       	in	r29, 0x3e	; 62
	ES_t Local_enuErrorState = ES_NOK;
    1e6c:	81 e0       	ldi	r24, 0x01	; 1
    1e6e:	89 83       	std	Y+1, r24	; 0x01
	
	#if SPI_STATE == ENABLE_SPI
	SPCR |=  (MASK_BIT << SPE);
    1e70:	ad e2       	ldi	r26, 0x2D	; 45
    1e72:	b0 e0       	ldi	r27, 0x00	; 0
    1e74:	ed e2       	ldi	r30, 0x2D	; 45
    1e76:	f0 e0       	ldi	r31, 0x00	; 0
    1e78:	80 81       	ld	r24, Z
    1e7a:	80 64       	ori	r24, 0x40	; 64
    1e7c:	8c 93       	st	X, r24
	#endif
	
	#if SPI_DORD == LSB_FIRST
	SPCR |=  (MASK_BIT << DORD);
	#elif SPI_DORD == MSB_FIRST
	SPCR &= ~(MASK_BIT << DORD);
    1e7e:	ad e2       	ldi	r26, 0x2D	; 45
    1e80:	b0 e0       	ldi	r27, 0x00	; 0
    1e82:	ed e2       	ldi	r30, 0x2D	; 45
    1e84:	f0 e0       	ldi	r31, 0x00	; 0
    1e86:	80 81       	ld	r24, Z
    1e88:	8f 7d       	andi	r24, 0xDF	; 223
    1e8a:	8c 93       	st	X, r24
	#else
	#error "SPI DATA ORDER has a wrong configuration"
	#endif
	
	#if SPI_MODE == MASTER
	SPCR |=  (MASK_BIT << MSTR);
    1e8c:	ad e2       	ldi	r26, 0x2D	; 45
    1e8e:	b0 e0       	ldi	r27, 0x00	; 0
    1e90:	ed e2       	ldi	r30, 0x2D	; 45
    1e92:	f0 e0       	ldi	r31, 0x00	; 0
    1e94:	80 81       	ld	r24, Z
    1e96:	80 61       	ori	r24, 0x10	; 16
    1e98:	8c 93       	st	X, r24
	#endif
	
	#if SPI_CPOL == IDLE_HIGH
	SPCR |=  (MASK_BIT << CPOL);
	#elif SPI_CPOL == IDLE_LOW
	SPCR &= ~(MASK_BIT << CPOL);
    1e9a:	ad e2       	ldi	r26, 0x2D	; 45
    1e9c:	b0 e0       	ldi	r27, 0x00	; 0
    1e9e:	ed e2       	ldi	r30, 0x2D	; 45
    1ea0:	f0 e0       	ldi	r31, 0x00	; 0
    1ea2:	80 81       	ld	r24, Z
    1ea4:	87 7f       	andi	r24, 0xF7	; 247
    1ea6:	8c 93       	st	X, r24
	#else
	#error "SPI CLOCK POLARITY has a wrong configuration"
	#endif
	
	#if SPI_CPHA == READ_FIRST
	SPCR &= ~(MASK_BIT << CPHA);
    1ea8:	ad e2       	ldi	r26, 0x2D	; 45
    1eaa:	b0 e0       	ldi	r27, 0x00	; 0
    1eac:	ed e2       	ldi	r30, 0x2D	; 45
    1eae:	f0 e0       	ldi	r31, 0x00	; 0
    1eb0:	80 81       	ld	r24, Z
    1eb2:	8b 7f       	andi	r24, 0xFB	; 251
    1eb4:	8c 93       	st	X, r24
	#else
	#error "SPI CLOCK PHASE has a wrong configuration"
	#endif
	
	#if SPI_SPEED == NORMAL_SPEED
	SPSR &= ~(MASK_BIT << SPI2X);
    1eb6:	ae e2       	ldi	r26, 0x2E	; 46
    1eb8:	b0 e0       	ldi	r27, 0x00	; 0
    1eba:	ee e2       	ldi	r30, 0x2E	; 46
    1ebc:	f0 e0       	ldi	r31, 0x00	; 0
    1ebe:	80 81       	ld	r24, Z
    1ec0:	8e 7f       	andi	r24, 0xFE	; 254
    1ec2:	8c 93       	st	X, r24
		SPCR |=  (MASK_BIT << SPR1);
		#else
		#error "SPI FREQUENCY at 64 Prescaler has a wrong configuration"
		#endif
	#elif ((SPI_FREQUENCY == F_DIVIDED_128) && (SPI_SPEED == NORMAL_SPEED))
	SPCR |=  (MASK_BIT << SPR0);
    1ec4:	ad e2       	ldi	r26, 0x2D	; 45
    1ec6:	b0 e0       	ldi	r27, 0x00	; 0
    1ec8:	ed e2       	ldi	r30, 0x2D	; 45
    1eca:	f0 e0       	ldi	r31, 0x00	; 0
    1ecc:	80 81       	ld	r24, Z
    1ece:	81 60       	ori	r24, 0x01	; 1
    1ed0:	8c 93       	st	X, r24
	SPCR |=  (MASK_BIT << SPR1);
    1ed2:	ad e2       	ldi	r26, 0x2D	; 45
    1ed4:	b0 e0       	ldi	r27, 0x00	; 0
    1ed6:	ed e2       	ldi	r30, 0x2D	; 45
    1ed8:	f0 e0       	ldi	r31, 0x00	; 0
    1eda:	80 81       	ld	r24, Z
    1edc:	82 60       	ori	r24, 0x02	; 2
    1ede:	8c 93       	st	X, r24
	SPCR |=  (MASK_BIT << SPR1);
	#else
	#error "SPI FREQUENCY has a wrong configuration"
	#endif
	
	Local_enuErrorState = ES_OK;
    1ee0:	19 82       	std	Y+1, r1	; 0x01
	return Local_enuErrorState;
    1ee2:	89 81       	ldd	r24, Y+1	; 0x01
}
    1ee4:	0f 90       	pop	r0
    1ee6:	cf 91       	pop	r28
    1ee8:	df 91       	pop	r29
    1eea:	08 95       	ret

00001eec <SPI_enuSendData_Master>:


ES_t SPI_enuSendData_Master(u8 Copy_u8MasterData, u8 *Copy_pu8SlaveData)
{
    1eec:	df 93       	push	r29
    1eee:	cf 93       	push	r28
    1ef0:	00 d0       	rcall	.+0      	; 0x1ef2 <SPI_enuSendData_Master+0x6>
    1ef2:	00 d0       	rcall	.+0      	; 0x1ef4 <SPI_enuSendData_Master+0x8>
    1ef4:	cd b7       	in	r28, 0x3d	; 61
    1ef6:	de b7       	in	r29, 0x3e	; 62
    1ef8:	8a 83       	std	Y+2, r24	; 0x02
    1efa:	7c 83       	std	Y+4, r23	; 0x04
    1efc:	6b 83       	std	Y+3, r22	; 0x03
	ES_t Local_enuErrorState = ES_NOK;
    1efe:	81 e0       	ldi	r24, 0x01	; 1
    1f00:	89 83       	std	Y+1, r24	; 0x01
	
	if(Copy_pu8SlaveData != NULL)
    1f02:	8b 81       	ldd	r24, Y+3	; 0x03
    1f04:	9c 81       	ldd	r25, Y+4	; 0x04
    1f06:	00 97       	sbiw	r24, 0x00	; 0
    1f08:	89 f0       	breq	.+34     	; 0x1f2c <SPI_enuSendData_Master+0x40>
	{
		SPDR = Copy_u8MasterData;
    1f0a:	ef e2       	ldi	r30, 0x2F	; 47
    1f0c:	f0 e0       	ldi	r31, 0x00	; 0
    1f0e:	8a 81       	ldd	r24, Y+2	; 0x02
    1f10:	80 83       	st	Z, r24
		while(!((SPSR >> SPIF) & 1));
    1f12:	ee e2       	ldi	r30, 0x2E	; 46
    1f14:	f0 e0       	ldi	r31, 0x00	; 0
    1f16:	80 81       	ld	r24, Z
    1f18:	88 23       	and	r24, r24
    1f1a:	dc f7       	brge	.-10     	; 0x1f12 <SPI_enuSendData_Master+0x26>
		*Copy_pu8SlaveData = SPDR;
    1f1c:	ef e2       	ldi	r30, 0x2F	; 47
    1f1e:	f0 e0       	ldi	r31, 0x00	; 0
    1f20:	80 81       	ld	r24, Z
    1f22:	eb 81       	ldd	r30, Y+3	; 0x03
    1f24:	fc 81       	ldd	r31, Y+4	; 0x04
    1f26:	80 83       	st	Z, r24
		
		Local_enuErrorState = ES_OK;	
    1f28:	19 82       	std	Y+1, r1	; 0x01
    1f2a:	02 c0       	rjmp	.+4      	; 0x1f30 <SPI_enuSendData_Master+0x44>
	}
	else
	{
		Local_enuErrorState = ES_NULL_POINTER;
    1f2c:	82 e0       	ldi	r24, 0x02	; 2
    1f2e:	89 83       	std	Y+1, r24	; 0x01
	}
	
	return Local_enuErrorState;
    1f30:	89 81       	ldd	r24, Y+1	; 0x01
}
    1f32:	0f 90       	pop	r0
    1f34:	0f 90       	pop	r0
    1f36:	0f 90       	pop	r0
    1f38:	0f 90       	pop	r0
    1f3a:	cf 91       	pop	r28
    1f3c:	df 91       	pop	r29
    1f3e:	08 95       	ret

00001f40 <SPI_enuReceiveData_Master>:

ES_t SPI_enuReceiveData_Master(u8 *Copy_pu8MasterData, u8 Copy_u8SlaveData)
{
    1f40:	df 93       	push	r29
    1f42:	cf 93       	push	r28
    1f44:	00 d0       	rcall	.+0      	; 0x1f46 <SPI_enuReceiveData_Master+0x6>
    1f46:	00 d0       	rcall	.+0      	; 0x1f48 <SPI_enuReceiveData_Master+0x8>
    1f48:	cd b7       	in	r28, 0x3d	; 61
    1f4a:	de b7       	in	r29, 0x3e	; 62
    1f4c:	9b 83       	std	Y+3, r25	; 0x03
    1f4e:	8a 83       	std	Y+2, r24	; 0x02
    1f50:	6c 83       	std	Y+4, r22	; 0x04
	ES_t Local_enuErrorState = ES_NOK;
    1f52:	81 e0       	ldi	r24, 0x01	; 1
    1f54:	89 83       	std	Y+1, r24	; 0x01
	
	if(Copy_pu8MasterData != NULL)
    1f56:	8a 81       	ldd	r24, Y+2	; 0x02
    1f58:	9b 81       	ldd	r25, Y+3	; 0x03
    1f5a:	00 97       	sbiw	r24, 0x00	; 0
    1f5c:	89 f0       	breq	.+34     	; 0x1f80 <SPI_enuReceiveData_Master+0x40>
	{
		SPDR = Copy_u8SlaveData;
    1f5e:	ef e2       	ldi	r30, 0x2F	; 47
    1f60:	f0 e0       	ldi	r31, 0x00	; 0
    1f62:	8c 81       	ldd	r24, Y+4	; 0x04
    1f64:	80 83       	st	Z, r24
		while(!((SPSR >> SPIF) & 1));
    1f66:	ee e2       	ldi	r30, 0x2E	; 46
    1f68:	f0 e0       	ldi	r31, 0x00	; 0
    1f6a:	80 81       	ld	r24, Z
    1f6c:	88 23       	and	r24, r24
    1f6e:	dc f7       	brge	.-10     	; 0x1f66 <SPI_enuReceiveData_Master+0x26>
		*Copy_pu8MasterData = SPDR;
    1f70:	ef e2       	ldi	r30, 0x2F	; 47
    1f72:	f0 e0       	ldi	r31, 0x00	; 0
    1f74:	80 81       	ld	r24, Z
    1f76:	ea 81       	ldd	r30, Y+2	; 0x02
    1f78:	fb 81       	ldd	r31, Y+3	; 0x03
    1f7a:	80 83       	st	Z, r24
		
		Local_enuErrorState = ES_OK;
    1f7c:	19 82       	std	Y+1, r1	; 0x01
    1f7e:	02 c0       	rjmp	.+4      	; 0x1f84 <SPI_enuReceiveData_Master+0x44>
	}
	else
	{
		Local_enuErrorState = ES_NULL_POINTER;
    1f80:	82 e0       	ldi	r24, 0x02	; 2
    1f82:	89 83       	std	Y+1, r24	; 0x01
	}
	
	return Local_enuErrorState;
    1f84:	89 81       	ldd	r24, Y+1	; 0x01
}
    1f86:	0f 90       	pop	r0
    1f88:	0f 90       	pop	r0
    1f8a:	0f 90       	pop	r0
    1f8c:	0f 90       	pop	r0
    1f8e:	cf 91       	pop	r28
    1f90:	df 91       	pop	r29
    1f92:	08 95       	ret

00001f94 <SPI_enuEnableInterrupt>:

ES_t SPI_enuEnableInterrupt()
{
    1f94:	df 93       	push	r29
    1f96:	cf 93       	push	r28
    1f98:	0f 92       	push	r0
    1f9a:	cd b7       	in	r28, 0x3d	; 61
    1f9c:	de b7       	in	r29, 0x3e	; 62
	ES_t Local_enuErrorState = ES_NOK;
    1f9e:	81 e0       	ldi	r24, 0x01	; 1
    1fa0:	89 83       	std	Y+1, r24	; 0x01
	
	SPCR |= (MASK_BIT << SPIE);
    1fa2:	ad e2       	ldi	r26, 0x2D	; 45
    1fa4:	b0 e0       	ldi	r27, 0x00	; 0
    1fa6:	ed e2       	ldi	r30, 0x2D	; 45
    1fa8:	f0 e0       	ldi	r31, 0x00	; 0
    1faa:	80 81       	ld	r24, Z
    1fac:	80 68       	ori	r24, 0x80	; 128
    1fae:	8c 93       	st	X, r24
	
	Local_enuErrorState = ES_OK;
    1fb0:	19 82       	std	Y+1, r1	; 0x01
	
	return Local_enuErrorState;
    1fb2:	89 81       	ldd	r24, Y+1	; 0x01
}
    1fb4:	0f 90       	pop	r0
    1fb6:	cf 91       	pop	r28
    1fb8:	df 91       	pop	r29
    1fba:	08 95       	ret

00001fbc <SPI_enuCallBackFunc>:


ES_t SPI_enuCallBackFunc(void (* Copy_pAppFunc)(void *), void *Copy_pAppParameter)
{
    1fbc:	df 93       	push	r29
    1fbe:	cf 93       	push	r28
    1fc0:	00 d0       	rcall	.+0      	; 0x1fc2 <SPI_enuCallBackFunc+0x6>
    1fc2:	00 d0       	rcall	.+0      	; 0x1fc4 <SPI_enuCallBackFunc+0x8>
    1fc4:	0f 92       	push	r0
    1fc6:	cd b7       	in	r28, 0x3d	; 61
    1fc8:	de b7       	in	r29, 0x3e	; 62
    1fca:	9b 83       	std	Y+3, r25	; 0x03
    1fcc:	8a 83       	std	Y+2, r24	; 0x02
    1fce:	7d 83       	std	Y+5, r23	; 0x05
    1fd0:	6c 83       	std	Y+4, r22	; 0x04
	ES_t Local_enuErrorState = ES_NOK;
    1fd2:	81 e0       	ldi	r24, 0x01	; 1
    1fd4:	89 83       	std	Y+1, r24	; 0x01
	
	if(Copy_pAppFunc != NULL)
    1fd6:	8a 81       	ldd	r24, Y+2	; 0x02
    1fd8:	9b 81       	ldd	r25, Y+3	; 0x03
    1fda:	00 97       	sbiw	r24, 0x00	; 0
    1fdc:	71 f0       	breq	.+28     	; 0x1ffa <SPI_enuCallBackFunc+0x3e>
	{
		SPI_PappFunc = Copy_pAppFunc;
    1fde:	8a 81       	ldd	r24, Y+2	; 0x02
    1fe0:	9b 81       	ldd	r25, Y+3	; 0x03
    1fe2:	90 93 10 02 	sts	0x0210, r25
    1fe6:	80 93 0f 02 	sts	0x020F, r24
		SPI_PappParameter = Copy_pAppParameter;
    1fea:	8c 81       	ldd	r24, Y+4	; 0x04
    1fec:	9d 81       	ldd	r25, Y+5	; 0x05
    1fee:	90 93 12 02 	sts	0x0212, r25
    1ff2:	80 93 11 02 	sts	0x0211, r24
		Local_enuErrorState = ES_OK;
    1ff6:	19 82       	std	Y+1, r1	; 0x01
    1ff8:	02 c0       	rjmp	.+4      	; 0x1ffe <SPI_enuCallBackFunc+0x42>
	}
	else
	{
		Local_enuErrorState = ES_NULL_POINTER;
    1ffa:	82 e0       	ldi	r24, 0x02	; 2
    1ffc:	89 83       	std	Y+1, r24	; 0x01
	}
	
	return Local_enuErrorState;
    1ffe:	89 81       	ldd	r24, Y+1	; 0x01
}
    2000:	0f 90       	pop	r0
    2002:	0f 90       	pop	r0
    2004:	0f 90       	pop	r0
    2006:	0f 90       	pop	r0
    2008:	0f 90       	pop	r0
    200a:	cf 91       	pop	r28
    200c:	df 91       	pop	r29
    200e:	08 95       	ret

00002010 <VECT_SPI>:

ISR(VECT_SPI)
{
    2010:	1f 92       	push	r1
    2012:	0f 92       	push	r0
    2014:	0f b6       	in	r0, 0x3f	; 63
    2016:	0f 92       	push	r0
    2018:	11 24       	eor	r1, r1
    201a:	2f 93       	push	r18
    201c:	3f 93       	push	r19
    201e:	4f 93       	push	r20
    2020:	5f 93       	push	r21
    2022:	6f 93       	push	r22
    2024:	7f 93       	push	r23
    2026:	8f 93       	push	r24
    2028:	9f 93       	push	r25
    202a:	af 93       	push	r26
    202c:	bf 93       	push	r27
    202e:	ef 93       	push	r30
    2030:	ff 93       	push	r31
    2032:	df 93       	push	r29
    2034:	cf 93       	push	r28
    2036:	cd b7       	in	r28, 0x3d	; 61
    2038:	de b7       	in	r29, 0x3e	; 62
	if(SPI_PappFunc != NULL)
    203a:	80 91 0f 02 	lds	r24, 0x020F
    203e:	90 91 10 02 	lds	r25, 0x0210
    2042:	00 97       	sbiw	r24, 0x00	; 0
    2044:	49 f0       	breq	.+18     	; 0x2058 <VECT_SPI+0x48>
	{
		SPI_PappFunc((void *)SPI_PappParameter);
    2046:	e0 91 0f 02 	lds	r30, 0x020F
    204a:	f0 91 10 02 	lds	r31, 0x0210
    204e:	80 91 11 02 	lds	r24, 0x0211
    2052:	90 91 12 02 	lds	r25, 0x0212
    2056:	09 95       	icall
	}
    2058:	cf 91       	pop	r28
    205a:	df 91       	pop	r29
    205c:	ff 91       	pop	r31
    205e:	ef 91       	pop	r30
    2060:	bf 91       	pop	r27
    2062:	af 91       	pop	r26
    2064:	9f 91       	pop	r25
    2066:	8f 91       	pop	r24
    2068:	7f 91       	pop	r23
    206a:	6f 91       	pop	r22
    206c:	5f 91       	pop	r21
    206e:	4f 91       	pop	r20
    2070:	3f 91       	pop	r19
    2072:	2f 91       	pop	r18
    2074:	0f 90       	pop	r0
    2076:	0f be       	out	0x3f, r0	; 63
    2078:	0f 90       	pop	r0
    207a:	1f 90       	pop	r1
    207c:	18 95       	reti

0000207e <GIE_enuGloable_Interrupt_Enable>:
#include "../../LIB/Error_States.h"

#include "GIE_priv.h"

ES_t GIE_enuGloable_Interrupt_Enable(void)
{
    207e:	df 93       	push	r29
    2080:	cf 93       	push	r28
    2082:	0f 92       	push	r0
    2084:	cd b7       	in	r28, 0x3d	; 61
    2086:	de b7       	in	r29, 0x3e	; 62
	ES_t Local_enuErrorState = ES_NOK;
    2088:	81 e0       	ldi	r24, 0x01	; 1
    208a:	89 83       	std	Y+1, r24	; 0x01
	
	SREG &= ~(MASK_BIT << GIE_I);
    208c:	af e5       	ldi	r26, 0x5F	; 95
    208e:	b0 e0       	ldi	r27, 0x00	; 0
    2090:	ef e5       	ldi	r30, 0x5F	; 95
    2092:	f0 e0       	ldi	r31, 0x00	; 0
    2094:	80 81       	ld	r24, Z
    2096:	8f 77       	andi	r24, 0x7F	; 127
    2098:	8c 93       	st	X, r24
	SREG |= (MASK_BIT << GIE_I);
    209a:	af e5       	ldi	r26, 0x5F	; 95
    209c:	b0 e0       	ldi	r27, 0x00	; 0
    209e:	ef e5       	ldi	r30, 0x5F	; 95
    20a0:	f0 e0       	ldi	r31, 0x00	; 0
    20a2:	80 81       	ld	r24, Z
    20a4:	80 68       	ori	r24, 0x80	; 128
    20a6:	8c 93       	st	X, r24
	Local_enuErrorState = ES_OK;
    20a8:	19 82       	std	Y+1, r1	; 0x01
	
	return Local_enuErrorState;
    20aa:	89 81       	ldd	r24, Y+1	; 0x01
}
    20ac:	0f 90       	pop	r0
    20ae:	cf 91       	pop	r28
    20b0:	df 91       	pop	r29
    20b2:	08 95       	ret

000020b4 <GIE_enuGloable_Interrupt_Disable>:

ES_t GIE_enuGloable_Interrupt_Disable(void)
{
    20b4:	df 93       	push	r29
    20b6:	cf 93       	push	r28
    20b8:	0f 92       	push	r0
    20ba:	cd b7       	in	r28, 0x3d	; 61
    20bc:	de b7       	in	r29, 0x3e	; 62
	ES_t Local_enuErrorState = ES_NOK;
    20be:	81 e0       	ldi	r24, 0x01	; 1
    20c0:	89 83       	std	Y+1, r24	; 0x01
	
	SREG &= ~(MASK_BIT << GIE_I);
    20c2:	af e5       	ldi	r26, 0x5F	; 95
    20c4:	b0 e0       	ldi	r27, 0x00	; 0
    20c6:	ef e5       	ldi	r30, 0x5F	; 95
    20c8:	f0 e0       	ldi	r31, 0x00	; 0
    20ca:	80 81       	ld	r24, Z
    20cc:	8f 77       	andi	r24, 0x7F	; 127
    20ce:	8c 93       	st	X, r24
	Local_enuErrorState = ES_OK;
    20d0:	19 82       	std	Y+1, r1	; 0x01
	
	return Local_enuErrorState;
    20d2:	89 81       	ldd	r24, Y+1	; 0x01
    20d4:	0f 90       	pop	r0
    20d6:	cf 91       	pop	r28
    20d8:	df 91       	pop	r29
    20da:	08 95       	ret

000020dc <EXTI_enuInit>:
/* array of pointers to the parameters of the function that will be executed when the interrupt is happen */
static volatile void *EXTI_APvidGenericParameters[MAX_NUM_EXTI] = {NULL, NULL, NULL};
	

ES_t EXTI_enuInit(EXTI_Configuration_t *Copy_PEXTI_Config)
{
    20dc:	df 93       	push	r29
    20de:	cf 93       	push	r28
    20e0:	cd b7       	in	r28, 0x3d	; 61
    20e2:	de b7       	in	r29, 0x3e	; 62
    20e4:	2c 97       	sbiw	r28, 0x0c	; 12
    20e6:	0f b6       	in	r0, 0x3f	; 63
    20e8:	f8 94       	cli
    20ea:	de bf       	out	0x3e, r29	; 62
    20ec:	0f be       	out	0x3f, r0	; 63
    20ee:	cd bf       	out	0x3d, r28	; 61
    20f0:	9c 83       	std	Y+4, r25	; 0x04
    20f2:	8b 83       	std	Y+3, r24	; 0x03
	ES_t Local_enuErrorState = ES_NOK;
    20f4:	81 e0       	ldi	r24, 0x01	; 1
    20f6:	8a 83       	std	Y+2, r24	; 0x02
	
	if(Copy_PEXTI_Config != NULL)
    20f8:	8b 81       	ldd	r24, Y+3	; 0x03
    20fa:	9c 81       	ldd	r25, Y+4	; 0x04
    20fc:	00 97       	sbiw	r24, 0x00	; 0
    20fe:	09 f4       	brne	.+2      	; 0x2102 <EXTI_enuInit+0x26>
    2100:	7d c1       	rjmp	.+762    	; 0x23fc <EXTI_enuInit+0x320>
	{
		u8 Local_u8Iterator = 0;
    2102:	19 82       	std	Y+1, r1	; 0x01
		for(Local_u8Iterator = 0; Local_u8Iterator < MAX_NUM_EXTI; Local_u8Iterator++)
    2104:	19 82       	std	Y+1, r1	; 0x01
    2106:	75 c1       	rjmp	.+746    	; 0x23f2 <EXTI_enuInit+0x316>
		{
			switch(Copy_PEXTI_Config[Local_u8Iterator].EXTI_id)
    2108:	89 81       	ldd	r24, Y+1	; 0x01
    210a:	28 2f       	mov	r18, r24
    210c:	30 e0       	ldi	r19, 0x00	; 0
    210e:	c9 01       	movw	r24, r18
    2110:	88 0f       	add	r24, r24
    2112:	99 1f       	adc	r25, r25
    2114:	28 0f       	add	r18, r24
    2116:	39 1f       	adc	r19, r25
    2118:	8b 81       	ldd	r24, Y+3	; 0x03
    211a:	9c 81       	ldd	r25, Y+4	; 0x04
    211c:	fc 01       	movw	r30, r24
    211e:	e2 0f       	add	r30, r18
    2120:	f3 1f       	adc	r31, r19
    2122:	80 81       	ld	r24, Z
    2124:	28 2f       	mov	r18, r24
    2126:	30 e0       	ldi	r19, 0x00	; 0
    2128:	3c 87       	std	Y+12, r19	; 0x0c
    212a:	2b 87       	std	Y+11, r18	; 0x0b
    212c:	8b 85       	ldd	r24, Y+11	; 0x0b
    212e:	9c 85       	ldd	r25, Y+12	; 0x0c
    2130:	81 30       	cpi	r24, 0x01	; 1
    2132:	91 05       	cpc	r25, r1
    2134:	09 f4       	brne	.+2      	; 0x2138 <EXTI_enuInit+0x5c>
    2136:	8e c0       	rjmp	.+284    	; 0x2254 <EXTI_enuInit+0x178>
    2138:	2b 85       	ldd	r18, Y+11	; 0x0b
    213a:	3c 85       	ldd	r19, Y+12	; 0x0c
    213c:	22 30       	cpi	r18, 0x02	; 2
    213e:	31 05       	cpc	r19, r1
    2140:	09 f4       	brne	.+2      	; 0x2144 <EXTI_enuInit+0x68>
    2142:	0b c1       	rjmp	.+534    	; 0x235a <EXTI_enuInit+0x27e>
    2144:	8b 85       	ldd	r24, Y+11	; 0x0b
    2146:	9c 85       	ldd	r25, Y+12	; 0x0c
    2148:	00 97       	sbiw	r24, 0x00	; 0
    214a:	09 f0       	breq	.+2      	; 0x214e <EXTI_enuInit+0x72>
    214c:	4d c1       	rjmp	.+666    	; 0x23e8 <EXTI_enuInit+0x30c>
			{
				case EXTI0:
				if(Copy_PEXTI_Config[Local_u8Iterator].EXTI_state == ENABLED)
    214e:	89 81       	ldd	r24, Y+1	; 0x01
    2150:	28 2f       	mov	r18, r24
    2152:	30 e0       	ldi	r19, 0x00	; 0
    2154:	c9 01       	movw	r24, r18
    2156:	88 0f       	add	r24, r24
    2158:	99 1f       	adc	r25, r25
    215a:	28 0f       	add	r18, r24
    215c:	39 1f       	adc	r19, r25
    215e:	8b 81       	ldd	r24, Y+3	; 0x03
    2160:	9c 81       	ldd	r25, Y+4	; 0x04
    2162:	fc 01       	movw	r30, r24
    2164:	e2 0f       	add	r30, r18
    2166:	f3 1f       	adc	r31, r19
    2168:	81 81       	ldd	r24, Z+1	; 0x01
    216a:	88 23       	and	r24, r24
    216c:	09 f0       	breq	.+2      	; 0x2170 <EXTI_enuInit+0x94>
    216e:	3e c1       	rjmp	.+636    	; 0x23ec <EXTI_enuInit+0x310>
				{
					//Masking the 2 bits --> ISC00, ISC01
					MCUCR &= ~(3 << 0);
    2170:	a5 e5       	ldi	r26, 0x55	; 85
    2172:	b0 e0       	ldi	r27, 0x00	; 0
    2174:	e5 e5       	ldi	r30, 0x55	; 85
    2176:	f0 e0       	ldi	r31, 0x00	; 0
    2178:	80 81       	ld	r24, Z
    217a:	8c 7f       	andi	r24, 0xFC	; 252
    217c:	8c 93       	st	X, r24
					switch(Copy_PEXTI_Config[Local_u8Iterator].EXTI_control_state)
    217e:	89 81       	ldd	r24, Y+1	; 0x01
    2180:	28 2f       	mov	r18, r24
    2182:	30 e0       	ldi	r19, 0x00	; 0
    2184:	c9 01       	movw	r24, r18
    2186:	88 0f       	add	r24, r24
    2188:	99 1f       	adc	r25, r25
    218a:	28 0f       	add	r18, r24
    218c:	39 1f       	adc	r19, r25
    218e:	8b 81       	ldd	r24, Y+3	; 0x03
    2190:	9c 81       	ldd	r25, Y+4	; 0x04
    2192:	fc 01       	movw	r30, r24
    2194:	e2 0f       	add	r30, r18
    2196:	f3 1f       	adc	r31, r19
    2198:	82 81       	ldd	r24, Z+2	; 0x02
    219a:	28 2f       	mov	r18, r24
    219c:	30 e0       	ldi	r19, 0x00	; 0
    219e:	3a 87       	std	Y+10, r19	; 0x0a
    21a0:	29 87       	std	Y+9, r18	; 0x09
    21a2:	89 85       	ldd	r24, Y+9	; 0x09
    21a4:	9a 85       	ldd	r25, Y+10	; 0x0a
    21a6:	81 30       	cpi	r24, 0x01	; 1
    21a8:	91 05       	cpc	r25, r1
    21aa:	21 f1       	breq	.+72     	; 0x21f4 <EXTI_enuInit+0x118>
    21ac:	29 85       	ldd	r18, Y+9	; 0x09
    21ae:	3a 85       	ldd	r19, Y+10	; 0x0a
    21b0:	22 30       	cpi	r18, 0x02	; 2
    21b2:	31 05       	cpc	r19, r1
    21b4:	2c f4       	brge	.+10     	; 0x21c0 <EXTI_enuInit+0xe4>
    21b6:	89 85       	ldd	r24, Y+9	; 0x09
    21b8:	9a 85       	ldd	r25, Y+10	; 0x0a
    21ba:	00 97       	sbiw	r24, 0x00	; 0
    21bc:	61 f0       	breq	.+24     	; 0x21d6 <EXTI_enuInit+0xfa>
    21be:	47 c0       	rjmp	.+142    	; 0x224e <EXTI_enuInit+0x172>
    21c0:	29 85       	ldd	r18, Y+9	; 0x09
    21c2:	3a 85       	ldd	r19, Y+10	; 0x0a
    21c4:	22 30       	cpi	r18, 0x02	; 2
    21c6:	31 05       	cpc	r19, r1
    21c8:	21 f1       	breq	.+72     	; 0x2212 <EXTI_enuInit+0x136>
    21ca:	89 85       	ldd	r24, Y+9	; 0x09
    21cc:	9a 85       	ldd	r25, Y+10	; 0x0a
    21ce:	83 30       	cpi	r24, 0x03	; 3
    21d0:	91 05       	cpc	r25, r1
    21d2:	71 f1       	breq	.+92     	; 0x2230 <EXTI_enuInit+0x154>
    21d4:	3c c0       	rjmp	.+120    	; 0x224e <EXTI_enuInit+0x172>
					{
						case LOW_LEVEL:
						MCUCR &= ~(MASK_BIT << ISC00);
    21d6:	a5 e5       	ldi	r26, 0x55	; 85
    21d8:	b0 e0       	ldi	r27, 0x00	; 0
    21da:	e5 e5       	ldi	r30, 0x55	; 85
    21dc:	f0 e0       	ldi	r31, 0x00	; 0
    21de:	80 81       	ld	r24, Z
    21e0:	8e 7f       	andi	r24, 0xFE	; 254
    21e2:	8c 93       	st	X, r24
						MCUCR &= ~(MASK_BIT << ISC01);
    21e4:	a5 e5       	ldi	r26, 0x55	; 85
    21e6:	b0 e0       	ldi	r27, 0x00	; 0
    21e8:	e5 e5       	ldi	r30, 0x55	; 85
    21ea:	f0 e0       	ldi	r31, 0x00	; 0
    21ec:	80 81       	ld	r24, Z
    21ee:	8d 7f       	andi	r24, 0xFD	; 253
    21f0:	8c 93       	st	X, r24
    21f2:	fc c0       	rjmp	.+504    	; 0x23ec <EXTI_enuInit+0x310>
						break;
						
						case LOGICAL:
						MCUCR |= (MASK_BIT << ISC00);
    21f4:	a5 e5       	ldi	r26, 0x55	; 85
    21f6:	b0 e0       	ldi	r27, 0x00	; 0
    21f8:	e5 e5       	ldi	r30, 0x55	; 85
    21fa:	f0 e0       	ldi	r31, 0x00	; 0
    21fc:	80 81       	ld	r24, Z
    21fe:	81 60       	ori	r24, 0x01	; 1
    2200:	8c 93       	st	X, r24
						MCUCR &= ~(MASK_BIT << ISC01);
    2202:	a5 e5       	ldi	r26, 0x55	; 85
    2204:	b0 e0       	ldi	r27, 0x00	; 0
    2206:	e5 e5       	ldi	r30, 0x55	; 85
    2208:	f0 e0       	ldi	r31, 0x00	; 0
    220a:	80 81       	ld	r24, Z
    220c:	8d 7f       	andi	r24, 0xFD	; 253
    220e:	8c 93       	st	X, r24
    2210:	ed c0       	rjmp	.+474    	; 0x23ec <EXTI_enuInit+0x310>
						break;
						
						case FAILLING:
						MCUCR &= ~(MASK_BIT << ISC00);
    2212:	a5 e5       	ldi	r26, 0x55	; 85
    2214:	b0 e0       	ldi	r27, 0x00	; 0
    2216:	e5 e5       	ldi	r30, 0x55	; 85
    2218:	f0 e0       	ldi	r31, 0x00	; 0
    221a:	80 81       	ld	r24, Z
    221c:	8e 7f       	andi	r24, 0xFE	; 254
    221e:	8c 93       	st	X, r24
						MCUCR |= (MASK_BIT << ISC01);
    2220:	a5 e5       	ldi	r26, 0x55	; 85
    2222:	b0 e0       	ldi	r27, 0x00	; 0
    2224:	e5 e5       	ldi	r30, 0x55	; 85
    2226:	f0 e0       	ldi	r31, 0x00	; 0
    2228:	80 81       	ld	r24, Z
    222a:	82 60       	ori	r24, 0x02	; 2
    222c:	8c 93       	st	X, r24
    222e:	de c0       	rjmp	.+444    	; 0x23ec <EXTI_enuInit+0x310>
						break;
						
						case RISING:
						MCUCR |= (MASK_BIT << ISC00);
    2230:	a5 e5       	ldi	r26, 0x55	; 85
    2232:	b0 e0       	ldi	r27, 0x00	; 0
    2234:	e5 e5       	ldi	r30, 0x55	; 85
    2236:	f0 e0       	ldi	r31, 0x00	; 0
    2238:	80 81       	ld	r24, Z
    223a:	81 60       	ori	r24, 0x01	; 1
    223c:	8c 93       	st	X, r24
						MCUCR |= (MASK_BIT << ISC01);
    223e:	a5 e5       	ldi	r26, 0x55	; 85
    2240:	b0 e0       	ldi	r27, 0x00	; 0
    2242:	e5 e5       	ldi	r30, 0x55	; 85
    2244:	f0 e0       	ldi	r31, 0x00	; 0
    2246:	80 81       	ld	r24, Z
    2248:	82 60       	ori	r24, 0x02	; 2
    224a:	8c 93       	st	X, r24
    224c:	cf c0       	rjmp	.+414    	; 0x23ec <EXTI_enuInit+0x310>
						break;
						
						default:
						Local_enuErrorState = ES_OUT_OF_RANGE;
    224e:	83 e0       	ldi	r24, 0x03	; 3
    2250:	8a 83       	std	Y+2, r24	; 0x02
    2252:	cc c0       	rjmp	.+408    	; 0x23ec <EXTI_enuInit+0x310>
					}
				}
				break;
				
				case EXTI1:
				if(Copy_PEXTI_Config[Local_u8Iterator].EXTI_state == ENABLED)
    2254:	89 81       	ldd	r24, Y+1	; 0x01
    2256:	28 2f       	mov	r18, r24
    2258:	30 e0       	ldi	r19, 0x00	; 0
    225a:	c9 01       	movw	r24, r18
    225c:	88 0f       	add	r24, r24
    225e:	99 1f       	adc	r25, r25
    2260:	28 0f       	add	r18, r24
    2262:	39 1f       	adc	r19, r25
    2264:	8b 81       	ldd	r24, Y+3	; 0x03
    2266:	9c 81       	ldd	r25, Y+4	; 0x04
    2268:	fc 01       	movw	r30, r24
    226a:	e2 0f       	add	r30, r18
    226c:	f3 1f       	adc	r31, r19
    226e:	81 81       	ldd	r24, Z+1	; 0x01
    2270:	88 23       	and	r24, r24
    2272:	09 f0       	breq	.+2      	; 0x2276 <EXTI_enuInit+0x19a>
    2274:	bb c0       	rjmp	.+374    	; 0x23ec <EXTI_enuInit+0x310>
				{
					//Masking the 2 bits --> ISC10, ISC11
					MCUCR &= ~(3 << 2);
    2276:	a5 e5       	ldi	r26, 0x55	; 85
    2278:	b0 e0       	ldi	r27, 0x00	; 0
    227a:	e5 e5       	ldi	r30, 0x55	; 85
    227c:	f0 e0       	ldi	r31, 0x00	; 0
    227e:	80 81       	ld	r24, Z
    2280:	83 7f       	andi	r24, 0xF3	; 243
    2282:	8c 93       	st	X, r24
					switch(Copy_PEXTI_Config[Local_u8Iterator].EXTI_control_state)
    2284:	89 81       	ldd	r24, Y+1	; 0x01
    2286:	28 2f       	mov	r18, r24
    2288:	30 e0       	ldi	r19, 0x00	; 0
    228a:	c9 01       	movw	r24, r18
    228c:	88 0f       	add	r24, r24
    228e:	99 1f       	adc	r25, r25
    2290:	28 0f       	add	r18, r24
    2292:	39 1f       	adc	r19, r25
    2294:	8b 81       	ldd	r24, Y+3	; 0x03
    2296:	9c 81       	ldd	r25, Y+4	; 0x04
    2298:	fc 01       	movw	r30, r24
    229a:	e2 0f       	add	r30, r18
    229c:	f3 1f       	adc	r31, r19
    229e:	82 81       	ldd	r24, Z+2	; 0x02
    22a0:	28 2f       	mov	r18, r24
    22a2:	30 e0       	ldi	r19, 0x00	; 0
    22a4:	38 87       	std	Y+8, r19	; 0x08
    22a6:	2f 83       	std	Y+7, r18	; 0x07
    22a8:	8f 81       	ldd	r24, Y+7	; 0x07
    22aa:	98 85       	ldd	r25, Y+8	; 0x08
    22ac:	81 30       	cpi	r24, 0x01	; 1
    22ae:	91 05       	cpc	r25, r1
    22b0:	21 f1       	breq	.+72     	; 0x22fa <EXTI_enuInit+0x21e>
    22b2:	2f 81       	ldd	r18, Y+7	; 0x07
    22b4:	38 85       	ldd	r19, Y+8	; 0x08
    22b6:	22 30       	cpi	r18, 0x02	; 2
    22b8:	31 05       	cpc	r19, r1
    22ba:	2c f4       	brge	.+10     	; 0x22c6 <EXTI_enuInit+0x1ea>
    22bc:	8f 81       	ldd	r24, Y+7	; 0x07
    22be:	98 85       	ldd	r25, Y+8	; 0x08
    22c0:	00 97       	sbiw	r24, 0x00	; 0
    22c2:	61 f0       	breq	.+24     	; 0x22dc <EXTI_enuInit+0x200>
    22c4:	47 c0       	rjmp	.+142    	; 0x2354 <EXTI_enuInit+0x278>
    22c6:	2f 81       	ldd	r18, Y+7	; 0x07
    22c8:	38 85       	ldd	r19, Y+8	; 0x08
    22ca:	22 30       	cpi	r18, 0x02	; 2
    22cc:	31 05       	cpc	r19, r1
    22ce:	21 f1       	breq	.+72     	; 0x2318 <EXTI_enuInit+0x23c>
    22d0:	8f 81       	ldd	r24, Y+7	; 0x07
    22d2:	98 85       	ldd	r25, Y+8	; 0x08
    22d4:	83 30       	cpi	r24, 0x03	; 3
    22d6:	91 05       	cpc	r25, r1
    22d8:	71 f1       	breq	.+92     	; 0x2336 <EXTI_enuInit+0x25a>
    22da:	3c c0       	rjmp	.+120    	; 0x2354 <EXTI_enuInit+0x278>
					{
						case LOW_LEVEL:
						MCUCR &= ~(MASK_BIT << ISC10);
    22dc:	a5 e5       	ldi	r26, 0x55	; 85
    22de:	b0 e0       	ldi	r27, 0x00	; 0
    22e0:	e5 e5       	ldi	r30, 0x55	; 85
    22e2:	f0 e0       	ldi	r31, 0x00	; 0
    22e4:	80 81       	ld	r24, Z
    22e6:	8b 7f       	andi	r24, 0xFB	; 251
    22e8:	8c 93       	st	X, r24
						MCUCR &= ~(MASK_BIT << ISC11);
    22ea:	a5 e5       	ldi	r26, 0x55	; 85
    22ec:	b0 e0       	ldi	r27, 0x00	; 0
    22ee:	e5 e5       	ldi	r30, 0x55	; 85
    22f0:	f0 e0       	ldi	r31, 0x00	; 0
    22f2:	80 81       	ld	r24, Z
    22f4:	87 7f       	andi	r24, 0xF7	; 247
    22f6:	8c 93       	st	X, r24
    22f8:	79 c0       	rjmp	.+242    	; 0x23ec <EXTI_enuInit+0x310>
						break;
						
						case LOGICAL:
						MCUCR |= (MASK_BIT << ISC10);
    22fa:	a5 e5       	ldi	r26, 0x55	; 85
    22fc:	b0 e0       	ldi	r27, 0x00	; 0
    22fe:	e5 e5       	ldi	r30, 0x55	; 85
    2300:	f0 e0       	ldi	r31, 0x00	; 0
    2302:	80 81       	ld	r24, Z
    2304:	84 60       	ori	r24, 0x04	; 4
    2306:	8c 93       	st	X, r24
						MCUCR &= ~(MASK_BIT << ISC11);
    2308:	a5 e5       	ldi	r26, 0x55	; 85
    230a:	b0 e0       	ldi	r27, 0x00	; 0
    230c:	e5 e5       	ldi	r30, 0x55	; 85
    230e:	f0 e0       	ldi	r31, 0x00	; 0
    2310:	80 81       	ld	r24, Z
    2312:	87 7f       	andi	r24, 0xF7	; 247
    2314:	8c 93       	st	X, r24
    2316:	6a c0       	rjmp	.+212    	; 0x23ec <EXTI_enuInit+0x310>
						break;
						
						case FAILLING:
						MCUCR &= ~(MASK_BIT << ISC10);
    2318:	a5 e5       	ldi	r26, 0x55	; 85
    231a:	b0 e0       	ldi	r27, 0x00	; 0
    231c:	e5 e5       	ldi	r30, 0x55	; 85
    231e:	f0 e0       	ldi	r31, 0x00	; 0
    2320:	80 81       	ld	r24, Z
    2322:	8b 7f       	andi	r24, 0xFB	; 251
    2324:	8c 93       	st	X, r24
						MCUCR |= (MASK_BIT << ISC11);
    2326:	a5 e5       	ldi	r26, 0x55	; 85
    2328:	b0 e0       	ldi	r27, 0x00	; 0
    232a:	e5 e5       	ldi	r30, 0x55	; 85
    232c:	f0 e0       	ldi	r31, 0x00	; 0
    232e:	80 81       	ld	r24, Z
    2330:	88 60       	ori	r24, 0x08	; 8
    2332:	8c 93       	st	X, r24
    2334:	5b c0       	rjmp	.+182    	; 0x23ec <EXTI_enuInit+0x310>
						break;
						
						case RISING:
						MCUCR |= (MASK_BIT << ISC10);
    2336:	a5 e5       	ldi	r26, 0x55	; 85
    2338:	b0 e0       	ldi	r27, 0x00	; 0
    233a:	e5 e5       	ldi	r30, 0x55	; 85
    233c:	f0 e0       	ldi	r31, 0x00	; 0
    233e:	80 81       	ld	r24, Z
    2340:	84 60       	ori	r24, 0x04	; 4
    2342:	8c 93       	st	X, r24
						MCUCR |= (MASK_BIT << ISC11);
    2344:	a5 e5       	ldi	r26, 0x55	; 85
    2346:	b0 e0       	ldi	r27, 0x00	; 0
    2348:	e5 e5       	ldi	r30, 0x55	; 85
    234a:	f0 e0       	ldi	r31, 0x00	; 0
    234c:	80 81       	ld	r24, Z
    234e:	88 60       	ori	r24, 0x08	; 8
    2350:	8c 93       	st	X, r24
    2352:	4c c0       	rjmp	.+152    	; 0x23ec <EXTI_enuInit+0x310>
						break;
						
						default:
						Local_enuErrorState = ES_OUT_OF_RANGE;
    2354:	83 e0       	ldi	r24, 0x03	; 3
    2356:	8a 83       	std	Y+2, r24	; 0x02
    2358:	49 c0       	rjmp	.+146    	; 0x23ec <EXTI_enuInit+0x310>
					}
				}
				break;
				
				case EXTI2:
				if(Copy_PEXTI_Config[Local_u8Iterator].EXTI_state == ENABLED)
    235a:	89 81       	ldd	r24, Y+1	; 0x01
    235c:	28 2f       	mov	r18, r24
    235e:	30 e0       	ldi	r19, 0x00	; 0
    2360:	c9 01       	movw	r24, r18
    2362:	88 0f       	add	r24, r24
    2364:	99 1f       	adc	r25, r25
    2366:	28 0f       	add	r18, r24
    2368:	39 1f       	adc	r19, r25
    236a:	8b 81       	ldd	r24, Y+3	; 0x03
    236c:	9c 81       	ldd	r25, Y+4	; 0x04
    236e:	fc 01       	movw	r30, r24
    2370:	e2 0f       	add	r30, r18
    2372:	f3 1f       	adc	r31, r19
    2374:	81 81       	ldd	r24, Z+1	; 0x01
    2376:	88 23       	and	r24, r24
    2378:	c9 f5       	brne	.+114    	; 0x23ec <EXTI_enuInit+0x310>
				{
					//Masking the bit --> ISC2
					MCUCSR &= ~(1 << 6);
    237a:	a4 e5       	ldi	r26, 0x54	; 84
    237c:	b0 e0       	ldi	r27, 0x00	; 0
    237e:	e4 e5       	ldi	r30, 0x54	; 84
    2380:	f0 e0       	ldi	r31, 0x00	; 0
    2382:	80 81       	ld	r24, Z
    2384:	8f 7b       	andi	r24, 0xBF	; 191
    2386:	8c 93       	st	X, r24
					switch(Copy_PEXTI_Config[Local_u8Iterator].EXTI_control_state)
    2388:	89 81       	ldd	r24, Y+1	; 0x01
    238a:	28 2f       	mov	r18, r24
    238c:	30 e0       	ldi	r19, 0x00	; 0
    238e:	c9 01       	movw	r24, r18
    2390:	88 0f       	add	r24, r24
    2392:	99 1f       	adc	r25, r25
    2394:	28 0f       	add	r18, r24
    2396:	39 1f       	adc	r19, r25
    2398:	8b 81       	ldd	r24, Y+3	; 0x03
    239a:	9c 81       	ldd	r25, Y+4	; 0x04
    239c:	fc 01       	movw	r30, r24
    239e:	e2 0f       	add	r30, r18
    23a0:	f3 1f       	adc	r31, r19
    23a2:	82 81       	ldd	r24, Z+2	; 0x02
    23a4:	28 2f       	mov	r18, r24
    23a6:	30 e0       	ldi	r19, 0x00	; 0
    23a8:	3e 83       	std	Y+6, r19	; 0x06
    23aa:	2d 83       	std	Y+5, r18	; 0x05
    23ac:	8d 81       	ldd	r24, Y+5	; 0x05
    23ae:	9e 81       	ldd	r25, Y+6	; 0x06
    23b0:	82 30       	cpi	r24, 0x02	; 2
    23b2:	91 05       	cpc	r25, r1
    23b4:	31 f0       	breq	.+12     	; 0x23c2 <EXTI_enuInit+0x2e6>
    23b6:	2d 81       	ldd	r18, Y+5	; 0x05
    23b8:	3e 81       	ldd	r19, Y+6	; 0x06
    23ba:	23 30       	cpi	r18, 0x03	; 3
    23bc:	31 05       	cpc	r19, r1
    23be:	49 f0       	breq	.+18     	; 0x23d2 <EXTI_enuInit+0x2f6>
    23c0:	10 c0       	rjmp	.+32     	; 0x23e2 <EXTI_enuInit+0x306>
					{			
						case FAILLING:
						MCUCSR &= ~(MASK_BIT << ISC2);
    23c2:	a4 e5       	ldi	r26, 0x54	; 84
    23c4:	b0 e0       	ldi	r27, 0x00	; 0
    23c6:	e4 e5       	ldi	r30, 0x54	; 84
    23c8:	f0 e0       	ldi	r31, 0x00	; 0
    23ca:	80 81       	ld	r24, Z
    23cc:	8f 7b       	andi	r24, 0xBF	; 191
    23ce:	8c 93       	st	X, r24
    23d0:	0d c0       	rjmp	.+26     	; 0x23ec <EXTI_enuInit+0x310>
						break;
						
						case RISING:
						MCUCSR |= (MASK_BIT << ISC2);
    23d2:	a4 e5       	ldi	r26, 0x54	; 84
    23d4:	b0 e0       	ldi	r27, 0x00	; 0
    23d6:	e4 e5       	ldi	r30, 0x54	; 84
    23d8:	f0 e0       	ldi	r31, 0x00	; 0
    23da:	80 81       	ld	r24, Z
    23dc:	80 64       	ori	r24, 0x40	; 64
    23de:	8c 93       	st	X, r24
    23e0:	05 c0       	rjmp	.+10     	; 0x23ec <EXTI_enuInit+0x310>
						break;
						
						default:
						Local_enuErrorState = ES_OUT_OF_RANGE;
    23e2:	83 e0       	ldi	r24, 0x03	; 3
    23e4:	8a 83       	std	Y+2, r24	; 0x02
    23e6:	02 c0       	rjmp	.+4      	; 0x23ec <EXTI_enuInit+0x310>
					}			
				}
				break;
				
				default:
				Local_enuErrorState = ES_OUT_OF_RANGE;
    23e8:	83 e0       	ldi	r24, 0x03	; 3
    23ea:	8a 83       	std	Y+2, r24	; 0x02
	ES_t Local_enuErrorState = ES_NOK;
	
	if(Copy_PEXTI_Config != NULL)
	{
		u8 Local_u8Iterator = 0;
		for(Local_u8Iterator = 0; Local_u8Iterator < MAX_NUM_EXTI; Local_u8Iterator++)
    23ec:	89 81       	ldd	r24, Y+1	; 0x01
    23ee:	8f 5f       	subi	r24, 0xFF	; 255
    23f0:	89 83       	std	Y+1, r24	; 0x01
    23f2:	89 81       	ldd	r24, Y+1	; 0x01
    23f4:	83 30       	cpi	r24, 0x03	; 3
    23f6:	08 f4       	brcc	.+2      	; 0x23fa <EXTI_enuInit+0x31e>
    23f8:	87 ce       	rjmp	.-754    	; 0x2108 <EXTI_enuInit+0x2c>
    23fa:	02 c0       	rjmp	.+4      	; 0x2400 <EXTI_enuInit+0x324>
			}
		}
	}
	else
	{
		Local_enuErrorState = ES_NULL_POINTER;
    23fc:	82 e0       	ldi	r24, 0x02	; 2
    23fe:	8a 83       	std	Y+2, r24	; 0x02
	}
	
	return Local_enuErrorState;
    2400:	8a 81       	ldd	r24, Y+2	; 0x02
}
    2402:	2c 96       	adiw	r28, 0x0c	; 12
    2404:	0f b6       	in	r0, 0x3f	; 63
    2406:	f8 94       	cli
    2408:	de bf       	out	0x3e, r29	; 62
    240a:	0f be       	out	0x3f, r0	; 63
    240c:	cd bf       	out	0x3d, r28	; 61
    240e:	cf 91       	pop	r28
    2410:	df 91       	pop	r29
    2412:	08 95       	ret

00002414 <EXTI_enuChange_Control_State>:

ES_t EXTI_enuChange_Control_State(EXTI_ID_t Copy_enuEXTI_Id, EXTI_CTL_STATE_t Copy_enuControlState)
{
    2414:	df 93       	push	r29
    2416:	cf 93       	push	r28
    2418:	cd b7       	in	r28, 0x3d	; 61
    241a:	de b7       	in	r29, 0x3e	; 62
    241c:	2b 97       	sbiw	r28, 0x0b	; 11
    241e:	0f b6       	in	r0, 0x3f	; 63
    2420:	f8 94       	cli
    2422:	de bf       	out	0x3e, r29	; 62
    2424:	0f be       	out	0x3f, r0	; 63
    2426:	cd bf       	out	0x3d, r28	; 61
    2428:	8a 83       	std	Y+2, r24	; 0x02
    242a:	6b 83       	std	Y+3, r22	; 0x03
	ES_t Local_enuErrorState = ES_NOK;
    242c:	81 e0       	ldi	r24, 0x01	; 1
    242e:	89 83       	std	Y+1, r24	; 0x01
	
	if(Copy_enuEXTI_Id < MAX_NUM_EXTI)
    2430:	8a 81       	ldd	r24, Y+2	; 0x02
    2432:	83 30       	cpi	r24, 0x03	; 3
    2434:	08 f0       	brcs	.+2      	; 0x2438 <EXTI_enuChange_Control_State+0x24>
    2436:	0d c1       	rjmp	.+538    	; 0x2652 <EXTI_enuChange_Control_State+0x23e>
	{
		switch(Copy_enuEXTI_Id)
    2438:	8a 81       	ldd	r24, Y+2	; 0x02
    243a:	28 2f       	mov	r18, r24
    243c:	30 e0       	ldi	r19, 0x00	; 0
    243e:	3b 87       	std	Y+11, r19	; 0x0b
    2440:	2a 87       	std	Y+10, r18	; 0x0a
    2442:	8a 85       	ldd	r24, Y+10	; 0x0a
    2444:	9b 85       	ldd	r25, Y+11	; 0x0b
    2446:	81 30       	cpi	r24, 0x01	; 1
    2448:	91 05       	cpc	r25, r1
    244a:	09 f4       	brne	.+2      	; 0x244e <EXTI_enuChange_Control_State+0x3a>
    244c:	70 c0       	rjmp	.+224    	; 0x252e <EXTI_enuChange_Control_State+0x11a>
    244e:	2a 85       	ldd	r18, Y+10	; 0x0a
    2450:	3b 85       	ldd	r19, Y+11	; 0x0b
    2452:	22 30       	cpi	r18, 0x02	; 2
    2454:	31 05       	cpc	r19, r1
    2456:	09 f4       	brne	.+2      	; 0x245a <EXTI_enuChange_Control_State+0x46>
    2458:	cf c0       	rjmp	.+414    	; 0x25f8 <EXTI_enuChange_Control_State+0x1e4>
    245a:	8a 85       	ldd	r24, Y+10	; 0x0a
    245c:	9b 85       	ldd	r25, Y+11	; 0x0b
    245e:	00 97       	sbiw	r24, 0x00	; 0
    2460:	09 f0       	breq	.+2      	; 0x2464 <EXTI_enuChange_Control_State+0x50>
    2462:	f4 c0       	rjmp	.+488    	; 0x264c <EXTI_enuChange_Control_State+0x238>
		{
			case EXTI0:
			//Masking the 2 bits --> ISC00, ISC01
			MCUCR &= ~(3 << 0);
    2464:	a5 e5       	ldi	r26, 0x55	; 85
    2466:	b0 e0       	ldi	r27, 0x00	; 0
    2468:	e5 e5       	ldi	r30, 0x55	; 85
    246a:	f0 e0       	ldi	r31, 0x00	; 0
    246c:	80 81       	ld	r24, Z
    246e:	8c 7f       	andi	r24, 0xFC	; 252
    2470:	8c 93       	st	X, r24
			switch(Copy_enuControlState)
    2472:	8b 81       	ldd	r24, Y+3	; 0x03
    2474:	28 2f       	mov	r18, r24
    2476:	30 e0       	ldi	r19, 0x00	; 0
    2478:	39 87       	std	Y+9, r19	; 0x09
    247a:	28 87       	std	Y+8, r18	; 0x08
    247c:	88 85       	ldd	r24, Y+8	; 0x08
    247e:	99 85       	ldd	r25, Y+9	; 0x09
    2480:	81 30       	cpi	r24, 0x01	; 1
    2482:	91 05       	cpc	r25, r1
    2484:	21 f1       	breq	.+72     	; 0x24ce <EXTI_enuChange_Control_State+0xba>
    2486:	28 85       	ldd	r18, Y+8	; 0x08
    2488:	39 85       	ldd	r19, Y+9	; 0x09
    248a:	22 30       	cpi	r18, 0x02	; 2
    248c:	31 05       	cpc	r19, r1
    248e:	2c f4       	brge	.+10     	; 0x249a <EXTI_enuChange_Control_State+0x86>
    2490:	88 85       	ldd	r24, Y+8	; 0x08
    2492:	99 85       	ldd	r25, Y+9	; 0x09
    2494:	00 97       	sbiw	r24, 0x00	; 0
    2496:	61 f0       	breq	.+24     	; 0x24b0 <EXTI_enuChange_Control_State+0x9c>
    2498:	47 c0       	rjmp	.+142    	; 0x2528 <EXTI_enuChange_Control_State+0x114>
    249a:	28 85       	ldd	r18, Y+8	; 0x08
    249c:	39 85       	ldd	r19, Y+9	; 0x09
    249e:	22 30       	cpi	r18, 0x02	; 2
    24a0:	31 05       	cpc	r19, r1
    24a2:	21 f1       	breq	.+72     	; 0x24ec <EXTI_enuChange_Control_State+0xd8>
    24a4:	88 85       	ldd	r24, Y+8	; 0x08
    24a6:	99 85       	ldd	r25, Y+9	; 0x09
    24a8:	83 30       	cpi	r24, 0x03	; 3
    24aa:	91 05       	cpc	r25, r1
    24ac:	71 f1       	breq	.+92     	; 0x250a <EXTI_enuChange_Control_State+0xf6>
    24ae:	3c c0       	rjmp	.+120    	; 0x2528 <EXTI_enuChange_Control_State+0x114>
			{
				case LOW_LEVEL:
				MCUCR &= ~(MASK_BIT << ISC00);
    24b0:	a5 e5       	ldi	r26, 0x55	; 85
    24b2:	b0 e0       	ldi	r27, 0x00	; 0
    24b4:	e5 e5       	ldi	r30, 0x55	; 85
    24b6:	f0 e0       	ldi	r31, 0x00	; 0
    24b8:	80 81       	ld	r24, Z
    24ba:	8e 7f       	andi	r24, 0xFE	; 254
    24bc:	8c 93       	st	X, r24
				MCUCR &= ~(MASK_BIT << ISC01);
    24be:	a5 e5       	ldi	r26, 0x55	; 85
    24c0:	b0 e0       	ldi	r27, 0x00	; 0
    24c2:	e5 e5       	ldi	r30, 0x55	; 85
    24c4:	f0 e0       	ldi	r31, 0x00	; 0
    24c6:	80 81       	ld	r24, Z
    24c8:	8d 7f       	andi	r24, 0xFD	; 253
    24ca:	8c 93       	st	X, r24
    24cc:	c4 c0       	rjmp	.+392    	; 0x2656 <EXTI_enuChange_Control_State+0x242>
				break;
				
				case LOGICAL:
				MCUCR |= (MASK_BIT << ISC00);
    24ce:	a5 e5       	ldi	r26, 0x55	; 85
    24d0:	b0 e0       	ldi	r27, 0x00	; 0
    24d2:	e5 e5       	ldi	r30, 0x55	; 85
    24d4:	f0 e0       	ldi	r31, 0x00	; 0
    24d6:	80 81       	ld	r24, Z
    24d8:	81 60       	ori	r24, 0x01	; 1
    24da:	8c 93       	st	X, r24
				MCUCR &= ~(MASK_BIT << ISC01);
    24dc:	a5 e5       	ldi	r26, 0x55	; 85
    24de:	b0 e0       	ldi	r27, 0x00	; 0
    24e0:	e5 e5       	ldi	r30, 0x55	; 85
    24e2:	f0 e0       	ldi	r31, 0x00	; 0
    24e4:	80 81       	ld	r24, Z
    24e6:	8d 7f       	andi	r24, 0xFD	; 253
    24e8:	8c 93       	st	X, r24
    24ea:	b5 c0       	rjmp	.+362    	; 0x2656 <EXTI_enuChange_Control_State+0x242>
				break;
				
				case FAILLING:
				MCUCR &= ~(MASK_BIT << ISC00);
    24ec:	a5 e5       	ldi	r26, 0x55	; 85
    24ee:	b0 e0       	ldi	r27, 0x00	; 0
    24f0:	e5 e5       	ldi	r30, 0x55	; 85
    24f2:	f0 e0       	ldi	r31, 0x00	; 0
    24f4:	80 81       	ld	r24, Z
    24f6:	8e 7f       	andi	r24, 0xFE	; 254
    24f8:	8c 93       	st	X, r24
				MCUCR |= (MASK_BIT << ISC01);
    24fa:	a5 e5       	ldi	r26, 0x55	; 85
    24fc:	b0 e0       	ldi	r27, 0x00	; 0
    24fe:	e5 e5       	ldi	r30, 0x55	; 85
    2500:	f0 e0       	ldi	r31, 0x00	; 0
    2502:	80 81       	ld	r24, Z
    2504:	82 60       	ori	r24, 0x02	; 2
    2506:	8c 93       	st	X, r24
    2508:	a6 c0       	rjmp	.+332    	; 0x2656 <EXTI_enuChange_Control_State+0x242>
				break;
				
				case RISING:
				MCUCR |= (MASK_BIT << ISC00);
    250a:	a5 e5       	ldi	r26, 0x55	; 85
    250c:	b0 e0       	ldi	r27, 0x00	; 0
    250e:	e5 e5       	ldi	r30, 0x55	; 85
    2510:	f0 e0       	ldi	r31, 0x00	; 0
    2512:	80 81       	ld	r24, Z
    2514:	81 60       	ori	r24, 0x01	; 1
    2516:	8c 93       	st	X, r24
				MCUCR |= (MASK_BIT << ISC01);
    2518:	a5 e5       	ldi	r26, 0x55	; 85
    251a:	b0 e0       	ldi	r27, 0x00	; 0
    251c:	e5 e5       	ldi	r30, 0x55	; 85
    251e:	f0 e0       	ldi	r31, 0x00	; 0
    2520:	80 81       	ld	r24, Z
    2522:	82 60       	ori	r24, 0x02	; 2
    2524:	8c 93       	st	X, r24
    2526:	97 c0       	rjmp	.+302    	; 0x2656 <EXTI_enuChange_Control_State+0x242>
				break;
				
				default:
				Local_enuErrorState = ES_OUT_OF_RANGE;
    2528:	83 e0       	ldi	r24, 0x03	; 3
    252a:	89 83       	std	Y+1, r24	; 0x01
    252c:	94 c0       	rjmp	.+296    	; 0x2656 <EXTI_enuChange_Control_State+0x242>
			}
			break;
			
			case EXTI1:
			//Masking the 2 bits --> ISC10, ISC11
			MCUCR &= ~(3 << 2);
    252e:	a5 e5       	ldi	r26, 0x55	; 85
    2530:	b0 e0       	ldi	r27, 0x00	; 0
    2532:	e5 e5       	ldi	r30, 0x55	; 85
    2534:	f0 e0       	ldi	r31, 0x00	; 0
    2536:	80 81       	ld	r24, Z
    2538:	83 7f       	andi	r24, 0xF3	; 243
    253a:	8c 93       	st	X, r24
			switch(Copy_enuControlState)
    253c:	8b 81       	ldd	r24, Y+3	; 0x03
    253e:	28 2f       	mov	r18, r24
    2540:	30 e0       	ldi	r19, 0x00	; 0
    2542:	3f 83       	std	Y+7, r19	; 0x07
    2544:	2e 83       	std	Y+6, r18	; 0x06
    2546:	8e 81       	ldd	r24, Y+6	; 0x06
    2548:	9f 81       	ldd	r25, Y+7	; 0x07
    254a:	81 30       	cpi	r24, 0x01	; 1
    254c:	91 05       	cpc	r25, r1
    254e:	21 f1       	breq	.+72     	; 0x2598 <EXTI_enuChange_Control_State+0x184>
    2550:	2e 81       	ldd	r18, Y+6	; 0x06
    2552:	3f 81       	ldd	r19, Y+7	; 0x07
    2554:	22 30       	cpi	r18, 0x02	; 2
    2556:	31 05       	cpc	r19, r1
    2558:	2c f4       	brge	.+10     	; 0x2564 <EXTI_enuChange_Control_State+0x150>
    255a:	8e 81       	ldd	r24, Y+6	; 0x06
    255c:	9f 81       	ldd	r25, Y+7	; 0x07
    255e:	00 97       	sbiw	r24, 0x00	; 0
    2560:	61 f0       	breq	.+24     	; 0x257a <EXTI_enuChange_Control_State+0x166>
    2562:	47 c0       	rjmp	.+142    	; 0x25f2 <EXTI_enuChange_Control_State+0x1de>
    2564:	2e 81       	ldd	r18, Y+6	; 0x06
    2566:	3f 81       	ldd	r19, Y+7	; 0x07
    2568:	22 30       	cpi	r18, 0x02	; 2
    256a:	31 05       	cpc	r19, r1
    256c:	21 f1       	breq	.+72     	; 0x25b6 <EXTI_enuChange_Control_State+0x1a2>
    256e:	8e 81       	ldd	r24, Y+6	; 0x06
    2570:	9f 81       	ldd	r25, Y+7	; 0x07
    2572:	83 30       	cpi	r24, 0x03	; 3
    2574:	91 05       	cpc	r25, r1
    2576:	71 f1       	breq	.+92     	; 0x25d4 <EXTI_enuChange_Control_State+0x1c0>
    2578:	3c c0       	rjmp	.+120    	; 0x25f2 <EXTI_enuChange_Control_State+0x1de>
			{
				case LOW_LEVEL:
				MCUCR &= ~(MASK_BIT << ISC10);
    257a:	a5 e5       	ldi	r26, 0x55	; 85
    257c:	b0 e0       	ldi	r27, 0x00	; 0
    257e:	e5 e5       	ldi	r30, 0x55	; 85
    2580:	f0 e0       	ldi	r31, 0x00	; 0
    2582:	80 81       	ld	r24, Z
    2584:	8b 7f       	andi	r24, 0xFB	; 251
    2586:	8c 93       	st	X, r24
				MCUCR &= ~(MASK_BIT << ISC11);
    2588:	a5 e5       	ldi	r26, 0x55	; 85
    258a:	b0 e0       	ldi	r27, 0x00	; 0
    258c:	e5 e5       	ldi	r30, 0x55	; 85
    258e:	f0 e0       	ldi	r31, 0x00	; 0
    2590:	80 81       	ld	r24, Z
    2592:	87 7f       	andi	r24, 0xF7	; 247
    2594:	8c 93       	st	X, r24
    2596:	5f c0       	rjmp	.+190    	; 0x2656 <EXTI_enuChange_Control_State+0x242>
				break;
				
				case LOGICAL:
				MCUCR |= (MASK_BIT << ISC10);
    2598:	a5 e5       	ldi	r26, 0x55	; 85
    259a:	b0 e0       	ldi	r27, 0x00	; 0
    259c:	e5 e5       	ldi	r30, 0x55	; 85
    259e:	f0 e0       	ldi	r31, 0x00	; 0
    25a0:	80 81       	ld	r24, Z
    25a2:	84 60       	ori	r24, 0x04	; 4
    25a4:	8c 93       	st	X, r24
				MCUCR &= ~(MASK_BIT << ISC11);
    25a6:	a5 e5       	ldi	r26, 0x55	; 85
    25a8:	b0 e0       	ldi	r27, 0x00	; 0
    25aa:	e5 e5       	ldi	r30, 0x55	; 85
    25ac:	f0 e0       	ldi	r31, 0x00	; 0
    25ae:	80 81       	ld	r24, Z
    25b0:	87 7f       	andi	r24, 0xF7	; 247
    25b2:	8c 93       	st	X, r24
    25b4:	50 c0       	rjmp	.+160    	; 0x2656 <EXTI_enuChange_Control_State+0x242>
				break;
				
				case FAILLING:
				MCUCR &= ~(MASK_BIT << ISC10);
    25b6:	a5 e5       	ldi	r26, 0x55	; 85
    25b8:	b0 e0       	ldi	r27, 0x00	; 0
    25ba:	e5 e5       	ldi	r30, 0x55	; 85
    25bc:	f0 e0       	ldi	r31, 0x00	; 0
    25be:	80 81       	ld	r24, Z
    25c0:	8b 7f       	andi	r24, 0xFB	; 251
    25c2:	8c 93       	st	X, r24
				MCUCR |= (MASK_BIT << ISC11);
    25c4:	a5 e5       	ldi	r26, 0x55	; 85
    25c6:	b0 e0       	ldi	r27, 0x00	; 0
    25c8:	e5 e5       	ldi	r30, 0x55	; 85
    25ca:	f0 e0       	ldi	r31, 0x00	; 0
    25cc:	80 81       	ld	r24, Z
    25ce:	88 60       	ori	r24, 0x08	; 8
    25d0:	8c 93       	st	X, r24
    25d2:	41 c0       	rjmp	.+130    	; 0x2656 <EXTI_enuChange_Control_State+0x242>
				break;
				
				case RISING:
				MCUCR |= (MASK_BIT << ISC10);
    25d4:	a5 e5       	ldi	r26, 0x55	; 85
    25d6:	b0 e0       	ldi	r27, 0x00	; 0
    25d8:	e5 e5       	ldi	r30, 0x55	; 85
    25da:	f0 e0       	ldi	r31, 0x00	; 0
    25dc:	80 81       	ld	r24, Z
    25de:	84 60       	ori	r24, 0x04	; 4
    25e0:	8c 93       	st	X, r24
				MCUCR |= (MASK_BIT << ISC11);
    25e2:	a5 e5       	ldi	r26, 0x55	; 85
    25e4:	b0 e0       	ldi	r27, 0x00	; 0
    25e6:	e5 e5       	ldi	r30, 0x55	; 85
    25e8:	f0 e0       	ldi	r31, 0x00	; 0
    25ea:	80 81       	ld	r24, Z
    25ec:	88 60       	ori	r24, 0x08	; 8
    25ee:	8c 93       	st	X, r24
    25f0:	32 c0       	rjmp	.+100    	; 0x2656 <EXTI_enuChange_Control_State+0x242>
				break;
				
				default:
				Local_enuErrorState = ES_OUT_OF_RANGE;
    25f2:	83 e0       	ldi	r24, 0x03	; 3
    25f4:	89 83       	std	Y+1, r24	; 0x01
    25f6:	2f c0       	rjmp	.+94     	; 0x2656 <EXTI_enuChange_Control_State+0x242>
			}
			break;
			
			case EXTI2:
			//Masking the bit --> ISC2
			MCUCSR &= ~(1 << 6);
    25f8:	a4 e5       	ldi	r26, 0x54	; 84
    25fa:	b0 e0       	ldi	r27, 0x00	; 0
    25fc:	e4 e5       	ldi	r30, 0x54	; 84
    25fe:	f0 e0       	ldi	r31, 0x00	; 0
    2600:	80 81       	ld	r24, Z
    2602:	8f 7b       	andi	r24, 0xBF	; 191
    2604:	8c 93       	st	X, r24
			switch(Copy_enuControlState)
    2606:	8b 81       	ldd	r24, Y+3	; 0x03
    2608:	28 2f       	mov	r18, r24
    260a:	30 e0       	ldi	r19, 0x00	; 0
    260c:	3d 83       	std	Y+5, r19	; 0x05
    260e:	2c 83       	std	Y+4, r18	; 0x04
    2610:	8c 81       	ldd	r24, Y+4	; 0x04
    2612:	9d 81       	ldd	r25, Y+5	; 0x05
    2614:	82 30       	cpi	r24, 0x02	; 2
    2616:	91 05       	cpc	r25, r1
    2618:	31 f0       	breq	.+12     	; 0x2626 <EXTI_enuChange_Control_State+0x212>
    261a:	2c 81       	ldd	r18, Y+4	; 0x04
    261c:	3d 81       	ldd	r19, Y+5	; 0x05
    261e:	23 30       	cpi	r18, 0x03	; 3
    2620:	31 05       	cpc	r19, r1
    2622:	49 f0       	breq	.+18     	; 0x2636 <EXTI_enuChange_Control_State+0x222>
    2624:	10 c0       	rjmp	.+32     	; 0x2646 <EXTI_enuChange_Control_State+0x232>
			{
				case FAILLING:
				MCUCSR &= ~(MASK_BIT << ISC2);
    2626:	a4 e5       	ldi	r26, 0x54	; 84
    2628:	b0 e0       	ldi	r27, 0x00	; 0
    262a:	e4 e5       	ldi	r30, 0x54	; 84
    262c:	f0 e0       	ldi	r31, 0x00	; 0
    262e:	80 81       	ld	r24, Z
    2630:	8f 7b       	andi	r24, 0xBF	; 191
    2632:	8c 93       	st	X, r24
    2634:	10 c0       	rjmp	.+32     	; 0x2656 <EXTI_enuChange_Control_State+0x242>
				break;
				
				case RISING:
				MCUCSR |= (MASK_BIT << ISC2);
    2636:	a4 e5       	ldi	r26, 0x54	; 84
    2638:	b0 e0       	ldi	r27, 0x00	; 0
    263a:	e4 e5       	ldi	r30, 0x54	; 84
    263c:	f0 e0       	ldi	r31, 0x00	; 0
    263e:	80 81       	ld	r24, Z
    2640:	80 64       	ori	r24, 0x40	; 64
    2642:	8c 93       	st	X, r24
    2644:	08 c0       	rjmp	.+16     	; 0x2656 <EXTI_enuChange_Control_State+0x242>
				break;
				
				default:
				Local_enuErrorState = ES_OUT_OF_RANGE;
    2646:	83 e0       	ldi	r24, 0x03	; 3
    2648:	89 83       	std	Y+1, r24	; 0x01
    264a:	05 c0       	rjmp	.+10     	; 0x2656 <EXTI_enuChange_Control_State+0x242>
				break;
			}
			break;
			
			default:
			Local_enuErrorState = ES_OUT_OF_RANGE;
    264c:	83 e0       	ldi	r24, 0x03	; 3
    264e:	89 83       	std	Y+1, r24	; 0x01
    2650:	02 c0       	rjmp	.+4      	; 0x2656 <EXTI_enuChange_Control_State+0x242>
			break;
		}
	}
	else
	{
		Local_enuErrorState = ES_OUT_OF_RANGE;
    2652:	83 e0       	ldi	r24, 0x03	; 3
    2654:	89 83       	std	Y+1, r24	; 0x01
	}
	
	return Local_enuErrorState;
    2656:	89 81       	ldd	r24, Y+1	; 0x01
}
    2658:	2b 96       	adiw	r28, 0x0b	; 11
    265a:	0f b6       	in	r0, 0x3f	; 63
    265c:	f8 94       	cli
    265e:	de bf       	out	0x3e, r29	; 62
    2660:	0f be       	out	0x3f, r0	; 63
    2662:	cd bf       	out	0x3d, r28	; 61
    2664:	cf 91       	pop	r28
    2666:	df 91       	pop	r29
    2668:	08 95       	ret

0000266a <EXTI_enuEnable>:

ES_t EXTI_enuEnable(EXTI_ID_t Copy_enuEXTI_Id)
{
    266a:	df 93       	push	r29
    266c:	cf 93       	push	r28
    266e:	00 d0       	rcall	.+0      	; 0x2670 <EXTI_enuEnable+0x6>
    2670:	00 d0       	rcall	.+0      	; 0x2672 <EXTI_enuEnable+0x8>
    2672:	cd b7       	in	r28, 0x3d	; 61
    2674:	de b7       	in	r29, 0x3e	; 62
    2676:	8a 83       	std	Y+2, r24	; 0x02
	ES_t Local_enuErrorState = ES_NOK;
    2678:	81 e0       	ldi	r24, 0x01	; 1
    267a:	89 83       	std	Y+1, r24	; 0x01
	
	if(Copy_enuEXTI_Id < MAX_NUM_EXTI)
    267c:	8a 81       	ldd	r24, Y+2	; 0x02
    267e:	83 30       	cpi	r24, 0x03	; 3
    2680:	08 f0       	brcs	.+2      	; 0x2684 <EXTI_enuEnable+0x1a>
    2682:	40 c0       	rjmp	.+128    	; 0x2704 <EXTI_enuEnable+0x9a>
	{
		switch(Copy_enuEXTI_Id)
    2684:	8a 81       	ldd	r24, Y+2	; 0x02
    2686:	28 2f       	mov	r18, r24
    2688:	30 e0       	ldi	r19, 0x00	; 0
    268a:	3c 83       	std	Y+4, r19	; 0x04
    268c:	2b 83       	std	Y+3, r18	; 0x03
    268e:	8b 81       	ldd	r24, Y+3	; 0x03
    2690:	9c 81       	ldd	r25, Y+4	; 0x04
    2692:	81 30       	cpi	r24, 0x01	; 1
    2694:	91 05       	cpc	r25, r1
    2696:	c1 f0       	breq	.+48     	; 0x26c8 <EXTI_enuEnable+0x5e>
    2698:	2b 81       	ldd	r18, Y+3	; 0x03
    269a:	3c 81       	ldd	r19, Y+4	; 0x04
    269c:	22 30       	cpi	r18, 0x02	; 2
    269e:	31 05       	cpc	r19, r1
    26a0:	11 f1       	breq	.+68     	; 0x26e6 <EXTI_enuEnable+0x7c>
    26a2:	8b 81       	ldd	r24, Y+3	; 0x03
    26a4:	9c 81       	ldd	r25, Y+4	; 0x04
    26a6:	00 97       	sbiw	r24, 0x00	; 0
    26a8:	79 f5       	brne	.+94     	; 0x2708 <EXTI_enuEnable+0x9e>
		{
			case EXTI0:
			GICR &= ~(MASK_BIT << INT0);
    26aa:	ab e5       	ldi	r26, 0x5B	; 91
    26ac:	b0 e0       	ldi	r27, 0x00	; 0
    26ae:	eb e5       	ldi	r30, 0x5B	; 91
    26b0:	f0 e0       	ldi	r31, 0x00	; 0
    26b2:	80 81       	ld	r24, Z
    26b4:	8f 7b       	andi	r24, 0xBF	; 191
    26b6:	8c 93       	st	X, r24
			GICR |= (MASK_BIT << INT0);
    26b8:	ab e5       	ldi	r26, 0x5B	; 91
    26ba:	b0 e0       	ldi	r27, 0x00	; 0
    26bc:	eb e5       	ldi	r30, 0x5B	; 91
    26be:	f0 e0       	ldi	r31, 0x00	; 0
    26c0:	80 81       	ld	r24, Z
    26c2:	80 64       	ori	r24, 0x40	; 64
    26c4:	8c 93       	st	X, r24
    26c6:	20 c0       	rjmp	.+64     	; 0x2708 <EXTI_enuEnable+0x9e>
			break;
			
			case EXTI1:
			GICR &= ~(MASK_BIT << INT1);
    26c8:	ab e5       	ldi	r26, 0x5B	; 91
    26ca:	b0 e0       	ldi	r27, 0x00	; 0
    26cc:	eb e5       	ldi	r30, 0x5B	; 91
    26ce:	f0 e0       	ldi	r31, 0x00	; 0
    26d0:	80 81       	ld	r24, Z
    26d2:	8f 77       	andi	r24, 0x7F	; 127
    26d4:	8c 93       	st	X, r24
			GICR |= (MASK_BIT << INT1);
    26d6:	ab e5       	ldi	r26, 0x5B	; 91
    26d8:	b0 e0       	ldi	r27, 0x00	; 0
    26da:	eb e5       	ldi	r30, 0x5B	; 91
    26dc:	f0 e0       	ldi	r31, 0x00	; 0
    26de:	80 81       	ld	r24, Z
    26e0:	80 68       	ori	r24, 0x80	; 128
    26e2:	8c 93       	st	X, r24
    26e4:	11 c0       	rjmp	.+34     	; 0x2708 <EXTI_enuEnable+0x9e>
			break;
			
			case EXTI2:
			GICR &= ~(MASK_BIT << INT2);
    26e6:	ab e5       	ldi	r26, 0x5B	; 91
    26e8:	b0 e0       	ldi	r27, 0x00	; 0
    26ea:	eb e5       	ldi	r30, 0x5B	; 91
    26ec:	f0 e0       	ldi	r31, 0x00	; 0
    26ee:	80 81       	ld	r24, Z
    26f0:	8f 7d       	andi	r24, 0xDF	; 223
    26f2:	8c 93       	st	X, r24
			GICR |= (MASK_BIT << INT2);
    26f4:	ab e5       	ldi	r26, 0x5B	; 91
    26f6:	b0 e0       	ldi	r27, 0x00	; 0
    26f8:	eb e5       	ldi	r30, 0x5B	; 91
    26fa:	f0 e0       	ldi	r31, 0x00	; 0
    26fc:	80 81       	ld	r24, Z
    26fe:	80 62       	ori	r24, 0x20	; 32
    2700:	8c 93       	st	X, r24
    2702:	02 c0       	rjmp	.+4      	; 0x2708 <EXTI_enuEnable+0x9e>
			break;
		}
	}
	else
	{
		Local_enuErrorState = ES_OUT_OF_RANGE;
    2704:	83 e0       	ldi	r24, 0x03	; 3
    2706:	89 83       	std	Y+1, r24	; 0x01
	}
	
	return Local_enuErrorState;
    2708:	89 81       	ldd	r24, Y+1	; 0x01
}
    270a:	0f 90       	pop	r0
    270c:	0f 90       	pop	r0
    270e:	0f 90       	pop	r0
    2710:	0f 90       	pop	r0
    2712:	cf 91       	pop	r28
    2714:	df 91       	pop	r29
    2716:	08 95       	ret

00002718 <EXTI_enuDisable>:

ES_t EXTI_enuDisable(EXTI_ID_t Copy_enuEXTI_Id)
{
    2718:	df 93       	push	r29
    271a:	cf 93       	push	r28
    271c:	00 d0       	rcall	.+0      	; 0x271e <EXTI_enuDisable+0x6>
    271e:	00 d0       	rcall	.+0      	; 0x2720 <EXTI_enuDisable+0x8>
    2720:	cd b7       	in	r28, 0x3d	; 61
    2722:	de b7       	in	r29, 0x3e	; 62
    2724:	8a 83       	std	Y+2, r24	; 0x02
	ES_t Local_enuErrorState = ES_NOK;
    2726:	81 e0       	ldi	r24, 0x01	; 1
    2728:	89 83       	std	Y+1, r24	; 0x01
	
	if(Copy_enuEXTI_Id < MAX_NUM_EXTI)
    272a:	8a 81       	ldd	r24, Y+2	; 0x02
    272c:	83 30       	cpi	r24, 0x03	; 3
    272e:	58 f5       	brcc	.+86     	; 0x2786 <EXTI_enuDisable+0x6e>
	{
		switch(Copy_enuEXTI_Id)
    2730:	8a 81       	ldd	r24, Y+2	; 0x02
    2732:	28 2f       	mov	r18, r24
    2734:	30 e0       	ldi	r19, 0x00	; 0
    2736:	3c 83       	std	Y+4, r19	; 0x04
    2738:	2b 83       	std	Y+3, r18	; 0x03
    273a:	8b 81       	ldd	r24, Y+3	; 0x03
    273c:	9c 81       	ldd	r25, Y+4	; 0x04
    273e:	81 30       	cpi	r24, 0x01	; 1
    2740:	91 05       	cpc	r25, r1
    2742:	89 f0       	breq	.+34     	; 0x2766 <EXTI_enuDisable+0x4e>
    2744:	2b 81       	ldd	r18, Y+3	; 0x03
    2746:	3c 81       	ldd	r19, Y+4	; 0x04
    2748:	22 30       	cpi	r18, 0x02	; 2
    274a:	31 05       	cpc	r19, r1
    274c:	a1 f0       	breq	.+40     	; 0x2776 <EXTI_enuDisable+0x5e>
    274e:	8b 81       	ldd	r24, Y+3	; 0x03
    2750:	9c 81       	ldd	r25, Y+4	; 0x04
    2752:	00 97       	sbiw	r24, 0x00	; 0
    2754:	d1 f4       	brne	.+52     	; 0x278a <EXTI_enuDisable+0x72>
		{
			case EXTI0:
			GICR &= ~(1 << INT0);
    2756:	ab e5       	ldi	r26, 0x5B	; 91
    2758:	b0 e0       	ldi	r27, 0x00	; 0
    275a:	eb e5       	ldi	r30, 0x5B	; 91
    275c:	f0 e0       	ldi	r31, 0x00	; 0
    275e:	80 81       	ld	r24, Z
    2760:	8f 7b       	andi	r24, 0xBF	; 191
    2762:	8c 93       	st	X, r24
    2764:	12 c0       	rjmp	.+36     	; 0x278a <EXTI_enuDisable+0x72>
			break;
			
			case EXTI1:
			GICR &= ~(1 << INT1);
    2766:	ab e5       	ldi	r26, 0x5B	; 91
    2768:	b0 e0       	ldi	r27, 0x00	; 0
    276a:	eb e5       	ldi	r30, 0x5B	; 91
    276c:	f0 e0       	ldi	r31, 0x00	; 0
    276e:	80 81       	ld	r24, Z
    2770:	8f 77       	andi	r24, 0x7F	; 127
    2772:	8c 93       	st	X, r24
    2774:	0a c0       	rjmp	.+20     	; 0x278a <EXTI_enuDisable+0x72>
			break;
			
			case EXTI2:
			GICR &= ~(1 << INT2);
    2776:	ab e5       	ldi	r26, 0x5B	; 91
    2778:	b0 e0       	ldi	r27, 0x00	; 0
    277a:	eb e5       	ldi	r30, 0x5B	; 91
    277c:	f0 e0       	ldi	r31, 0x00	; 0
    277e:	80 81       	ld	r24, Z
    2780:	8f 7d       	andi	r24, 0xDF	; 223
    2782:	8c 93       	st	X, r24
    2784:	02 c0       	rjmp	.+4      	; 0x278a <EXTI_enuDisable+0x72>
			break;
		}
	}
	else
	{
		Local_enuErrorState = ES_OUT_OF_RANGE;
    2786:	83 e0       	ldi	r24, 0x03	; 3
    2788:	89 83       	std	Y+1, r24	; 0x01
	}
	
	return Local_enuErrorState;
    278a:	89 81       	ldd	r24, Y+1	; 0x01
}
    278c:	0f 90       	pop	r0
    278e:	0f 90       	pop	r0
    2790:	0f 90       	pop	r0
    2792:	0f 90       	pop	r0
    2794:	cf 91       	pop	r28
    2796:	df 91       	pop	r29
    2798:	08 95       	ret

0000279a <EXTI_enuCallBackFunc>:

ES_t EXTI_enuCallBackFunc(volatile void (*Copy_PFunc)(void*), volatile void *Copy_PvidAppParameter, EXTI_ID_t Copy_enuEXTI_Id)
{
    279a:	df 93       	push	r29
    279c:	cf 93       	push	r28
    279e:	00 d0       	rcall	.+0      	; 0x27a0 <EXTI_enuCallBackFunc+0x6>
    27a0:	00 d0       	rcall	.+0      	; 0x27a2 <EXTI_enuCallBackFunc+0x8>
    27a2:	00 d0       	rcall	.+0      	; 0x27a4 <EXTI_enuCallBackFunc+0xa>
    27a4:	cd b7       	in	r28, 0x3d	; 61
    27a6:	de b7       	in	r29, 0x3e	; 62
    27a8:	9b 83       	std	Y+3, r25	; 0x03
    27aa:	8a 83       	std	Y+2, r24	; 0x02
    27ac:	7d 83       	std	Y+5, r23	; 0x05
    27ae:	6c 83       	std	Y+4, r22	; 0x04
    27b0:	4e 83       	std	Y+6, r20	; 0x06
	ES_t Local_enuErrorState = ES_NOK;
    27b2:	81 e0       	ldi	r24, 0x01	; 1
    27b4:	89 83       	std	Y+1, r24	; 0x01
	
	if(Copy_PFunc != NULL)
    27b6:	8a 81       	ldd	r24, Y+2	; 0x02
    27b8:	9b 81       	ldd	r25, Y+3	; 0x03
    27ba:	00 97       	sbiw	r24, 0x00	; 0
    27bc:	01 f1       	breq	.+64     	; 0x27fe <EXTI_enuCallBackFunc+0x64>
	{
		if(Copy_enuEXTI_Id < MAX_NUM_EXTI)
    27be:	8e 81       	ldd	r24, Y+6	; 0x06
    27c0:	83 30       	cpi	r24, 0x03	; 3
    27c2:	d0 f4       	brcc	.+52     	; 0x27f8 <EXTI_enuCallBackFunc+0x5e>
		{
			EXTI_APFunc[Copy_enuEXTI_Id] = Copy_PFunc;
    27c4:	8e 81       	ldd	r24, Y+6	; 0x06
    27c6:	88 2f       	mov	r24, r24
    27c8:	90 e0       	ldi	r25, 0x00	; 0
    27ca:	88 0f       	add	r24, r24
    27cc:	99 1f       	adc	r25, r25
    27ce:	fc 01       	movw	r30, r24
    27d0:	ed 5e       	subi	r30, 0xED	; 237
    27d2:	fd 4f       	sbci	r31, 0xFD	; 253
    27d4:	8a 81       	ldd	r24, Y+2	; 0x02
    27d6:	9b 81       	ldd	r25, Y+3	; 0x03
    27d8:	91 83       	std	Z+1, r25	; 0x01
    27da:	80 83       	st	Z, r24
			EXTI_APvidGenericParameters[Copy_enuEXTI_Id] = Copy_PvidAppParameter;
    27dc:	8e 81       	ldd	r24, Y+6	; 0x06
    27de:	88 2f       	mov	r24, r24
    27e0:	90 e0       	ldi	r25, 0x00	; 0
    27e2:	88 0f       	add	r24, r24
    27e4:	99 1f       	adc	r25, r25
    27e6:	fc 01       	movw	r30, r24
    27e8:	e7 5e       	subi	r30, 0xE7	; 231
    27ea:	fd 4f       	sbci	r31, 0xFD	; 253
    27ec:	8c 81       	ldd	r24, Y+4	; 0x04
    27ee:	9d 81       	ldd	r25, Y+5	; 0x05
    27f0:	91 83       	std	Z+1, r25	; 0x01
    27f2:	80 83       	st	Z, r24
			Local_enuErrorState = ES_OK;
    27f4:	19 82       	std	Y+1, r1	; 0x01
    27f6:	05 c0       	rjmp	.+10     	; 0x2802 <EXTI_enuCallBackFunc+0x68>
		}
		else
		{
			Local_enuErrorState = ES_OUT_OF_RANGE;
    27f8:	83 e0       	ldi	r24, 0x03	; 3
    27fa:	89 83       	std	Y+1, r24	; 0x01
    27fc:	02 c0       	rjmp	.+4      	; 0x2802 <EXTI_enuCallBackFunc+0x68>
		}
	}
	else
	{
		Local_enuErrorState = ES_NULL_POINTER;
    27fe:	82 e0       	ldi	r24, 0x02	; 2
    2800:	89 83       	std	Y+1, r24	; 0x01
	}
	
	return Local_enuErrorState;
    2802:	89 81       	ldd	r24, Y+1	; 0x01
}
    2804:	26 96       	adiw	r28, 0x06	; 6
    2806:	0f b6       	in	r0, 0x3f	; 63
    2808:	f8 94       	cli
    280a:	de bf       	out	0x3e, r29	; 62
    280c:	0f be       	out	0x3f, r0	; 63
    280e:	cd bf       	out	0x3d, r28	; 61
    2810:	cf 91       	pop	r28
    2812:	df 91       	pop	r29
    2814:	08 95       	ret

00002816 <__vector_1>:

/* ISR for EXTI0 */
ISR(VECT_INT0)
{	
    2816:	1f 92       	push	r1
    2818:	0f 92       	push	r0
    281a:	0f b6       	in	r0, 0x3f	; 63
    281c:	0f 92       	push	r0
    281e:	11 24       	eor	r1, r1
    2820:	2f 93       	push	r18
    2822:	3f 93       	push	r19
    2824:	4f 93       	push	r20
    2826:	5f 93       	push	r21
    2828:	6f 93       	push	r22
    282a:	7f 93       	push	r23
    282c:	8f 93       	push	r24
    282e:	9f 93       	push	r25
    2830:	af 93       	push	r26
    2832:	bf 93       	push	r27
    2834:	ef 93       	push	r30
    2836:	ff 93       	push	r31
    2838:	df 93       	push	r29
    283a:	cf 93       	push	r28
    283c:	cd b7       	in	r28, 0x3d	; 61
    283e:	de b7       	in	r29, 0x3e	; 62
	if(EXTI_APFunc[EXTI0] != NULL)
    2840:	80 91 13 02 	lds	r24, 0x0213
    2844:	90 91 14 02 	lds	r25, 0x0214
    2848:	00 97       	sbiw	r24, 0x00	; 0
    284a:	49 f0       	breq	.+18     	; 0x285e <__vector_1+0x48>
	{
		EXTI_APFunc[EXTI0](EXTI_APvidGenericParameters[EXTI0]);
    284c:	e0 91 13 02 	lds	r30, 0x0213
    2850:	f0 91 14 02 	lds	r31, 0x0214
    2854:	80 91 19 02 	lds	r24, 0x0219
    2858:	90 91 1a 02 	lds	r25, 0x021A
    285c:	09 95       	icall
	}
}
    285e:	cf 91       	pop	r28
    2860:	df 91       	pop	r29
    2862:	ff 91       	pop	r31
    2864:	ef 91       	pop	r30
    2866:	bf 91       	pop	r27
    2868:	af 91       	pop	r26
    286a:	9f 91       	pop	r25
    286c:	8f 91       	pop	r24
    286e:	7f 91       	pop	r23
    2870:	6f 91       	pop	r22
    2872:	5f 91       	pop	r21
    2874:	4f 91       	pop	r20
    2876:	3f 91       	pop	r19
    2878:	2f 91       	pop	r18
    287a:	0f 90       	pop	r0
    287c:	0f be       	out	0x3f, r0	; 63
    287e:	0f 90       	pop	r0
    2880:	1f 90       	pop	r1
    2882:	18 95       	reti

00002884 <__vector_2>:

/* ISR for EXTI1 */
ISR(VECT_INT1)
{
    2884:	1f 92       	push	r1
    2886:	0f 92       	push	r0
    2888:	0f b6       	in	r0, 0x3f	; 63
    288a:	0f 92       	push	r0
    288c:	11 24       	eor	r1, r1
    288e:	2f 93       	push	r18
    2890:	3f 93       	push	r19
    2892:	4f 93       	push	r20
    2894:	5f 93       	push	r21
    2896:	6f 93       	push	r22
    2898:	7f 93       	push	r23
    289a:	8f 93       	push	r24
    289c:	9f 93       	push	r25
    289e:	af 93       	push	r26
    28a0:	bf 93       	push	r27
    28a2:	ef 93       	push	r30
    28a4:	ff 93       	push	r31
    28a6:	df 93       	push	r29
    28a8:	cf 93       	push	r28
    28aa:	cd b7       	in	r28, 0x3d	; 61
    28ac:	de b7       	in	r29, 0x3e	; 62
	if(EXTI_APFunc[EXTI1] != NULL)
    28ae:	80 91 15 02 	lds	r24, 0x0215
    28b2:	90 91 16 02 	lds	r25, 0x0216
    28b6:	00 97       	sbiw	r24, 0x00	; 0
    28b8:	49 f0       	breq	.+18     	; 0x28cc <__vector_2+0x48>
	{
		EXTI_APFunc[EXTI1](EXTI_APvidGenericParameters[EXTI1]);
    28ba:	e0 91 15 02 	lds	r30, 0x0215
    28be:	f0 91 16 02 	lds	r31, 0x0216
    28c2:	80 91 1b 02 	lds	r24, 0x021B
    28c6:	90 91 1c 02 	lds	r25, 0x021C
    28ca:	09 95       	icall
	}
}
    28cc:	cf 91       	pop	r28
    28ce:	df 91       	pop	r29
    28d0:	ff 91       	pop	r31
    28d2:	ef 91       	pop	r30
    28d4:	bf 91       	pop	r27
    28d6:	af 91       	pop	r26
    28d8:	9f 91       	pop	r25
    28da:	8f 91       	pop	r24
    28dc:	7f 91       	pop	r23
    28de:	6f 91       	pop	r22
    28e0:	5f 91       	pop	r21
    28e2:	4f 91       	pop	r20
    28e4:	3f 91       	pop	r19
    28e6:	2f 91       	pop	r18
    28e8:	0f 90       	pop	r0
    28ea:	0f be       	out	0x3f, r0	; 63
    28ec:	0f 90       	pop	r0
    28ee:	1f 90       	pop	r1
    28f0:	18 95       	reti

000028f2 <__vector_3>:

/* ISR for EXTI2 */
ISR(VECT_INT2)
{	
    28f2:	1f 92       	push	r1
    28f4:	0f 92       	push	r0
    28f6:	0f b6       	in	r0, 0x3f	; 63
    28f8:	0f 92       	push	r0
    28fa:	11 24       	eor	r1, r1
    28fc:	2f 93       	push	r18
    28fe:	3f 93       	push	r19
    2900:	4f 93       	push	r20
    2902:	5f 93       	push	r21
    2904:	6f 93       	push	r22
    2906:	7f 93       	push	r23
    2908:	8f 93       	push	r24
    290a:	9f 93       	push	r25
    290c:	af 93       	push	r26
    290e:	bf 93       	push	r27
    2910:	ef 93       	push	r30
    2912:	ff 93       	push	r31
    2914:	df 93       	push	r29
    2916:	cf 93       	push	r28
    2918:	cd b7       	in	r28, 0x3d	; 61
    291a:	de b7       	in	r29, 0x3e	; 62
	if(EXTI_APFunc[EXTI2] != NULL)
    291c:	80 91 17 02 	lds	r24, 0x0217
    2920:	90 91 18 02 	lds	r25, 0x0218
    2924:	00 97       	sbiw	r24, 0x00	; 0
    2926:	49 f0       	breq	.+18     	; 0x293a <__vector_3+0x48>
	{
		EXTI_APFunc[EXTI2](EXTI_APvidGenericParameters[EXTI2]);
    2928:	e0 91 17 02 	lds	r30, 0x0217
    292c:	f0 91 18 02 	lds	r31, 0x0218
    2930:	80 91 1d 02 	lds	r24, 0x021D
    2934:	90 91 1e 02 	lds	r25, 0x021E
    2938:	09 95       	icall
	}
    293a:	cf 91       	pop	r28
    293c:	df 91       	pop	r29
    293e:	ff 91       	pop	r31
    2940:	ef 91       	pop	r30
    2942:	bf 91       	pop	r27
    2944:	af 91       	pop	r26
    2946:	9f 91       	pop	r25
    2948:	8f 91       	pop	r24
    294a:	7f 91       	pop	r23
    294c:	6f 91       	pop	r22
    294e:	5f 91       	pop	r21
    2950:	4f 91       	pop	r20
    2952:	3f 91       	pop	r19
    2954:	2f 91       	pop	r18
    2956:	0f 90       	pop	r0
    2958:	0f be       	out	0x3f, r0	; 63
    295a:	0f 90       	pop	r0
    295c:	1f 90       	pop	r1
    295e:	18 95       	reti

00002960 <DIO_enuINIT>:
 * @retval		: ES_t --> it returns the state of excution of this function
 * @note		: Atmega32 has 4 ports A, B, C, D and each port consist of 8 pins
 ******************************************************************************
**/
ES_t DIO_enuINIT(void)
{
    2960:	df 93       	push	r29
    2962:	cf 93       	push	r28
    2964:	0f 92       	push	r0
    2966:	cd b7       	in	r28, 0x3d	; 61
    2968:	de b7       	in	r29, 0x3e	; 62
	ES_t Local_enuErrorState = ES_NOK;
    296a:	81 e0       	ldi	r24, 0x01	; 1
    296c:	89 83       	std	Y+1, r24	; 0x01
	
	/* initialize of DDR register of 4 ports */
	DDRA = CONC(PA_DDR7,PA_DDR6,PA_DDR5,PA_DDR4,PA_DDR3,PA_DDR2,PA_DDR1,PA_DDR0);
    296e:	ea e3       	ldi	r30, 0x3A	; 58
    2970:	f0 e0       	ldi	r31, 0x00	; 0
    2972:	8e ef       	ldi	r24, 0xFE	; 254
    2974:	80 83       	st	Z, r24
	DDRB = CONC(PB_DDR7,PB_DDR6,PB_DDR5,PB_DDR4,PB_DDR3,PB_DDR2,PB_DDR1,PB_DDR0);
    2976:	e7 e3       	ldi	r30, 0x37	; 55
    2978:	f0 e0       	ldi	r31, 0x00	; 0
    297a:	8f ef       	ldi	r24, 0xFF	; 255
    297c:	80 83       	st	Z, r24
	DDRC = CONC(PC_DDR7,PC_DDR6,PC_DDR5,PC_DDR4,PC_DDR3,PC_DDR2,PC_DDR1,PC_DDR0);
    297e:	e4 e3       	ldi	r30, 0x34	; 52
    2980:	f0 e0       	ldi	r31, 0x00	; 0
    2982:	8f ef       	ldi	r24, 0xFF	; 255
    2984:	80 83       	st	Z, r24
	DDRD = CONC(PD_DDR7,PD_DDR6,PD_DDR5,PD_DDR4,PD_DDR3,PD_DDR2,PD_DDR1,PD_DDR0);
    2986:	e1 e3       	ldi	r30, 0x31	; 49
    2988:	f0 e0       	ldi	r31, 0x00	; 0
    298a:	8a e4       	ldi	r24, 0x4A	; 74
    298c:	80 83       	st	Z, r24
	
	/* initialize of PORT register of 4 ports */
	PORTA = CONC(PA_PORT7,PA_PORT6,PA_PORT5,PA_PORT4,PA_PORT3,PA_PORT2,PA_PORT1,PA_PORT0);
    298e:	eb e3       	ldi	r30, 0x3B	; 59
    2990:	f0 e0       	ldi	r31, 0x00	; 0
    2992:	81 e0       	ldi	r24, 0x01	; 1
    2994:	80 83       	st	Z, r24
	PORTB = CONC(PB_PORT7,PB_PORT6,PB_PORT5,PB_PORT4,PB_PORT3,PB_PORT2,PB_PORT1,PB_DDR0);
    2996:	e8 e3       	ldi	r30, 0x38	; 56
    2998:	f0 e0       	ldi	r31, 0x00	; 0
    299a:	81 e0       	ldi	r24, 0x01	; 1
    299c:	80 83       	st	Z, r24
	PORTC = CONC(PC_PORT7,PC_PORT6,PC_PORT5,PC_PORT4,PC_PORT3,PC_PORT2,PC_PORT1,PC_PORT0);
    299e:	e5 e3       	ldi	r30, 0x35	; 53
    29a0:	f0 e0       	ldi	r31, 0x00	; 0
    29a2:	10 82       	st	Z, r1
	PORTD = CONC(PD_PORT7,PD_PORT6,PD_PORT5,PD_PORT4,PD_PORT3,PD_PORT2,PD_PORT1,PD_PORT0);
    29a4:	e2 e3       	ldi	r30, 0x32	; 50
    29a6:	f0 e0       	ldi	r31, 0x00	; 0
    29a8:	86 e7       	ldi	r24, 0x76	; 118
    29aa:	80 83       	st	Z, r24
	
	Local_enuErrorState = ES_OK;
    29ac:	19 82       	std	Y+1, r1	; 0x01
	
	return Local_enuErrorState;
    29ae:	89 81       	ldd	r24, Y+1	; 0x01
}
    29b0:	0f 90       	pop	r0
    29b2:	cf 91       	pop	r28
    29b4:	df 91       	pop	r29
    29b6:	08 95       	ret

000029b8 <DIO_enuSetPortDirection>:
 * @retval		: ES_t --> it returns the state of excution of this function
 * @note		: none
 ******************************************************************************
**/
ES_t DIO_enuSetPortDirection(u8 Copy_u8PortID, u8 Copy_u8Value)
{
    29b8:	df 93       	push	r29
    29ba:	cf 93       	push	r28
    29bc:	00 d0       	rcall	.+0      	; 0x29be <DIO_enuSetPortDirection+0x6>
    29be:	00 d0       	rcall	.+0      	; 0x29c0 <DIO_enuSetPortDirection+0x8>
    29c0:	0f 92       	push	r0
    29c2:	cd b7       	in	r28, 0x3d	; 61
    29c4:	de b7       	in	r29, 0x3e	; 62
    29c6:	8a 83       	std	Y+2, r24	; 0x02
    29c8:	6b 83       	std	Y+3, r22	; 0x03
	ES_t Local_enuErrorState = ES_NOK;
    29ca:	81 e0       	ldi	r24, 0x01	; 1
    29cc:	89 83       	std	Y+1, r24	; 0x01
	
	if(Copy_u8PortID <= DIO_PORTD)
    29ce:	8a 81       	ldd	r24, Y+2	; 0x02
    29d0:	84 30       	cpi	r24, 0x04	; 4
    29d2:	a0 f5       	brcc	.+104    	; 0x2a3c <DIO_enuSetPortDirection+0x84>
	{
		switch(Copy_u8PortID)
    29d4:	8a 81       	ldd	r24, Y+2	; 0x02
    29d6:	28 2f       	mov	r18, r24
    29d8:	30 e0       	ldi	r19, 0x00	; 0
    29da:	3d 83       	std	Y+5, r19	; 0x05
    29dc:	2c 83       	std	Y+4, r18	; 0x04
    29de:	8c 81       	ldd	r24, Y+4	; 0x04
    29e0:	9d 81       	ldd	r25, Y+5	; 0x05
    29e2:	81 30       	cpi	r24, 0x01	; 1
    29e4:	91 05       	cpc	r25, r1
    29e6:	d1 f0       	breq	.+52     	; 0x2a1c <DIO_enuSetPortDirection+0x64>
    29e8:	2c 81       	ldd	r18, Y+4	; 0x04
    29ea:	3d 81       	ldd	r19, Y+5	; 0x05
    29ec:	22 30       	cpi	r18, 0x02	; 2
    29ee:	31 05       	cpc	r19, r1
    29f0:	2c f4       	brge	.+10     	; 0x29fc <DIO_enuSetPortDirection+0x44>
    29f2:	8c 81       	ldd	r24, Y+4	; 0x04
    29f4:	9d 81       	ldd	r25, Y+5	; 0x05
    29f6:	00 97       	sbiw	r24, 0x00	; 0
    29f8:	61 f0       	breq	.+24     	; 0x2a12 <DIO_enuSetPortDirection+0x5a>
    29fa:	1e c0       	rjmp	.+60     	; 0x2a38 <DIO_enuSetPortDirection+0x80>
    29fc:	2c 81       	ldd	r18, Y+4	; 0x04
    29fe:	3d 81       	ldd	r19, Y+5	; 0x05
    2a00:	22 30       	cpi	r18, 0x02	; 2
    2a02:	31 05       	cpc	r19, r1
    2a04:	81 f0       	breq	.+32     	; 0x2a26 <DIO_enuSetPortDirection+0x6e>
    2a06:	8c 81       	ldd	r24, Y+4	; 0x04
    2a08:	9d 81       	ldd	r25, Y+5	; 0x05
    2a0a:	83 30       	cpi	r24, 0x03	; 3
    2a0c:	91 05       	cpc	r25, r1
    2a0e:	81 f0       	breq	.+32     	; 0x2a30 <DIO_enuSetPortDirection+0x78>
    2a10:	13 c0       	rjmp	.+38     	; 0x2a38 <DIO_enuSetPortDirection+0x80>
		{
			case DIO_PORTA:
			DDRA = Copy_u8Value;
    2a12:	ea e3       	ldi	r30, 0x3A	; 58
    2a14:	f0 e0       	ldi	r31, 0x00	; 0
    2a16:	8b 81       	ldd	r24, Y+3	; 0x03
    2a18:	80 83       	st	Z, r24
    2a1a:	0e c0       	rjmp	.+28     	; 0x2a38 <DIO_enuSetPortDirection+0x80>
			break;
			
			case DIO_PORTB:
			DDRB = Copy_u8Value;
    2a1c:	e7 e3       	ldi	r30, 0x37	; 55
    2a1e:	f0 e0       	ldi	r31, 0x00	; 0
    2a20:	8b 81       	ldd	r24, Y+3	; 0x03
    2a22:	80 83       	st	Z, r24
    2a24:	09 c0       	rjmp	.+18     	; 0x2a38 <DIO_enuSetPortDirection+0x80>
			break;
			
			case DIO_PORTC:
			DDRC = Copy_u8Value;
    2a26:	e4 e3       	ldi	r30, 0x34	; 52
    2a28:	f0 e0       	ldi	r31, 0x00	; 0
    2a2a:	8b 81       	ldd	r24, Y+3	; 0x03
    2a2c:	80 83       	st	Z, r24
    2a2e:	04 c0       	rjmp	.+8      	; 0x2a38 <DIO_enuSetPortDirection+0x80>
			break;
			
			case DIO_PORTD:
			DDRD = Copy_u8Value;
    2a30:	e1 e3       	ldi	r30, 0x31	; 49
    2a32:	f0 e0       	ldi	r31, 0x00	; 0
    2a34:	8b 81       	ldd	r24, Y+3	; 0x03
    2a36:	80 83       	st	Z, r24
			break;
		}
		Local_enuErrorState = ES_OK;
    2a38:	19 82       	std	Y+1, r1	; 0x01
    2a3a:	02 c0       	rjmp	.+4      	; 0x2a40 <DIO_enuSetPortDirection+0x88>
	}
	else
	{
		Local_enuErrorState = ES_OUT_OF_RANGE;
    2a3c:	83 e0       	ldi	r24, 0x03	; 3
    2a3e:	89 83       	std	Y+1, r24	; 0x01
	}
	
	return Local_enuErrorState;
    2a40:	89 81       	ldd	r24, Y+1	; 0x01
}
    2a42:	0f 90       	pop	r0
    2a44:	0f 90       	pop	r0
    2a46:	0f 90       	pop	r0
    2a48:	0f 90       	pop	r0
    2a4a:	0f 90       	pop	r0
    2a4c:	cf 91       	pop	r28
    2a4e:	df 91       	pop	r29
    2a50:	08 95       	ret

00002a52 <DIO_enuSetPortVal>:
 * @retval		: ES_t --> it returns the state of excution of this function
 * @note		: none
 ******************************************************************************
**/
ES_t DIO_enuSetPortVal(u8 Copy_u8PortID, u8 Copy_u8Value)
{
    2a52:	df 93       	push	r29
    2a54:	cf 93       	push	r28
    2a56:	00 d0       	rcall	.+0      	; 0x2a58 <DIO_enuSetPortVal+0x6>
    2a58:	00 d0       	rcall	.+0      	; 0x2a5a <DIO_enuSetPortVal+0x8>
    2a5a:	0f 92       	push	r0
    2a5c:	cd b7       	in	r28, 0x3d	; 61
    2a5e:	de b7       	in	r29, 0x3e	; 62
    2a60:	8a 83       	std	Y+2, r24	; 0x02
    2a62:	6b 83       	std	Y+3, r22	; 0x03
	ES_t Local_enuErrorState = ES_NOK;
    2a64:	81 e0       	ldi	r24, 0x01	; 1
    2a66:	89 83       	std	Y+1, r24	; 0x01
	
	if(Copy_u8PortID <= DIO_PORTD)
    2a68:	8a 81       	ldd	r24, Y+2	; 0x02
    2a6a:	84 30       	cpi	r24, 0x04	; 4
    2a6c:	a0 f5       	brcc	.+104    	; 0x2ad6 <DIO_enuSetPortVal+0x84>
	{
		switch(Copy_u8PortID)
    2a6e:	8a 81       	ldd	r24, Y+2	; 0x02
    2a70:	28 2f       	mov	r18, r24
    2a72:	30 e0       	ldi	r19, 0x00	; 0
    2a74:	3d 83       	std	Y+5, r19	; 0x05
    2a76:	2c 83       	std	Y+4, r18	; 0x04
    2a78:	8c 81       	ldd	r24, Y+4	; 0x04
    2a7a:	9d 81       	ldd	r25, Y+5	; 0x05
    2a7c:	81 30       	cpi	r24, 0x01	; 1
    2a7e:	91 05       	cpc	r25, r1
    2a80:	d1 f0       	breq	.+52     	; 0x2ab6 <DIO_enuSetPortVal+0x64>
    2a82:	2c 81       	ldd	r18, Y+4	; 0x04
    2a84:	3d 81       	ldd	r19, Y+5	; 0x05
    2a86:	22 30       	cpi	r18, 0x02	; 2
    2a88:	31 05       	cpc	r19, r1
    2a8a:	2c f4       	brge	.+10     	; 0x2a96 <DIO_enuSetPortVal+0x44>
    2a8c:	8c 81       	ldd	r24, Y+4	; 0x04
    2a8e:	9d 81       	ldd	r25, Y+5	; 0x05
    2a90:	00 97       	sbiw	r24, 0x00	; 0
    2a92:	61 f0       	breq	.+24     	; 0x2aac <DIO_enuSetPortVal+0x5a>
    2a94:	1e c0       	rjmp	.+60     	; 0x2ad2 <DIO_enuSetPortVal+0x80>
    2a96:	2c 81       	ldd	r18, Y+4	; 0x04
    2a98:	3d 81       	ldd	r19, Y+5	; 0x05
    2a9a:	22 30       	cpi	r18, 0x02	; 2
    2a9c:	31 05       	cpc	r19, r1
    2a9e:	81 f0       	breq	.+32     	; 0x2ac0 <DIO_enuSetPortVal+0x6e>
    2aa0:	8c 81       	ldd	r24, Y+4	; 0x04
    2aa2:	9d 81       	ldd	r25, Y+5	; 0x05
    2aa4:	83 30       	cpi	r24, 0x03	; 3
    2aa6:	91 05       	cpc	r25, r1
    2aa8:	81 f0       	breq	.+32     	; 0x2aca <DIO_enuSetPortVal+0x78>
    2aaa:	13 c0       	rjmp	.+38     	; 0x2ad2 <DIO_enuSetPortVal+0x80>
		{
			case DIO_PORTA:
			PORTA = Copy_u8Value;
    2aac:	eb e3       	ldi	r30, 0x3B	; 59
    2aae:	f0 e0       	ldi	r31, 0x00	; 0
    2ab0:	8b 81       	ldd	r24, Y+3	; 0x03
    2ab2:	80 83       	st	Z, r24
    2ab4:	0e c0       	rjmp	.+28     	; 0x2ad2 <DIO_enuSetPortVal+0x80>
			break;
			
			case DIO_PORTB:
			PORTB = Copy_u8Value;
    2ab6:	e8 e3       	ldi	r30, 0x38	; 56
    2ab8:	f0 e0       	ldi	r31, 0x00	; 0
    2aba:	8b 81       	ldd	r24, Y+3	; 0x03
    2abc:	80 83       	st	Z, r24
    2abe:	09 c0       	rjmp	.+18     	; 0x2ad2 <DIO_enuSetPortVal+0x80>
			break;
			
			case DIO_PORTC:
			PORTC = Copy_u8Value;
    2ac0:	e5 e3       	ldi	r30, 0x35	; 53
    2ac2:	f0 e0       	ldi	r31, 0x00	; 0
    2ac4:	8b 81       	ldd	r24, Y+3	; 0x03
    2ac6:	80 83       	st	Z, r24
    2ac8:	04 c0       	rjmp	.+8      	; 0x2ad2 <DIO_enuSetPortVal+0x80>
			break;
			
			case DIO_PORTD:
			PORTD = Copy_u8Value;
    2aca:	e2 e3       	ldi	r30, 0x32	; 50
    2acc:	f0 e0       	ldi	r31, 0x00	; 0
    2ace:	8b 81       	ldd	r24, Y+3	; 0x03
    2ad0:	80 83       	st	Z, r24
			break;
		}
		Local_enuErrorState = ES_OK;
    2ad2:	19 82       	std	Y+1, r1	; 0x01
    2ad4:	02 c0       	rjmp	.+4      	; 0x2ada <DIO_enuSetPortVal+0x88>
	}
	else
	{
		Local_enuErrorState = ES_OUT_OF_RANGE;
    2ad6:	83 e0       	ldi	r24, 0x03	; 3
    2ad8:	89 83       	std	Y+1, r24	; 0x01
	}
	
	return Local_enuErrorState;
    2ada:	89 81       	ldd	r24, Y+1	; 0x01
}
    2adc:	0f 90       	pop	r0
    2ade:	0f 90       	pop	r0
    2ae0:	0f 90       	pop	r0
    2ae2:	0f 90       	pop	r0
    2ae4:	0f 90       	pop	r0
    2ae6:	cf 91       	pop	r28
    2ae8:	df 91       	pop	r29
    2aea:	08 95       	ret

00002aec <DIO_enuGetPortVal>:
 * @retval		: ES_t --> it returns the state of excution of this function
 * @note		: none
 ******************************************************************************
**/
ES_t DIO_enuGetPortVal(u8 Copy_u8PortID, u8 *Copy_pu8Value)
{
    2aec:	df 93       	push	r29
    2aee:	cf 93       	push	r28
    2af0:	00 d0       	rcall	.+0      	; 0x2af2 <DIO_enuGetPortVal+0x6>
    2af2:	00 d0       	rcall	.+0      	; 0x2af4 <DIO_enuGetPortVal+0x8>
    2af4:	00 d0       	rcall	.+0      	; 0x2af6 <DIO_enuGetPortVal+0xa>
    2af6:	cd b7       	in	r28, 0x3d	; 61
    2af8:	de b7       	in	r29, 0x3e	; 62
    2afa:	8a 83       	std	Y+2, r24	; 0x02
    2afc:	7c 83       	std	Y+4, r23	; 0x04
    2afe:	6b 83       	std	Y+3, r22	; 0x03
	ES_t Local_enuErrorState = ES_NOK;
    2b00:	81 e0       	ldi	r24, 0x01	; 1
    2b02:	89 83       	std	Y+1, r24	; 0x01
	
	if(Copy_u8PortID <= DIO_PORTD)
    2b04:	8a 81       	ldd	r24, Y+2	; 0x02
    2b06:	84 30       	cpi	r24, 0x04	; 4
    2b08:	08 f0       	brcs	.+2      	; 0x2b0c <DIO_enuGetPortVal+0x20>
    2b0a:	43 c0       	rjmp	.+134    	; 0x2b92 <DIO_enuGetPortVal+0xa6>
	{
		if(Copy_pu8Value != NULL)
    2b0c:	8b 81       	ldd	r24, Y+3	; 0x03
    2b0e:	9c 81       	ldd	r25, Y+4	; 0x04
    2b10:	00 97       	sbiw	r24, 0x00	; 0
    2b12:	e1 f1       	breq	.+120    	; 0x2b8c <DIO_enuGetPortVal+0xa0>
		{
			switch(Copy_u8PortID)
    2b14:	8a 81       	ldd	r24, Y+2	; 0x02
    2b16:	28 2f       	mov	r18, r24
    2b18:	30 e0       	ldi	r19, 0x00	; 0
    2b1a:	3e 83       	std	Y+6, r19	; 0x06
    2b1c:	2d 83       	std	Y+5, r18	; 0x05
    2b1e:	8d 81       	ldd	r24, Y+5	; 0x05
    2b20:	9e 81       	ldd	r25, Y+6	; 0x06
    2b22:	81 30       	cpi	r24, 0x01	; 1
    2b24:	91 05       	cpc	r25, r1
    2b26:	e1 f0       	breq	.+56     	; 0x2b60 <DIO_enuGetPortVal+0x74>
    2b28:	2d 81       	ldd	r18, Y+5	; 0x05
    2b2a:	3e 81       	ldd	r19, Y+6	; 0x06
    2b2c:	22 30       	cpi	r18, 0x02	; 2
    2b2e:	31 05       	cpc	r19, r1
    2b30:	2c f4       	brge	.+10     	; 0x2b3c <DIO_enuGetPortVal+0x50>
    2b32:	8d 81       	ldd	r24, Y+5	; 0x05
    2b34:	9e 81       	ldd	r25, Y+6	; 0x06
    2b36:	00 97       	sbiw	r24, 0x00	; 0
    2b38:	61 f0       	breq	.+24     	; 0x2b52 <DIO_enuGetPortVal+0x66>
    2b3a:	26 c0       	rjmp	.+76     	; 0x2b88 <DIO_enuGetPortVal+0x9c>
    2b3c:	2d 81       	ldd	r18, Y+5	; 0x05
    2b3e:	3e 81       	ldd	r19, Y+6	; 0x06
    2b40:	22 30       	cpi	r18, 0x02	; 2
    2b42:	31 05       	cpc	r19, r1
    2b44:	a1 f0       	breq	.+40     	; 0x2b6e <DIO_enuGetPortVal+0x82>
    2b46:	8d 81       	ldd	r24, Y+5	; 0x05
    2b48:	9e 81       	ldd	r25, Y+6	; 0x06
    2b4a:	83 30       	cpi	r24, 0x03	; 3
    2b4c:	91 05       	cpc	r25, r1
    2b4e:	b1 f0       	breq	.+44     	; 0x2b7c <DIO_enuGetPortVal+0x90>
    2b50:	1b c0       	rjmp	.+54     	; 0x2b88 <DIO_enuGetPortVal+0x9c>
			{
				case DIO_PORTA:
				*Copy_pu8Value = PINA;
    2b52:	e9 e3       	ldi	r30, 0x39	; 57
    2b54:	f0 e0       	ldi	r31, 0x00	; 0
    2b56:	80 81       	ld	r24, Z
    2b58:	eb 81       	ldd	r30, Y+3	; 0x03
    2b5a:	fc 81       	ldd	r31, Y+4	; 0x04
    2b5c:	80 83       	st	Z, r24
    2b5e:	14 c0       	rjmp	.+40     	; 0x2b88 <DIO_enuGetPortVal+0x9c>
				break;
				
				case DIO_PORTB:
				*Copy_pu8Value = PINB;
    2b60:	e6 e3       	ldi	r30, 0x36	; 54
    2b62:	f0 e0       	ldi	r31, 0x00	; 0
    2b64:	80 81       	ld	r24, Z
    2b66:	eb 81       	ldd	r30, Y+3	; 0x03
    2b68:	fc 81       	ldd	r31, Y+4	; 0x04
    2b6a:	80 83       	st	Z, r24
    2b6c:	0d c0       	rjmp	.+26     	; 0x2b88 <DIO_enuGetPortVal+0x9c>
				break;
				
				case DIO_PORTC:
				*Copy_pu8Value = PINC;
    2b6e:	e3 e3       	ldi	r30, 0x33	; 51
    2b70:	f0 e0       	ldi	r31, 0x00	; 0
    2b72:	80 81       	ld	r24, Z
    2b74:	eb 81       	ldd	r30, Y+3	; 0x03
    2b76:	fc 81       	ldd	r31, Y+4	; 0x04
    2b78:	80 83       	st	Z, r24
    2b7a:	06 c0       	rjmp	.+12     	; 0x2b88 <DIO_enuGetPortVal+0x9c>
				break;
				
				case DIO_PORTD:
				*Copy_pu8Value = PIND;
    2b7c:	e0 e3       	ldi	r30, 0x30	; 48
    2b7e:	f0 e0       	ldi	r31, 0x00	; 0
    2b80:	80 81       	ld	r24, Z
    2b82:	eb 81       	ldd	r30, Y+3	; 0x03
    2b84:	fc 81       	ldd	r31, Y+4	; 0x04
    2b86:	80 83       	st	Z, r24
				break;
			}
			Local_enuErrorState = ES_OK;
    2b88:	19 82       	std	Y+1, r1	; 0x01
    2b8a:	05 c0       	rjmp	.+10     	; 0x2b96 <DIO_enuGetPortVal+0xaa>
		}
		else
		{
			Local_enuErrorState = ES_NULL_POINTER;
    2b8c:	82 e0       	ldi	r24, 0x02	; 2
    2b8e:	89 83       	std	Y+1, r24	; 0x01
    2b90:	02 c0       	rjmp	.+4      	; 0x2b96 <DIO_enuGetPortVal+0xaa>
		}
	}
	else
	{
		Local_enuErrorState = ES_OUT_OF_RANGE;
    2b92:	83 e0       	ldi	r24, 0x03	; 3
    2b94:	89 83       	std	Y+1, r24	; 0x01
	}
	
	return Local_enuErrorState;
    2b96:	89 81       	ldd	r24, Y+1	; 0x01
}
    2b98:	26 96       	adiw	r28, 0x06	; 6
    2b9a:	0f b6       	in	r0, 0x3f	; 63
    2b9c:	f8 94       	cli
    2b9e:	de bf       	out	0x3e, r29	; 62
    2ba0:	0f be       	out	0x3f, r0	; 63
    2ba2:	cd bf       	out	0x3d, r28	; 61
    2ba4:	cf 91       	pop	r28
    2ba6:	df 91       	pop	r29
    2ba8:	08 95       	ret

00002baa <DIO_enuTogPortVal>:
 * @retval		: ES_t --> it returns the state of excution of this function
 * @note		: none
 ******************************************************************************
**/
ES_t DIO_enuTogPortVal(u8 Copy_u8PortID)
{
    2baa:	df 93       	push	r29
    2bac:	cf 93       	push	r28
    2bae:	00 d0       	rcall	.+0      	; 0x2bb0 <DIO_enuTogPortVal+0x6>
    2bb0:	00 d0       	rcall	.+0      	; 0x2bb2 <DIO_enuTogPortVal+0x8>
    2bb2:	cd b7       	in	r28, 0x3d	; 61
    2bb4:	de b7       	in	r29, 0x3e	; 62
    2bb6:	8a 83       	std	Y+2, r24	; 0x02
	ES_t Local_enuErrorState = ES_NOK;
    2bb8:	81 e0       	ldi	r24, 0x01	; 1
    2bba:	89 83       	std	Y+1, r24	; 0x01
	
	if(Copy_u8PortID <= DIO_PORTD)
    2bbc:	8a 81       	ldd	r24, Y+2	; 0x02
    2bbe:	84 30       	cpi	r24, 0x04	; 4
    2bc0:	08 f0       	brcs	.+2      	; 0x2bc4 <DIO_enuTogPortVal+0x1a>
    2bc2:	40 c0       	rjmp	.+128    	; 0x2c44 <DIO_enuTogPortVal+0x9a>
	{
		switch(Copy_u8PortID)
    2bc4:	8a 81       	ldd	r24, Y+2	; 0x02
    2bc6:	28 2f       	mov	r18, r24
    2bc8:	30 e0       	ldi	r19, 0x00	; 0
    2bca:	3c 83       	std	Y+4, r19	; 0x04
    2bcc:	2b 83       	std	Y+3, r18	; 0x03
    2bce:	8b 81       	ldd	r24, Y+3	; 0x03
    2bd0:	9c 81       	ldd	r25, Y+4	; 0x04
    2bd2:	81 30       	cpi	r24, 0x01	; 1
    2bd4:	91 05       	cpc	r25, r1
    2bd6:	e9 f0       	breq	.+58     	; 0x2c12 <DIO_enuTogPortVal+0x68>
    2bd8:	2b 81       	ldd	r18, Y+3	; 0x03
    2bda:	3c 81       	ldd	r19, Y+4	; 0x04
    2bdc:	22 30       	cpi	r18, 0x02	; 2
    2bde:	31 05       	cpc	r19, r1
    2be0:	2c f4       	brge	.+10     	; 0x2bec <DIO_enuTogPortVal+0x42>
    2be2:	8b 81       	ldd	r24, Y+3	; 0x03
    2be4:	9c 81       	ldd	r25, Y+4	; 0x04
    2be6:	00 97       	sbiw	r24, 0x00	; 0
    2be8:	61 f0       	breq	.+24     	; 0x2c02 <DIO_enuTogPortVal+0x58>
    2bea:	2a c0       	rjmp	.+84     	; 0x2c40 <DIO_enuTogPortVal+0x96>
    2bec:	2b 81       	ldd	r18, Y+3	; 0x03
    2bee:	3c 81       	ldd	r19, Y+4	; 0x04
    2bf0:	22 30       	cpi	r18, 0x02	; 2
    2bf2:	31 05       	cpc	r19, r1
    2bf4:	b1 f0       	breq	.+44     	; 0x2c22 <DIO_enuTogPortVal+0x78>
    2bf6:	8b 81       	ldd	r24, Y+3	; 0x03
    2bf8:	9c 81       	ldd	r25, Y+4	; 0x04
    2bfa:	83 30       	cpi	r24, 0x03	; 3
    2bfc:	91 05       	cpc	r25, r1
    2bfe:	c9 f0       	breq	.+50     	; 0x2c32 <DIO_enuTogPortVal+0x88>
    2c00:	1f c0       	rjmp	.+62     	; 0x2c40 <DIO_enuTogPortVal+0x96>
		{
			case DIO_PORTA:
			PORTA = ~PORTA;
    2c02:	ab e3       	ldi	r26, 0x3B	; 59
    2c04:	b0 e0       	ldi	r27, 0x00	; 0
    2c06:	eb e3       	ldi	r30, 0x3B	; 59
    2c08:	f0 e0       	ldi	r31, 0x00	; 0
    2c0a:	80 81       	ld	r24, Z
    2c0c:	80 95       	com	r24
    2c0e:	8c 93       	st	X, r24
    2c10:	17 c0       	rjmp	.+46     	; 0x2c40 <DIO_enuTogPortVal+0x96>
			break;
			
			case DIO_PORTB:
			PORTB = ~PORTB;
    2c12:	a8 e3       	ldi	r26, 0x38	; 56
    2c14:	b0 e0       	ldi	r27, 0x00	; 0
    2c16:	e8 e3       	ldi	r30, 0x38	; 56
    2c18:	f0 e0       	ldi	r31, 0x00	; 0
    2c1a:	80 81       	ld	r24, Z
    2c1c:	80 95       	com	r24
    2c1e:	8c 93       	st	X, r24
    2c20:	0f c0       	rjmp	.+30     	; 0x2c40 <DIO_enuTogPortVal+0x96>
			break;
			
			case DIO_PORTC:
			PORTC = ~PORTC;
    2c22:	a5 e3       	ldi	r26, 0x35	; 53
    2c24:	b0 e0       	ldi	r27, 0x00	; 0
    2c26:	e5 e3       	ldi	r30, 0x35	; 53
    2c28:	f0 e0       	ldi	r31, 0x00	; 0
    2c2a:	80 81       	ld	r24, Z
    2c2c:	80 95       	com	r24
    2c2e:	8c 93       	st	X, r24
    2c30:	07 c0       	rjmp	.+14     	; 0x2c40 <DIO_enuTogPortVal+0x96>
			break;
			
			case DIO_PORTD:
			PORTD = ~PORTD;
    2c32:	a2 e3       	ldi	r26, 0x32	; 50
    2c34:	b0 e0       	ldi	r27, 0x00	; 0
    2c36:	e2 e3       	ldi	r30, 0x32	; 50
    2c38:	f0 e0       	ldi	r31, 0x00	; 0
    2c3a:	80 81       	ld	r24, Z
    2c3c:	80 95       	com	r24
    2c3e:	8c 93       	st	X, r24
			break;
		}
		Local_enuErrorState = ES_OK;
    2c40:	19 82       	std	Y+1, r1	; 0x01
    2c42:	02 c0       	rjmp	.+4      	; 0x2c48 <DIO_enuTogPortVal+0x9e>
	}
	else
	{
		Local_enuErrorState = ES_OUT_OF_RANGE;
    2c44:	83 e0       	ldi	r24, 0x03	; 3
    2c46:	89 83       	std	Y+1, r24	; 0x01
	}
	
	return Local_enuErrorState;
    2c48:	89 81       	ldd	r24, Y+1	; 0x01
}
    2c4a:	0f 90       	pop	r0
    2c4c:	0f 90       	pop	r0
    2c4e:	0f 90       	pop	r0
    2c50:	0f 90       	pop	r0
    2c52:	cf 91       	pop	r28
    2c54:	df 91       	pop	r29
    2c56:	08 95       	ret

00002c58 <DIO_enuSetPinDirection>:
 * @retval		: ES_t --> it returns the state of excution of this function
 * @note		: none
 ******************************************************************************
**/
ES_t DIO_enuSetPinDirection(u8 Copy_u8PortID, u8 Copy_u8PinID, u8 Copy_u8Value)
{
    2c58:	df 93       	push	r29
    2c5a:	cf 93       	push	r28
    2c5c:	00 d0       	rcall	.+0      	; 0x2c5e <DIO_enuSetPinDirection+0x6>
    2c5e:	00 d0       	rcall	.+0      	; 0x2c60 <DIO_enuSetPinDirection+0x8>
    2c60:	00 d0       	rcall	.+0      	; 0x2c62 <DIO_enuSetPinDirection+0xa>
    2c62:	cd b7       	in	r28, 0x3d	; 61
    2c64:	de b7       	in	r29, 0x3e	; 62
    2c66:	8a 83       	std	Y+2, r24	; 0x02
    2c68:	6b 83       	std	Y+3, r22	; 0x03
    2c6a:	4c 83       	std	Y+4, r20	; 0x04
	ES_t Local_enuErrorState = ES_NOK;
    2c6c:	81 e0       	ldi	r24, 0x01	; 1
    2c6e:	89 83       	std	Y+1, r24	; 0x01
	
	if(Copy_u8PortID <= DIO_PORTD && Copy_u8PinID <= DIO_PIN7 && Copy_u8Value <= OUTPUT)
    2c70:	8a 81       	ldd	r24, Y+2	; 0x02
    2c72:	84 30       	cpi	r24, 0x04	; 4
    2c74:	08 f0       	brcs	.+2      	; 0x2c78 <DIO_enuSetPinDirection+0x20>
    2c76:	d0 c0       	rjmp	.+416    	; 0x2e18 <DIO_enuSetPinDirection+0x1c0>
    2c78:	8b 81       	ldd	r24, Y+3	; 0x03
    2c7a:	88 30       	cpi	r24, 0x08	; 8
    2c7c:	08 f0       	brcs	.+2      	; 0x2c80 <DIO_enuSetPinDirection+0x28>
    2c7e:	cc c0       	rjmp	.+408    	; 0x2e18 <DIO_enuSetPinDirection+0x1c0>
    2c80:	8c 81       	ldd	r24, Y+4	; 0x04
    2c82:	82 30       	cpi	r24, 0x02	; 2
    2c84:	08 f0       	brcs	.+2      	; 0x2c88 <DIO_enuSetPinDirection+0x30>
    2c86:	c8 c0       	rjmp	.+400    	; 0x2e18 <DIO_enuSetPinDirection+0x1c0>
	{
		switch(Copy_u8PortID)
    2c88:	8a 81       	ldd	r24, Y+2	; 0x02
    2c8a:	28 2f       	mov	r18, r24
    2c8c:	30 e0       	ldi	r19, 0x00	; 0
    2c8e:	3e 83       	std	Y+6, r19	; 0x06
    2c90:	2d 83       	std	Y+5, r18	; 0x05
    2c92:	6d 81       	ldd	r22, Y+5	; 0x05
    2c94:	7e 81       	ldd	r23, Y+6	; 0x06
    2c96:	61 30       	cpi	r22, 0x01	; 1
    2c98:	71 05       	cpc	r23, r1
    2c9a:	09 f4       	brne	.+2      	; 0x2c9e <DIO_enuSetPinDirection+0x46>
    2c9c:	41 c0       	rjmp	.+130    	; 0x2d20 <DIO_enuSetPinDirection+0xc8>
    2c9e:	8d 81       	ldd	r24, Y+5	; 0x05
    2ca0:	9e 81       	ldd	r25, Y+6	; 0x06
    2ca2:	82 30       	cpi	r24, 0x02	; 2
    2ca4:	91 05       	cpc	r25, r1
    2ca6:	34 f4       	brge	.+12     	; 0x2cb4 <DIO_enuSetPinDirection+0x5c>
    2ca8:	2d 81       	ldd	r18, Y+5	; 0x05
    2caa:	3e 81       	ldd	r19, Y+6	; 0x06
    2cac:	21 15       	cp	r18, r1
    2cae:	31 05       	cpc	r19, r1
    2cb0:	71 f0       	breq	.+28     	; 0x2cce <DIO_enuSetPinDirection+0x76>
    2cb2:	b0 c0       	rjmp	.+352    	; 0x2e14 <DIO_enuSetPinDirection+0x1bc>
    2cb4:	6d 81       	ldd	r22, Y+5	; 0x05
    2cb6:	7e 81       	ldd	r23, Y+6	; 0x06
    2cb8:	62 30       	cpi	r22, 0x02	; 2
    2cba:	71 05       	cpc	r23, r1
    2cbc:	09 f4       	brne	.+2      	; 0x2cc0 <DIO_enuSetPinDirection+0x68>
    2cbe:	59 c0       	rjmp	.+178    	; 0x2d72 <DIO_enuSetPinDirection+0x11a>
    2cc0:	8d 81       	ldd	r24, Y+5	; 0x05
    2cc2:	9e 81       	ldd	r25, Y+6	; 0x06
    2cc4:	83 30       	cpi	r24, 0x03	; 3
    2cc6:	91 05       	cpc	r25, r1
    2cc8:	09 f4       	brne	.+2      	; 0x2ccc <DIO_enuSetPinDirection+0x74>
    2cca:	7c c0       	rjmp	.+248    	; 0x2dc4 <DIO_enuSetPinDirection+0x16c>
    2ccc:	a3 c0       	rjmp	.+326    	; 0x2e14 <DIO_enuSetPinDirection+0x1bc>
		{
			case DIO_PORTA:
			DDRA &= ~(DIO_MASK_BIT << Copy_u8PinID);
    2cce:	aa e3       	ldi	r26, 0x3A	; 58
    2cd0:	b0 e0       	ldi	r27, 0x00	; 0
    2cd2:	ea e3       	ldi	r30, 0x3A	; 58
    2cd4:	f0 e0       	ldi	r31, 0x00	; 0
    2cd6:	80 81       	ld	r24, Z
    2cd8:	48 2f       	mov	r20, r24
    2cda:	8b 81       	ldd	r24, Y+3	; 0x03
    2cdc:	28 2f       	mov	r18, r24
    2cde:	30 e0       	ldi	r19, 0x00	; 0
    2ce0:	81 e0       	ldi	r24, 0x01	; 1
    2ce2:	90 e0       	ldi	r25, 0x00	; 0
    2ce4:	02 c0       	rjmp	.+4      	; 0x2cea <DIO_enuSetPinDirection+0x92>
    2ce6:	88 0f       	add	r24, r24
    2ce8:	99 1f       	adc	r25, r25
    2cea:	2a 95       	dec	r18
    2cec:	e2 f7       	brpl	.-8      	; 0x2ce6 <DIO_enuSetPinDirection+0x8e>
    2cee:	80 95       	com	r24
    2cf0:	84 23       	and	r24, r20
    2cf2:	8c 93       	st	X, r24
			DDRA |=  (Copy_u8Value << Copy_u8PinID);
    2cf4:	aa e3       	ldi	r26, 0x3A	; 58
    2cf6:	b0 e0       	ldi	r27, 0x00	; 0
    2cf8:	ea e3       	ldi	r30, 0x3A	; 58
    2cfa:	f0 e0       	ldi	r31, 0x00	; 0
    2cfc:	80 81       	ld	r24, Z
    2cfe:	48 2f       	mov	r20, r24
    2d00:	8c 81       	ldd	r24, Y+4	; 0x04
    2d02:	28 2f       	mov	r18, r24
    2d04:	30 e0       	ldi	r19, 0x00	; 0
    2d06:	8b 81       	ldd	r24, Y+3	; 0x03
    2d08:	88 2f       	mov	r24, r24
    2d0a:	90 e0       	ldi	r25, 0x00	; 0
    2d0c:	b9 01       	movw	r22, r18
    2d0e:	02 c0       	rjmp	.+4      	; 0x2d14 <DIO_enuSetPinDirection+0xbc>
    2d10:	66 0f       	add	r22, r22
    2d12:	77 1f       	adc	r23, r23
    2d14:	8a 95       	dec	r24
    2d16:	e2 f7       	brpl	.-8      	; 0x2d10 <DIO_enuSetPinDirection+0xb8>
    2d18:	cb 01       	movw	r24, r22
    2d1a:	84 2b       	or	r24, r20
    2d1c:	8c 93       	st	X, r24
    2d1e:	7a c0       	rjmp	.+244    	; 0x2e14 <DIO_enuSetPinDirection+0x1bc>
			break;
			
			case DIO_PORTB:
			DDRB &= ~(DIO_MASK_BIT << Copy_u8PinID);
    2d20:	a7 e3       	ldi	r26, 0x37	; 55
    2d22:	b0 e0       	ldi	r27, 0x00	; 0
    2d24:	e7 e3       	ldi	r30, 0x37	; 55
    2d26:	f0 e0       	ldi	r31, 0x00	; 0
    2d28:	80 81       	ld	r24, Z
    2d2a:	48 2f       	mov	r20, r24
    2d2c:	8b 81       	ldd	r24, Y+3	; 0x03
    2d2e:	28 2f       	mov	r18, r24
    2d30:	30 e0       	ldi	r19, 0x00	; 0
    2d32:	81 e0       	ldi	r24, 0x01	; 1
    2d34:	90 e0       	ldi	r25, 0x00	; 0
    2d36:	02 c0       	rjmp	.+4      	; 0x2d3c <DIO_enuSetPinDirection+0xe4>
    2d38:	88 0f       	add	r24, r24
    2d3a:	99 1f       	adc	r25, r25
    2d3c:	2a 95       	dec	r18
    2d3e:	e2 f7       	brpl	.-8      	; 0x2d38 <DIO_enuSetPinDirection+0xe0>
    2d40:	80 95       	com	r24
    2d42:	84 23       	and	r24, r20
    2d44:	8c 93       	st	X, r24
			DDRB |=  (Copy_u8Value << Copy_u8PinID);
    2d46:	a7 e3       	ldi	r26, 0x37	; 55
    2d48:	b0 e0       	ldi	r27, 0x00	; 0
    2d4a:	e7 e3       	ldi	r30, 0x37	; 55
    2d4c:	f0 e0       	ldi	r31, 0x00	; 0
    2d4e:	80 81       	ld	r24, Z
    2d50:	48 2f       	mov	r20, r24
    2d52:	8c 81       	ldd	r24, Y+4	; 0x04
    2d54:	28 2f       	mov	r18, r24
    2d56:	30 e0       	ldi	r19, 0x00	; 0
    2d58:	8b 81       	ldd	r24, Y+3	; 0x03
    2d5a:	88 2f       	mov	r24, r24
    2d5c:	90 e0       	ldi	r25, 0x00	; 0
    2d5e:	b9 01       	movw	r22, r18
    2d60:	02 c0       	rjmp	.+4      	; 0x2d66 <DIO_enuSetPinDirection+0x10e>
    2d62:	66 0f       	add	r22, r22
    2d64:	77 1f       	adc	r23, r23
    2d66:	8a 95       	dec	r24
    2d68:	e2 f7       	brpl	.-8      	; 0x2d62 <DIO_enuSetPinDirection+0x10a>
    2d6a:	cb 01       	movw	r24, r22
    2d6c:	84 2b       	or	r24, r20
    2d6e:	8c 93       	st	X, r24
    2d70:	51 c0       	rjmp	.+162    	; 0x2e14 <DIO_enuSetPinDirection+0x1bc>
			break;
			
			case DIO_PORTC:
			DDRC &= ~(DIO_MASK_BIT << Copy_u8PinID);
    2d72:	a4 e3       	ldi	r26, 0x34	; 52
    2d74:	b0 e0       	ldi	r27, 0x00	; 0
    2d76:	e4 e3       	ldi	r30, 0x34	; 52
    2d78:	f0 e0       	ldi	r31, 0x00	; 0
    2d7a:	80 81       	ld	r24, Z
    2d7c:	48 2f       	mov	r20, r24
    2d7e:	8b 81       	ldd	r24, Y+3	; 0x03
    2d80:	28 2f       	mov	r18, r24
    2d82:	30 e0       	ldi	r19, 0x00	; 0
    2d84:	81 e0       	ldi	r24, 0x01	; 1
    2d86:	90 e0       	ldi	r25, 0x00	; 0
    2d88:	02 c0       	rjmp	.+4      	; 0x2d8e <DIO_enuSetPinDirection+0x136>
    2d8a:	88 0f       	add	r24, r24
    2d8c:	99 1f       	adc	r25, r25
    2d8e:	2a 95       	dec	r18
    2d90:	e2 f7       	brpl	.-8      	; 0x2d8a <DIO_enuSetPinDirection+0x132>
    2d92:	80 95       	com	r24
    2d94:	84 23       	and	r24, r20
    2d96:	8c 93       	st	X, r24
			DDRC |=  (Copy_u8Value << Copy_u8PinID);
    2d98:	a4 e3       	ldi	r26, 0x34	; 52
    2d9a:	b0 e0       	ldi	r27, 0x00	; 0
    2d9c:	e4 e3       	ldi	r30, 0x34	; 52
    2d9e:	f0 e0       	ldi	r31, 0x00	; 0
    2da0:	80 81       	ld	r24, Z
    2da2:	48 2f       	mov	r20, r24
    2da4:	8c 81       	ldd	r24, Y+4	; 0x04
    2da6:	28 2f       	mov	r18, r24
    2da8:	30 e0       	ldi	r19, 0x00	; 0
    2daa:	8b 81       	ldd	r24, Y+3	; 0x03
    2dac:	88 2f       	mov	r24, r24
    2dae:	90 e0       	ldi	r25, 0x00	; 0
    2db0:	b9 01       	movw	r22, r18
    2db2:	02 c0       	rjmp	.+4      	; 0x2db8 <DIO_enuSetPinDirection+0x160>
    2db4:	66 0f       	add	r22, r22
    2db6:	77 1f       	adc	r23, r23
    2db8:	8a 95       	dec	r24
    2dba:	e2 f7       	brpl	.-8      	; 0x2db4 <DIO_enuSetPinDirection+0x15c>
    2dbc:	cb 01       	movw	r24, r22
    2dbe:	84 2b       	or	r24, r20
    2dc0:	8c 93       	st	X, r24
    2dc2:	28 c0       	rjmp	.+80     	; 0x2e14 <DIO_enuSetPinDirection+0x1bc>
			break;
			
			case DIO_PORTD:
			DDRD &= ~(DIO_MASK_BIT << Copy_u8PinID);
    2dc4:	a1 e3       	ldi	r26, 0x31	; 49
    2dc6:	b0 e0       	ldi	r27, 0x00	; 0
    2dc8:	e1 e3       	ldi	r30, 0x31	; 49
    2dca:	f0 e0       	ldi	r31, 0x00	; 0
    2dcc:	80 81       	ld	r24, Z
    2dce:	48 2f       	mov	r20, r24
    2dd0:	8b 81       	ldd	r24, Y+3	; 0x03
    2dd2:	28 2f       	mov	r18, r24
    2dd4:	30 e0       	ldi	r19, 0x00	; 0
    2dd6:	81 e0       	ldi	r24, 0x01	; 1
    2dd8:	90 e0       	ldi	r25, 0x00	; 0
    2dda:	02 c0       	rjmp	.+4      	; 0x2de0 <DIO_enuSetPinDirection+0x188>
    2ddc:	88 0f       	add	r24, r24
    2dde:	99 1f       	adc	r25, r25
    2de0:	2a 95       	dec	r18
    2de2:	e2 f7       	brpl	.-8      	; 0x2ddc <DIO_enuSetPinDirection+0x184>
    2de4:	80 95       	com	r24
    2de6:	84 23       	and	r24, r20
    2de8:	8c 93       	st	X, r24
			DDRD |=  (Copy_u8Value << Copy_u8PinID);
    2dea:	a1 e3       	ldi	r26, 0x31	; 49
    2dec:	b0 e0       	ldi	r27, 0x00	; 0
    2dee:	e1 e3       	ldi	r30, 0x31	; 49
    2df0:	f0 e0       	ldi	r31, 0x00	; 0
    2df2:	80 81       	ld	r24, Z
    2df4:	48 2f       	mov	r20, r24
    2df6:	8c 81       	ldd	r24, Y+4	; 0x04
    2df8:	28 2f       	mov	r18, r24
    2dfa:	30 e0       	ldi	r19, 0x00	; 0
    2dfc:	8b 81       	ldd	r24, Y+3	; 0x03
    2dfe:	88 2f       	mov	r24, r24
    2e00:	90 e0       	ldi	r25, 0x00	; 0
    2e02:	b9 01       	movw	r22, r18
    2e04:	02 c0       	rjmp	.+4      	; 0x2e0a <DIO_enuSetPinDirection+0x1b2>
    2e06:	66 0f       	add	r22, r22
    2e08:	77 1f       	adc	r23, r23
    2e0a:	8a 95       	dec	r24
    2e0c:	e2 f7       	brpl	.-8      	; 0x2e06 <DIO_enuSetPinDirection+0x1ae>
    2e0e:	cb 01       	movw	r24, r22
    2e10:	84 2b       	or	r24, r20
    2e12:	8c 93       	st	X, r24
			break;
		}
		Local_enuErrorState = ES_OK;
    2e14:	19 82       	std	Y+1, r1	; 0x01
    2e16:	02 c0       	rjmp	.+4      	; 0x2e1c <DIO_enuSetPinDirection+0x1c4>
	}
	else
	{
		Local_enuErrorState = ES_OUT_OF_RANGE;
    2e18:	83 e0       	ldi	r24, 0x03	; 3
    2e1a:	89 83       	std	Y+1, r24	; 0x01
	}
	
	return Local_enuErrorState;
    2e1c:	89 81       	ldd	r24, Y+1	; 0x01
}
    2e1e:	26 96       	adiw	r28, 0x06	; 6
    2e20:	0f b6       	in	r0, 0x3f	; 63
    2e22:	f8 94       	cli
    2e24:	de bf       	out	0x3e, r29	; 62
    2e26:	0f be       	out	0x3f, r0	; 63
    2e28:	cd bf       	out	0x3d, r28	; 61
    2e2a:	cf 91       	pop	r28
    2e2c:	df 91       	pop	r29
    2e2e:	08 95       	ret

00002e30 <DIO_enuSetPinVal>:
 * @retval		: ES_t --> it returns the state of excution of this function
 * @note		: none
 ******************************************************************************
**/
ES_t DIO_enuSetPinVal(u8 Copy_u8PortID, u8 Copy_u8PinID, u8 Copy_u8Value)
{
    2e30:	df 93       	push	r29
    2e32:	cf 93       	push	r28
    2e34:	00 d0       	rcall	.+0      	; 0x2e36 <DIO_enuSetPinVal+0x6>
    2e36:	00 d0       	rcall	.+0      	; 0x2e38 <DIO_enuSetPinVal+0x8>
    2e38:	00 d0       	rcall	.+0      	; 0x2e3a <DIO_enuSetPinVal+0xa>
    2e3a:	cd b7       	in	r28, 0x3d	; 61
    2e3c:	de b7       	in	r29, 0x3e	; 62
    2e3e:	8a 83       	std	Y+2, r24	; 0x02
    2e40:	6b 83       	std	Y+3, r22	; 0x03
    2e42:	4c 83       	std	Y+4, r20	; 0x04
	ES_t Local_enuErrorState = ES_NOK;
    2e44:	81 e0       	ldi	r24, 0x01	; 1
    2e46:	89 83       	std	Y+1, r24	; 0x01
	
	if(Copy_u8PortID <= DIO_PORTD && Copy_u8PinID <= DIO_PIN7 && Copy_u8Value <= OUTPUT)
    2e48:	8a 81       	ldd	r24, Y+2	; 0x02
    2e4a:	84 30       	cpi	r24, 0x04	; 4
    2e4c:	08 f0       	brcs	.+2      	; 0x2e50 <DIO_enuSetPinVal+0x20>
    2e4e:	d0 c0       	rjmp	.+416    	; 0x2ff0 <DIO_enuSetPinVal+0x1c0>
    2e50:	8b 81       	ldd	r24, Y+3	; 0x03
    2e52:	88 30       	cpi	r24, 0x08	; 8
    2e54:	08 f0       	brcs	.+2      	; 0x2e58 <DIO_enuSetPinVal+0x28>
    2e56:	cc c0       	rjmp	.+408    	; 0x2ff0 <DIO_enuSetPinVal+0x1c0>
    2e58:	8c 81       	ldd	r24, Y+4	; 0x04
    2e5a:	82 30       	cpi	r24, 0x02	; 2
    2e5c:	08 f0       	brcs	.+2      	; 0x2e60 <DIO_enuSetPinVal+0x30>
    2e5e:	c8 c0       	rjmp	.+400    	; 0x2ff0 <DIO_enuSetPinVal+0x1c0>
	{
		switch(Copy_u8PortID)
    2e60:	8a 81       	ldd	r24, Y+2	; 0x02
    2e62:	28 2f       	mov	r18, r24
    2e64:	30 e0       	ldi	r19, 0x00	; 0
    2e66:	3e 83       	std	Y+6, r19	; 0x06
    2e68:	2d 83       	std	Y+5, r18	; 0x05
    2e6a:	6d 81       	ldd	r22, Y+5	; 0x05
    2e6c:	7e 81       	ldd	r23, Y+6	; 0x06
    2e6e:	61 30       	cpi	r22, 0x01	; 1
    2e70:	71 05       	cpc	r23, r1
    2e72:	09 f4       	brne	.+2      	; 0x2e76 <DIO_enuSetPinVal+0x46>
    2e74:	41 c0       	rjmp	.+130    	; 0x2ef8 <DIO_enuSetPinVal+0xc8>
    2e76:	8d 81       	ldd	r24, Y+5	; 0x05
    2e78:	9e 81       	ldd	r25, Y+6	; 0x06
    2e7a:	82 30       	cpi	r24, 0x02	; 2
    2e7c:	91 05       	cpc	r25, r1
    2e7e:	34 f4       	brge	.+12     	; 0x2e8c <DIO_enuSetPinVal+0x5c>
    2e80:	2d 81       	ldd	r18, Y+5	; 0x05
    2e82:	3e 81       	ldd	r19, Y+6	; 0x06
    2e84:	21 15       	cp	r18, r1
    2e86:	31 05       	cpc	r19, r1
    2e88:	71 f0       	breq	.+28     	; 0x2ea6 <DIO_enuSetPinVal+0x76>
    2e8a:	b0 c0       	rjmp	.+352    	; 0x2fec <DIO_enuSetPinVal+0x1bc>
    2e8c:	6d 81       	ldd	r22, Y+5	; 0x05
    2e8e:	7e 81       	ldd	r23, Y+6	; 0x06
    2e90:	62 30       	cpi	r22, 0x02	; 2
    2e92:	71 05       	cpc	r23, r1
    2e94:	09 f4       	brne	.+2      	; 0x2e98 <DIO_enuSetPinVal+0x68>
    2e96:	59 c0       	rjmp	.+178    	; 0x2f4a <DIO_enuSetPinVal+0x11a>
    2e98:	8d 81       	ldd	r24, Y+5	; 0x05
    2e9a:	9e 81       	ldd	r25, Y+6	; 0x06
    2e9c:	83 30       	cpi	r24, 0x03	; 3
    2e9e:	91 05       	cpc	r25, r1
    2ea0:	09 f4       	brne	.+2      	; 0x2ea4 <DIO_enuSetPinVal+0x74>
    2ea2:	7c c0       	rjmp	.+248    	; 0x2f9c <DIO_enuSetPinVal+0x16c>
    2ea4:	a3 c0       	rjmp	.+326    	; 0x2fec <DIO_enuSetPinVal+0x1bc>
		{
			case DIO_PORTA:
			PORTA &= ~(DIO_MASK_BIT << Copy_u8PinID);
    2ea6:	ab e3       	ldi	r26, 0x3B	; 59
    2ea8:	b0 e0       	ldi	r27, 0x00	; 0
    2eaa:	eb e3       	ldi	r30, 0x3B	; 59
    2eac:	f0 e0       	ldi	r31, 0x00	; 0
    2eae:	80 81       	ld	r24, Z
    2eb0:	48 2f       	mov	r20, r24
    2eb2:	8b 81       	ldd	r24, Y+3	; 0x03
    2eb4:	28 2f       	mov	r18, r24
    2eb6:	30 e0       	ldi	r19, 0x00	; 0
    2eb8:	81 e0       	ldi	r24, 0x01	; 1
    2eba:	90 e0       	ldi	r25, 0x00	; 0
    2ebc:	02 c0       	rjmp	.+4      	; 0x2ec2 <DIO_enuSetPinVal+0x92>
    2ebe:	88 0f       	add	r24, r24
    2ec0:	99 1f       	adc	r25, r25
    2ec2:	2a 95       	dec	r18
    2ec4:	e2 f7       	brpl	.-8      	; 0x2ebe <DIO_enuSetPinVal+0x8e>
    2ec6:	80 95       	com	r24
    2ec8:	84 23       	and	r24, r20
    2eca:	8c 93       	st	X, r24
			PORTA |=  (Copy_u8Value << Copy_u8PinID);
    2ecc:	ab e3       	ldi	r26, 0x3B	; 59
    2ece:	b0 e0       	ldi	r27, 0x00	; 0
    2ed0:	eb e3       	ldi	r30, 0x3B	; 59
    2ed2:	f0 e0       	ldi	r31, 0x00	; 0
    2ed4:	80 81       	ld	r24, Z
    2ed6:	48 2f       	mov	r20, r24
    2ed8:	8c 81       	ldd	r24, Y+4	; 0x04
    2eda:	28 2f       	mov	r18, r24
    2edc:	30 e0       	ldi	r19, 0x00	; 0
    2ede:	8b 81       	ldd	r24, Y+3	; 0x03
    2ee0:	88 2f       	mov	r24, r24
    2ee2:	90 e0       	ldi	r25, 0x00	; 0
    2ee4:	b9 01       	movw	r22, r18
    2ee6:	02 c0       	rjmp	.+4      	; 0x2eec <DIO_enuSetPinVal+0xbc>
    2ee8:	66 0f       	add	r22, r22
    2eea:	77 1f       	adc	r23, r23
    2eec:	8a 95       	dec	r24
    2eee:	e2 f7       	brpl	.-8      	; 0x2ee8 <DIO_enuSetPinVal+0xb8>
    2ef0:	cb 01       	movw	r24, r22
    2ef2:	84 2b       	or	r24, r20
    2ef4:	8c 93       	st	X, r24
    2ef6:	7a c0       	rjmp	.+244    	; 0x2fec <DIO_enuSetPinVal+0x1bc>
			break;
			
			case DIO_PORTB:
			PORTB &= ~(DIO_MASK_BIT << Copy_u8PinID);
    2ef8:	a8 e3       	ldi	r26, 0x38	; 56
    2efa:	b0 e0       	ldi	r27, 0x00	; 0
    2efc:	e8 e3       	ldi	r30, 0x38	; 56
    2efe:	f0 e0       	ldi	r31, 0x00	; 0
    2f00:	80 81       	ld	r24, Z
    2f02:	48 2f       	mov	r20, r24
    2f04:	8b 81       	ldd	r24, Y+3	; 0x03
    2f06:	28 2f       	mov	r18, r24
    2f08:	30 e0       	ldi	r19, 0x00	; 0
    2f0a:	81 e0       	ldi	r24, 0x01	; 1
    2f0c:	90 e0       	ldi	r25, 0x00	; 0
    2f0e:	02 c0       	rjmp	.+4      	; 0x2f14 <DIO_enuSetPinVal+0xe4>
    2f10:	88 0f       	add	r24, r24
    2f12:	99 1f       	adc	r25, r25
    2f14:	2a 95       	dec	r18
    2f16:	e2 f7       	brpl	.-8      	; 0x2f10 <DIO_enuSetPinVal+0xe0>
    2f18:	80 95       	com	r24
    2f1a:	84 23       	and	r24, r20
    2f1c:	8c 93       	st	X, r24
			PORTB |=  (Copy_u8Value << Copy_u8PinID);
    2f1e:	a8 e3       	ldi	r26, 0x38	; 56
    2f20:	b0 e0       	ldi	r27, 0x00	; 0
    2f22:	e8 e3       	ldi	r30, 0x38	; 56
    2f24:	f0 e0       	ldi	r31, 0x00	; 0
    2f26:	80 81       	ld	r24, Z
    2f28:	48 2f       	mov	r20, r24
    2f2a:	8c 81       	ldd	r24, Y+4	; 0x04
    2f2c:	28 2f       	mov	r18, r24
    2f2e:	30 e0       	ldi	r19, 0x00	; 0
    2f30:	8b 81       	ldd	r24, Y+3	; 0x03
    2f32:	88 2f       	mov	r24, r24
    2f34:	90 e0       	ldi	r25, 0x00	; 0
    2f36:	b9 01       	movw	r22, r18
    2f38:	02 c0       	rjmp	.+4      	; 0x2f3e <DIO_enuSetPinVal+0x10e>
    2f3a:	66 0f       	add	r22, r22
    2f3c:	77 1f       	adc	r23, r23
    2f3e:	8a 95       	dec	r24
    2f40:	e2 f7       	brpl	.-8      	; 0x2f3a <DIO_enuSetPinVal+0x10a>
    2f42:	cb 01       	movw	r24, r22
    2f44:	84 2b       	or	r24, r20
    2f46:	8c 93       	st	X, r24
    2f48:	51 c0       	rjmp	.+162    	; 0x2fec <DIO_enuSetPinVal+0x1bc>
			break;
			
			case DIO_PORTC:
			PORTC &= ~(DIO_MASK_BIT << Copy_u8PinID);
    2f4a:	a5 e3       	ldi	r26, 0x35	; 53
    2f4c:	b0 e0       	ldi	r27, 0x00	; 0
    2f4e:	e5 e3       	ldi	r30, 0x35	; 53
    2f50:	f0 e0       	ldi	r31, 0x00	; 0
    2f52:	80 81       	ld	r24, Z
    2f54:	48 2f       	mov	r20, r24
    2f56:	8b 81       	ldd	r24, Y+3	; 0x03
    2f58:	28 2f       	mov	r18, r24
    2f5a:	30 e0       	ldi	r19, 0x00	; 0
    2f5c:	81 e0       	ldi	r24, 0x01	; 1
    2f5e:	90 e0       	ldi	r25, 0x00	; 0
    2f60:	02 c0       	rjmp	.+4      	; 0x2f66 <DIO_enuSetPinVal+0x136>
    2f62:	88 0f       	add	r24, r24
    2f64:	99 1f       	adc	r25, r25
    2f66:	2a 95       	dec	r18
    2f68:	e2 f7       	brpl	.-8      	; 0x2f62 <DIO_enuSetPinVal+0x132>
    2f6a:	80 95       	com	r24
    2f6c:	84 23       	and	r24, r20
    2f6e:	8c 93       	st	X, r24
			PORTC |=  (Copy_u8Value << Copy_u8PinID);
    2f70:	a5 e3       	ldi	r26, 0x35	; 53
    2f72:	b0 e0       	ldi	r27, 0x00	; 0
    2f74:	e5 e3       	ldi	r30, 0x35	; 53
    2f76:	f0 e0       	ldi	r31, 0x00	; 0
    2f78:	80 81       	ld	r24, Z
    2f7a:	48 2f       	mov	r20, r24
    2f7c:	8c 81       	ldd	r24, Y+4	; 0x04
    2f7e:	28 2f       	mov	r18, r24
    2f80:	30 e0       	ldi	r19, 0x00	; 0
    2f82:	8b 81       	ldd	r24, Y+3	; 0x03
    2f84:	88 2f       	mov	r24, r24
    2f86:	90 e0       	ldi	r25, 0x00	; 0
    2f88:	b9 01       	movw	r22, r18
    2f8a:	02 c0       	rjmp	.+4      	; 0x2f90 <DIO_enuSetPinVal+0x160>
    2f8c:	66 0f       	add	r22, r22
    2f8e:	77 1f       	adc	r23, r23
    2f90:	8a 95       	dec	r24
    2f92:	e2 f7       	brpl	.-8      	; 0x2f8c <DIO_enuSetPinVal+0x15c>
    2f94:	cb 01       	movw	r24, r22
    2f96:	84 2b       	or	r24, r20
    2f98:	8c 93       	st	X, r24
    2f9a:	28 c0       	rjmp	.+80     	; 0x2fec <DIO_enuSetPinVal+0x1bc>
			break;
			
			case DIO_PORTD:
			PORTD &= ~(DIO_MASK_BIT << Copy_u8PinID);
    2f9c:	a2 e3       	ldi	r26, 0x32	; 50
    2f9e:	b0 e0       	ldi	r27, 0x00	; 0
    2fa0:	e2 e3       	ldi	r30, 0x32	; 50
    2fa2:	f0 e0       	ldi	r31, 0x00	; 0
    2fa4:	80 81       	ld	r24, Z
    2fa6:	48 2f       	mov	r20, r24
    2fa8:	8b 81       	ldd	r24, Y+3	; 0x03
    2faa:	28 2f       	mov	r18, r24
    2fac:	30 e0       	ldi	r19, 0x00	; 0
    2fae:	81 e0       	ldi	r24, 0x01	; 1
    2fb0:	90 e0       	ldi	r25, 0x00	; 0
    2fb2:	02 c0       	rjmp	.+4      	; 0x2fb8 <DIO_enuSetPinVal+0x188>
    2fb4:	88 0f       	add	r24, r24
    2fb6:	99 1f       	adc	r25, r25
    2fb8:	2a 95       	dec	r18
    2fba:	e2 f7       	brpl	.-8      	; 0x2fb4 <DIO_enuSetPinVal+0x184>
    2fbc:	80 95       	com	r24
    2fbe:	84 23       	and	r24, r20
    2fc0:	8c 93       	st	X, r24
			PORTD |=  (Copy_u8Value << Copy_u8PinID);
    2fc2:	a2 e3       	ldi	r26, 0x32	; 50
    2fc4:	b0 e0       	ldi	r27, 0x00	; 0
    2fc6:	e2 e3       	ldi	r30, 0x32	; 50
    2fc8:	f0 e0       	ldi	r31, 0x00	; 0
    2fca:	80 81       	ld	r24, Z
    2fcc:	48 2f       	mov	r20, r24
    2fce:	8c 81       	ldd	r24, Y+4	; 0x04
    2fd0:	28 2f       	mov	r18, r24
    2fd2:	30 e0       	ldi	r19, 0x00	; 0
    2fd4:	8b 81       	ldd	r24, Y+3	; 0x03
    2fd6:	88 2f       	mov	r24, r24
    2fd8:	90 e0       	ldi	r25, 0x00	; 0
    2fda:	b9 01       	movw	r22, r18
    2fdc:	02 c0       	rjmp	.+4      	; 0x2fe2 <DIO_enuSetPinVal+0x1b2>
    2fde:	66 0f       	add	r22, r22
    2fe0:	77 1f       	adc	r23, r23
    2fe2:	8a 95       	dec	r24
    2fe4:	e2 f7       	brpl	.-8      	; 0x2fde <DIO_enuSetPinVal+0x1ae>
    2fe6:	cb 01       	movw	r24, r22
    2fe8:	84 2b       	or	r24, r20
    2fea:	8c 93       	st	X, r24
			break;
		}
		Local_enuErrorState = ES_OK;
    2fec:	19 82       	std	Y+1, r1	; 0x01
    2fee:	02 c0       	rjmp	.+4      	; 0x2ff4 <DIO_enuSetPinVal+0x1c4>
	}
	else
	{
		Local_enuErrorState = ES_OUT_OF_RANGE;
    2ff0:	83 e0       	ldi	r24, 0x03	; 3
    2ff2:	89 83       	std	Y+1, r24	; 0x01
	}
	
	return Local_enuErrorState;
    2ff4:	89 81       	ldd	r24, Y+1	; 0x01
}
    2ff6:	26 96       	adiw	r28, 0x06	; 6
    2ff8:	0f b6       	in	r0, 0x3f	; 63
    2ffa:	f8 94       	cli
    2ffc:	de bf       	out	0x3e, r29	; 62
    2ffe:	0f be       	out	0x3f, r0	; 63
    3000:	cd bf       	out	0x3d, r28	; 61
    3002:	cf 91       	pop	r28
    3004:	df 91       	pop	r29
    3006:	08 95       	ret

00003008 <DIO_enuGetPinVal>:
 * @retval		: ES_t --> it returns the state of excution of this function
 * @note		: none
 ******************************************************************************
**/
ES_t DIO_enuGetPinVal(u8 Copy_u8PortID, u8 Copy_u8PinID, u8 *Copy_pu8Value)
{
    3008:	df 93       	push	r29
    300a:	cf 93       	push	r28
    300c:	cd b7       	in	r28, 0x3d	; 61
    300e:	de b7       	in	r29, 0x3e	; 62
    3010:	27 97       	sbiw	r28, 0x07	; 7
    3012:	0f b6       	in	r0, 0x3f	; 63
    3014:	f8 94       	cli
    3016:	de bf       	out	0x3e, r29	; 62
    3018:	0f be       	out	0x3f, r0	; 63
    301a:	cd bf       	out	0x3d, r28	; 61
    301c:	8a 83       	std	Y+2, r24	; 0x02
    301e:	6b 83       	std	Y+3, r22	; 0x03
    3020:	5d 83       	std	Y+5, r21	; 0x05
    3022:	4c 83       	std	Y+4, r20	; 0x04
	ES_t Local_enuErrorState = ES_NOK;
    3024:	81 e0       	ldi	r24, 0x01	; 1
    3026:	89 83       	std	Y+1, r24	; 0x01
	
	if(Copy_pu8Value != NULL)
    3028:	8c 81       	ldd	r24, Y+4	; 0x04
    302a:	9d 81       	ldd	r25, Y+5	; 0x05
    302c:	00 97       	sbiw	r24, 0x00	; 0
    302e:	09 f4       	brne	.+2      	; 0x3032 <DIO_enuGetPinVal+0x2a>
    3030:	7d c0       	rjmp	.+250    	; 0x312c <DIO_enuGetPinVal+0x124>
	{
		if(Copy_u8PortID <= DIO_PORTD && Copy_u8PinID <= DIO_PIN7)
    3032:	8a 81       	ldd	r24, Y+2	; 0x02
    3034:	84 30       	cpi	r24, 0x04	; 4
    3036:	08 f0       	brcs	.+2      	; 0x303a <DIO_enuGetPinVal+0x32>
    3038:	75 c0       	rjmp	.+234    	; 0x3124 <DIO_enuGetPinVal+0x11c>
    303a:	8b 81       	ldd	r24, Y+3	; 0x03
    303c:	88 30       	cpi	r24, 0x08	; 8
    303e:	08 f0       	brcs	.+2      	; 0x3042 <DIO_enuGetPinVal+0x3a>
    3040:	71 c0       	rjmp	.+226    	; 0x3124 <DIO_enuGetPinVal+0x11c>
		{
			switch(Copy_u8PortID)
    3042:	8a 81       	ldd	r24, Y+2	; 0x02
    3044:	28 2f       	mov	r18, r24
    3046:	30 e0       	ldi	r19, 0x00	; 0
    3048:	3f 83       	std	Y+7, r19	; 0x07
    304a:	2e 83       	std	Y+6, r18	; 0x06
    304c:	4e 81       	ldd	r20, Y+6	; 0x06
    304e:	5f 81       	ldd	r21, Y+7	; 0x07
    3050:	41 30       	cpi	r20, 0x01	; 1
    3052:	51 05       	cpc	r21, r1
    3054:	59 f1       	breq	.+86     	; 0x30ac <DIO_enuGetPinVal+0xa4>
    3056:	8e 81       	ldd	r24, Y+6	; 0x06
    3058:	9f 81       	ldd	r25, Y+7	; 0x07
    305a:	82 30       	cpi	r24, 0x02	; 2
    305c:	91 05       	cpc	r25, r1
    305e:	34 f4       	brge	.+12     	; 0x306c <DIO_enuGetPinVal+0x64>
    3060:	2e 81       	ldd	r18, Y+6	; 0x06
    3062:	3f 81       	ldd	r19, Y+7	; 0x07
    3064:	21 15       	cp	r18, r1
    3066:	31 05       	cpc	r19, r1
    3068:	69 f0       	breq	.+26     	; 0x3084 <DIO_enuGetPinVal+0x7c>
    306a:	5e c0       	rjmp	.+188    	; 0x3128 <DIO_enuGetPinVal+0x120>
    306c:	4e 81       	ldd	r20, Y+6	; 0x06
    306e:	5f 81       	ldd	r21, Y+7	; 0x07
    3070:	42 30       	cpi	r20, 0x02	; 2
    3072:	51 05       	cpc	r21, r1
    3074:	79 f1       	breq	.+94     	; 0x30d4 <DIO_enuGetPinVal+0xcc>
    3076:	8e 81       	ldd	r24, Y+6	; 0x06
    3078:	9f 81       	ldd	r25, Y+7	; 0x07
    307a:	83 30       	cpi	r24, 0x03	; 3
    307c:	91 05       	cpc	r25, r1
    307e:	09 f4       	brne	.+2      	; 0x3082 <DIO_enuGetPinVal+0x7a>
    3080:	3d c0       	rjmp	.+122    	; 0x30fc <DIO_enuGetPinVal+0xf4>
    3082:	52 c0       	rjmp	.+164    	; 0x3128 <DIO_enuGetPinVal+0x120>
			{
				case DIO_PORTA:
				*Copy_pu8Value = ((PINA >> Copy_u8PinID) & DIO_MASK_BIT);
    3084:	e9 e3       	ldi	r30, 0x39	; 57
    3086:	f0 e0       	ldi	r31, 0x00	; 0
    3088:	80 81       	ld	r24, Z
    308a:	28 2f       	mov	r18, r24
    308c:	30 e0       	ldi	r19, 0x00	; 0
    308e:	8b 81       	ldd	r24, Y+3	; 0x03
    3090:	88 2f       	mov	r24, r24
    3092:	90 e0       	ldi	r25, 0x00	; 0
    3094:	a9 01       	movw	r20, r18
    3096:	02 c0       	rjmp	.+4      	; 0x309c <DIO_enuGetPinVal+0x94>
    3098:	55 95       	asr	r21
    309a:	47 95       	ror	r20
    309c:	8a 95       	dec	r24
    309e:	e2 f7       	brpl	.-8      	; 0x3098 <DIO_enuGetPinVal+0x90>
    30a0:	ca 01       	movw	r24, r20
    30a2:	81 70       	andi	r24, 0x01	; 1
    30a4:	ec 81       	ldd	r30, Y+4	; 0x04
    30a6:	fd 81       	ldd	r31, Y+5	; 0x05
    30a8:	80 83       	st	Z, r24
    30aa:	3e c0       	rjmp	.+124    	; 0x3128 <DIO_enuGetPinVal+0x120>
				break;
				
				case DIO_PORTB:
				*Copy_pu8Value = ((PINB >> Copy_u8PinID) & DIO_MASK_BIT);
    30ac:	e6 e3       	ldi	r30, 0x36	; 54
    30ae:	f0 e0       	ldi	r31, 0x00	; 0
    30b0:	80 81       	ld	r24, Z
    30b2:	28 2f       	mov	r18, r24
    30b4:	30 e0       	ldi	r19, 0x00	; 0
    30b6:	8b 81       	ldd	r24, Y+3	; 0x03
    30b8:	88 2f       	mov	r24, r24
    30ba:	90 e0       	ldi	r25, 0x00	; 0
    30bc:	a9 01       	movw	r20, r18
    30be:	02 c0       	rjmp	.+4      	; 0x30c4 <DIO_enuGetPinVal+0xbc>
    30c0:	55 95       	asr	r21
    30c2:	47 95       	ror	r20
    30c4:	8a 95       	dec	r24
    30c6:	e2 f7       	brpl	.-8      	; 0x30c0 <DIO_enuGetPinVal+0xb8>
    30c8:	ca 01       	movw	r24, r20
    30ca:	81 70       	andi	r24, 0x01	; 1
    30cc:	ec 81       	ldd	r30, Y+4	; 0x04
    30ce:	fd 81       	ldd	r31, Y+5	; 0x05
    30d0:	80 83       	st	Z, r24
    30d2:	2a c0       	rjmp	.+84     	; 0x3128 <DIO_enuGetPinVal+0x120>
				break;
				
				case DIO_PORTC:
				*Copy_pu8Value = ((PINC >> Copy_u8PinID) & DIO_MASK_BIT);
    30d4:	e3 e3       	ldi	r30, 0x33	; 51
    30d6:	f0 e0       	ldi	r31, 0x00	; 0
    30d8:	80 81       	ld	r24, Z
    30da:	28 2f       	mov	r18, r24
    30dc:	30 e0       	ldi	r19, 0x00	; 0
    30de:	8b 81       	ldd	r24, Y+3	; 0x03
    30e0:	88 2f       	mov	r24, r24
    30e2:	90 e0       	ldi	r25, 0x00	; 0
    30e4:	a9 01       	movw	r20, r18
    30e6:	02 c0       	rjmp	.+4      	; 0x30ec <DIO_enuGetPinVal+0xe4>
    30e8:	55 95       	asr	r21
    30ea:	47 95       	ror	r20
    30ec:	8a 95       	dec	r24
    30ee:	e2 f7       	brpl	.-8      	; 0x30e8 <DIO_enuGetPinVal+0xe0>
    30f0:	ca 01       	movw	r24, r20
    30f2:	81 70       	andi	r24, 0x01	; 1
    30f4:	ec 81       	ldd	r30, Y+4	; 0x04
    30f6:	fd 81       	ldd	r31, Y+5	; 0x05
    30f8:	80 83       	st	Z, r24
    30fa:	16 c0       	rjmp	.+44     	; 0x3128 <DIO_enuGetPinVal+0x120>
				break;
				
				case DIO_PORTD:
				*Copy_pu8Value = ((PIND >> Copy_u8PinID) & DIO_MASK_BIT);
    30fc:	e0 e3       	ldi	r30, 0x30	; 48
    30fe:	f0 e0       	ldi	r31, 0x00	; 0
    3100:	80 81       	ld	r24, Z
    3102:	28 2f       	mov	r18, r24
    3104:	30 e0       	ldi	r19, 0x00	; 0
    3106:	8b 81       	ldd	r24, Y+3	; 0x03
    3108:	88 2f       	mov	r24, r24
    310a:	90 e0       	ldi	r25, 0x00	; 0
    310c:	a9 01       	movw	r20, r18
    310e:	02 c0       	rjmp	.+4      	; 0x3114 <DIO_enuGetPinVal+0x10c>
    3110:	55 95       	asr	r21
    3112:	47 95       	ror	r20
    3114:	8a 95       	dec	r24
    3116:	e2 f7       	brpl	.-8      	; 0x3110 <DIO_enuGetPinVal+0x108>
    3118:	ca 01       	movw	r24, r20
    311a:	81 70       	andi	r24, 0x01	; 1
    311c:	ec 81       	ldd	r30, Y+4	; 0x04
    311e:	fd 81       	ldd	r31, Y+5	; 0x05
    3120:	80 83       	st	Z, r24
    3122:	02 c0       	rjmp	.+4      	; 0x3128 <DIO_enuGetPinVal+0x120>
				break;
			}
		}
		else
		{
			Local_enuErrorState = ES_OUT_OF_RANGE;
    3124:	83 e0       	ldi	r24, 0x03	; 3
    3126:	89 83       	std	Y+1, r24	; 0x01
		}
		Local_enuErrorState = ES_OK;
    3128:	19 82       	std	Y+1, r1	; 0x01
    312a:	02 c0       	rjmp	.+4      	; 0x3130 <DIO_enuGetPinVal+0x128>
	}
	else
	{
		Local_enuErrorState = ES_NULL_POINTER;
    312c:	82 e0       	ldi	r24, 0x02	; 2
    312e:	89 83       	std	Y+1, r24	; 0x01
	}
	
	return Local_enuErrorState;
    3130:	89 81       	ldd	r24, Y+1	; 0x01
}
    3132:	27 96       	adiw	r28, 0x07	; 7
    3134:	0f b6       	in	r0, 0x3f	; 63
    3136:	f8 94       	cli
    3138:	de bf       	out	0x3e, r29	; 62
    313a:	0f be       	out	0x3f, r0	; 63
    313c:	cd bf       	out	0x3d, r28	; 61
    313e:	cf 91       	pop	r28
    3140:	df 91       	pop	r29
    3142:	08 95       	ret

00003144 <DIO_enuTogPinVal>:
 * @retval		: ES_t --> it returns the state of excution of this function
 * @note		: none
 ******************************************************************************
**/
ES_t DIO_enuTogPinVal(u8 Copy_u8PortID, u8 Copy_u8PinID)
{
    3144:	df 93       	push	r29
    3146:	cf 93       	push	r28
    3148:	00 d0       	rcall	.+0      	; 0x314a <DIO_enuTogPinVal+0x6>
    314a:	00 d0       	rcall	.+0      	; 0x314c <DIO_enuTogPinVal+0x8>
    314c:	0f 92       	push	r0
    314e:	cd b7       	in	r28, 0x3d	; 61
    3150:	de b7       	in	r29, 0x3e	; 62
    3152:	8a 83       	std	Y+2, r24	; 0x02
    3154:	6b 83       	std	Y+3, r22	; 0x03
	ES_t Local_enuErrorState = ES_NOK;
    3156:	81 e0       	ldi	r24, 0x01	; 1
    3158:	89 83       	std	Y+1, r24	; 0x01
	
	if(Copy_u8PortID <= DIO_PORTD && Copy_u8PinID <= DIO_PIN7)
    315a:	8a 81       	ldd	r24, Y+2	; 0x02
    315c:	84 30       	cpi	r24, 0x04	; 4
    315e:	08 f0       	brcs	.+2      	; 0x3162 <DIO_enuTogPinVal+0x1e>
    3160:	74 c0       	rjmp	.+232    	; 0x324a <DIO_enuTogPinVal+0x106>
    3162:	8b 81       	ldd	r24, Y+3	; 0x03
    3164:	88 30       	cpi	r24, 0x08	; 8
    3166:	08 f0       	brcs	.+2      	; 0x316a <DIO_enuTogPinVal+0x26>
    3168:	70 c0       	rjmp	.+224    	; 0x324a <DIO_enuTogPinVal+0x106>
	{
		switch(Copy_u8PortID)
    316a:	8a 81       	ldd	r24, Y+2	; 0x02
    316c:	28 2f       	mov	r18, r24
    316e:	30 e0       	ldi	r19, 0x00	; 0
    3170:	3d 83       	std	Y+5, r19	; 0x05
    3172:	2c 83       	std	Y+4, r18	; 0x04
    3174:	8c 81       	ldd	r24, Y+4	; 0x04
    3176:	9d 81       	ldd	r25, Y+5	; 0x05
    3178:	81 30       	cpi	r24, 0x01	; 1
    317a:	91 05       	cpc	r25, r1
    317c:	49 f1       	breq	.+82     	; 0x31d0 <DIO_enuTogPinVal+0x8c>
    317e:	2c 81       	ldd	r18, Y+4	; 0x04
    3180:	3d 81       	ldd	r19, Y+5	; 0x05
    3182:	22 30       	cpi	r18, 0x02	; 2
    3184:	31 05       	cpc	r19, r1
    3186:	2c f4       	brge	.+10     	; 0x3192 <DIO_enuTogPinVal+0x4e>
    3188:	8c 81       	ldd	r24, Y+4	; 0x04
    318a:	9d 81       	ldd	r25, Y+5	; 0x05
    318c:	00 97       	sbiw	r24, 0x00	; 0
    318e:	61 f0       	breq	.+24     	; 0x31a8 <DIO_enuTogPinVal+0x64>
    3190:	5a c0       	rjmp	.+180    	; 0x3246 <DIO_enuTogPinVal+0x102>
    3192:	2c 81       	ldd	r18, Y+4	; 0x04
    3194:	3d 81       	ldd	r19, Y+5	; 0x05
    3196:	22 30       	cpi	r18, 0x02	; 2
    3198:	31 05       	cpc	r19, r1
    319a:	71 f1       	breq	.+92     	; 0x31f8 <DIO_enuTogPinVal+0xb4>
    319c:	8c 81       	ldd	r24, Y+4	; 0x04
    319e:	9d 81       	ldd	r25, Y+5	; 0x05
    31a0:	83 30       	cpi	r24, 0x03	; 3
    31a2:	91 05       	cpc	r25, r1
    31a4:	e9 f1       	breq	.+122    	; 0x3220 <DIO_enuTogPinVal+0xdc>
    31a6:	4f c0       	rjmp	.+158    	; 0x3246 <DIO_enuTogPinVal+0x102>
		{
			case DIO_PORTA:
			PORTA ^= (DIO_MASK_BIT << Copy_u8PinID);
    31a8:	ab e3       	ldi	r26, 0x3B	; 59
    31aa:	b0 e0       	ldi	r27, 0x00	; 0
    31ac:	eb e3       	ldi	r30, 0x3B	; 59
    31ae:	f0 e0       	ldi	r31, 0x00	; 0
    31b0:	80 81       	ld	r24, Z
    31b2:	48 2f       	mov	r20, r24
    31b4:	8b 81       	ldd	r24, Y+3	; 0x03
    31b6:	28 2f       	mov	r18, r24
    31b8:	30 e0       	ldi	r19, 0x00	; 0
    31ba:	81 e0       	ldi	r24, 0x01	; 1
    31bc:	90 e0       	ldi	r25, 0x00	; 0
    31be:	02 2e       	mov	r0, r18
    31c0:	02 c0       	rjmp	.+4      	; 0x31c6 <DIO_enuTogPinVal+0x82>
    31c2:	88 0f       	add	r24, r24
    31c4:	99 1f       	adc	r25, r25
    31c6:	0a 94       	dec	r0
    31c8:	e2 f7       	brpl	.-8      	; 0x31c2 <DIO_enuTogPinVal+0x7e>
    31ca:	84 27       	eor	r24, r20
    31cc:	8c 93       	st	X, r24
    31ce:	3b c0       	rjmp	.+118    	; 0x3246 <DIO_enuTogPinVal+0x102>
			break;
			
			case DIO_PORTB:
			PORTB ^= (DIO_MASK_BIT << Copy_u8PinID);
    31d0:	a8 e3       	ldi	r26, 0x38	; 56
    31d2:	b0 e0       	ldi	r27, 0x00	; 0
    31d4:	e8 e3       	ldi	r30, 0x38	; 56
    31d6:	f0 e0       	ldi	r31, 0x00	; 0
    31d8:	80 81       	ld	r24, Z
    31da:	48 2f       	mov	r20, r24
    31dc:	8b 81       	ldd	r24, Y+3	; 0x03
    31de:	28 2f       	mov	r18, r24
    31e0:	30 e0       	ldi	r19, 0x00	; 0
    31e2:	81 e0       	ldi	r24, 0x01	; 1
    31e4:	90 e0       	ldi	r25, 0x00	; 0
    31e6:	02 2e       	mov	r0, r18
    31e8:	02 c0       	rjmp	.+4      	; 0x31ee <DIO_enuTogPinVal+0xaa>
    31ea:	88 0f       	add	r24, r24
    31ec:	99 1f       	adc	r25, r25
    31ee:	0a 94       	dec	r0
    31f0:	e2 f7       	brpl	.-8      	; 0x31ea <DIO_enuTogPinVal+0xa6>
    31f2:	84 27       	eor	r24, r20
    31f4:	8c 93       	st	X, r24
    31f6:	27 c0       	rjmp	.+78     	; 0x3246 <DIO_enuTogPinVal+0x102>
			break;
			
			case DIO_PORTC:
			PORTC ^= (DIO_MASK_BIT << Copy_u8PinID);
    31f8:	a5 e3       	ldi	r26, 0x35	; 53
    31fa:	b0 e0       	ldi	r27, 0x00	; 0
    31fc:	e5 e3       	ldi	r30, 0x35	; 53
    31fe:	f0 e0       	ldi	r31, 0x00	; 0
    3200:	80 81       	ld	r24, Z
    3202:	48 2f       	mov	r20, r24
    3204:	8b 81       	ldd	r24, Y+3	; 0x03
    3206:	28 2f       	mov	r18, r24
    3208:	30 e0       	ldi	r19, 0x00	; 0
    320a:	81 e0       	ldi	r24, 0x01	; 1
    320c:	90 e0       	ldi	r25, 0x00	; 0
    320e:	02 2e       	mov	r0, r18
    3210:	02 c0       	rjmp	.+4      	; 0x3216 <DIO_enuTogPinVal+0xd2>
    3212:	88 0f       	add	r24, r24
    3214:	99 1f       	adc	r25, r25
    3216:	0a 94       	dec	r0
    3218:	e2 f7       	brpl	.-8      	; 0x3212 <DIO_enuTogPinVal+0xce>
    321a:	84 27       	eor	r24, r20
    321c:	8c 93       	st	X, r24
    321e:	13 c0       	rjmp	.+38     	; 0x3246 <DIO_enuTogPinVal+0x102>
			break;
			
			case DIO_PORTD:
			PORTD ^= (DIO_MASK_BIT << Copy_u8PinID);
    3220:	a2 e3       	ldi	r26, 0x32	; 50
    3222:	b0 e0       	ldi	r27, 0x00	; 0
    3224:	e2 e3       	ldi	r30, 0x32	; 50
    3226:	f0 e0       	ldi	r31, 0x00	; 0
    3228:	80 81       	ld	r24, Z
    322a:	48 2f       	mov	r20, r24
    322c:	8b 81       	ldd	r24, Y+3	; 0x03
    322e:	28 2f       	mov	r18, r24
    3230:	30 e0       	ldi	r19, 0x00	; 0
    3232:	81 e0       	ldi	r24, 0x01	; 1
    3234:	90 e0       	ldi	r25, 0x00	; 0
    3236:	02 2e       	mov	r0, r18
    3238:	02 c0       	rjmp	.+4      	; 0x323e <DIO_enuTogPinVal+0xfa>
    323a:	88 0f       	add	r24, r24
    323c:	99 1f       	adc	r25, r25
    323e:	0a 94       	dec	r0
    3240:	e2 f7       	brpl	.-8      	; 0x323a <DIO_enuTogPinVal+0xf6>
    3242:	84 27       	eor	r24, r20
    3244:	8c 93       	st	X, r24
			break;
		}
		Local_enuErrorState = ES_OK;
    3246:	19 82       	std	Y+1, r1	; 0x01
    3248:	02 c0       	rjmp	.+4      	; 0x324e <DIO_enuTogPinVal+0x10a>
	}
	else
	{
		Local_enuErrorState = ES_OUT_OF_RANGE;
    324a:	83 e0       	ldi	r24, 0x03	; 3
    324c:	89 83       	std	Y+1, r24	; 0x01
	}
	
	return Local_enuErrorState;
    324e:	89 81       	ldd	r24, Y+1	; 0x01
    3250:	0f 90       	pop	r0
    3252:	0f 90       	pop	r0
    3254:	0f 90       	pop	r0
    3256:	0f 90       	pop	r0
    3258:	0f 90       	pop	r0
    325a:	cf 91       	pop	r28
    325c:	df 91       	pop	r29
    325e:	08 95       	ret

00003260 <ADC_enuInit>:

static volatile void (*ADC_PFuncISRFunc)(void *) = NULL;
static volatile void *ADC_PvidISRParameter = NULL;

ES_t ADC_enuInit(void)
{
    3260:	df 93       	push	r29
    3262:	cf 93       	push	r28
    3264:	0f 92       	push	r0
    3266:	cd b7       	in	r28, 0x3d	; 61
    3268:	de b7       	in	r29, 0x3e	; 62
	ES_t Local_enuErrorState = ES_NOK;
    326a:	81 e0       	ldi	r24, 0x01	; 1
    326c:	89 83       	std	Y+1, r24	; 0x01
	
	/* Configure Voltage Reference */
	/* Mask the two bits of voltage reference */
	ADMUX &= VOLT_REF_MASK;
    326e:	a7 e2       	ldi	r26, 0x27	; 39
    3270:	b0 e0       	ldi	r27, 0x00	; 0
    3272:	e7 e2       	ldi	r30, 0x27	; 39
    3274:	f0 e0       	ldi	r31, 0x00	; 0
    3276:	80 81       	ld	r24, Z
    3278:	8f 73       	andi	r24, 0x3F	; 63
    327a:	8c 93       	st	X, r24
	#if ADC_VOLT_REF == AREF_REF
	ADMUX &= ~(MASK_BIT << REFS0);
    327c:	a7 e2       	ldi	r26, 0x27	; 39
    327e:	b0 e0       	ldi	r27, 0x00	; 0
    3280:	e7 e2       	ldi	r30, 0x27	; 39
    3282:	f0 e0       	ldi	r31, 0x00	; 0
    3284:	80 81       	ld	r24, Z
    3286:	8f 7b       	andi	r24, 0xBF	; 191
    3288:	8c 93       	st	X, r24
	ADMUX &= ~(MASK_BIT << REFS1);
    328a:	a7 e2       	ldi	r26, 0x27	; 39
    328c:	b0 e0       	ldi	r27, 0x00	; 0
    328e:	e7 e2       	ldi	r30, 0x27	; 39
    3290:	f0 e0       	ldi	r31, 0x00	; 0
    3292:	80 81       	ld	r24, Z
    3294:	8f 77       	andi	r24, 0x7F	; 127
    3296:	8c 93       	st	X, r24
	#error "ADC Voltage Referance has a wrong configuration"
	#endif
	
	/* Configure Adjustment */
	/* Mask the bit of adjustment */
	ADMUX &= ~(MASK_BIT << ADLAR);
    3298:	a7 e2       	ldi	r26, 0x27	; 39
    329a:	b0 e0       	ldi	r27, 0x00	; 0
    329c:	e7 e2       	ldi	r30, 0x27	; 39
    329e:	f0 e0       	ldi	r31, 0x00	; 0
    32a0:	80 81       	ld	r24, Z
    32a2:	8f 7d       	andi	r24, 0xDF	; 223
    32a4:	8c 93       	st	X, r24
	#if ADC_ADJUST == RIGHT_ADJUST
	ADMUX &= ~(MASK_BIT << ADLAR);
    32a6:	a7 e2       	ldi	r26, 0x27	; 39
    32a8:	b0 e0       	ldi	r27, 0x00	; 0
    32aa:	e7 e2       	ldi	r30, 0x27	; 39
    32ac:	f0 e0       	ldi	r31, 0x00	; 0
    32ae:	80 81       	ld	r24, Z
    32b0:	8f 7d       	andi	r24, 0xDF	; 223
    32b2:	8c 93       	st	X, r24
	#error "ADC Adjustment has a wrong configuration"
	#endif
	
	/* Configure ADC Prescaler */
	/* Mask the three bits of Prescaler */
	ADCSRA &= PRESCALER_MASK;
    32b4:	a6 e2       	ldi	r26, 0x26	; 38
    32b6:	b0 e0       	ldi	r27, 0x00	; 0
    32b8:	e6 e2       	ldi	r30, 0x26	; 38
    32ba:	f0 e0       	ldi	r31, 0x00	; 0
    32bc:	80 81       	ld	r24, Z
    32be:	88 7f       	andi	r24, 0xF8	; 248
    32c0:	8c 93       	st	X, r24
	#elif ADC_PRESCALER == DIVISION_FACTOR_4
	ADCSRA &= ~(MASK_BIT << ADPS0);
	ADCSRA |=  (MASK_BIT << ADPS1);
	ADCSRA &= ~(MASK_BIT << ADPS2);
	#elif ADC_PRESCALER == DIVISION_FACTOR_8
	ADCSRA |=  (MASK_BIT << ADPS0);
    32c2:	a6 e2       	ldi	r26, 0x26	; 38
    32c4:	b0 e0       	ldi	r27, 0x00	; 0
    32c6:	e6 e2       	ldi	r30, 0x26	; 38
    32c8:	f0 e0       	ldi	r31, 0x00	; 0
    32ca:	80 81       	ld	r24, Z
    32cc:	81 60       	ori	r24, 0x01	; 1
    32ce:	8c 93       	st	X, r24
	ADCSRA |=  (MASK_BIT << ADPS1);
    32d0:	a6 e2       	ldi	r26, 0x26	; 38
    32d2:	b0 e0       	ldi	r27, 0x00	; 0
    32d4:	e6 e2       	ldi	r30, 0x26	; 38
    32d6:	f0 e0       	ldi	r31, 0x00	; 0
    32d8:	80 81       	ld	r24, Z
    32da:	82 60       	ori	r24, 0x02	; 2
    32dc:	8c 93       	st	X, r24
	ADCSRA &= ~(MASK_BIT << ADPS2);
    32de:	a6 e2       	ldi	r26, 0x26	; 38
    32e0:	b0 e0       	ldi	r27, 0x00	; 0
    32e2:	e6 e2       	ldi	r30, 0x26	; 38
    32e4:	f0 e0       	ldi	r31, 0x00	; 0
    32e6:	80 81       	ld	r24, Z
    32e8:	8b 7f       	andi	r24, 0xFB	; 251
    32ea:	8c 93       	st	X, r24
	ADCSRA |=  (MASK_BIT << ADPS2);
	#else
	#error "ADC PreScaler has a wrong configuration"
	#endif
	
	return Local_enuErrorState;
    32ec:	89 81       	ldd	r24, Y+1	; 0x01
}
    32ee:	0f 90       	pop	r0
    32f0:	cf 91       	pop	r28
    32f2:	df 91       	pop	r29
    32f4:	08 95       	ret

000032f6 <ADC_enuEnable>:

ES_t ADC_enuEnable(void)
{
    32f6:	df 93       	push	r29
    32f8:	cf 93       	push	r28
    32fa:	0f 92       	push	r0
    32fc:	cd b7       	in	r28, 0x3d	; 61
    32fe:	de b7       	in	r29, 0x3e	; 62
	ES_t Local_enuErrorState = ES_NOK;
    3300:	81 e0       	ldi	r24, 0x01	; 1
    3302:	89 83       	std	Y+1, r24	; 0x01
	
	ADCSRA |= (MASK_BIT << ADEN);
    3304:	a6 e2       	ldi	r26, 0x26	; 38
    3306:	b0 e0       	ldi	r27, 0x00	; 0
    3308:	e6 e2       	ldi	r30, 0x26	; 38
    330a:	f0 e0       	ldi	r31, 0x00	; 0
    330c:	80 81       	ld	r24, Z
    330e:	80 68       	ori	r24, 0x80	; 128
    3310:	8c 93       	st	X, r24
	
	return Local_enuErrorState;
    3312:	89 81       	ldd	r24, Y+1	; 0x01
}
    3314:	0f 90       	pop	r0
    3316:	cf 91       	pop	r28
    3318:	df 91       	pop	r29
    331a:	08 95       	ret

0000331c <ADC_enuDisable>:

ES_t ADC_enuDisable(void)
{
    331c:	df 93       	push	r29
    331e:	cf 93       	push	r28
    3320:	0f 92       	push	r0
    3322:	cd b7       	in	r28, 0x3d	; 61
    3324:	de b7       	in	r29, 0x3e	; 62
	ES_t Local_enuErrorState = ES_NOK;
    3326:	81 e0       	ldi	r24, 0x01	; 1
    3328:	89 83       	std	Y+1, r24	; 0x01
	
	ADCSRA &= ~(MASK_BIT << ADEN);
    332a:	a6 e2       	ldi	r26, 0x26	; 38
    332c:	b0 e0       	ldi	r27, 0x00	; 0
    332e:	e6 e2       	ldi	r30, 0x26	; 38
    3330:	f0 e0       	ldi	r31, 0x00	; 0
    3332:	80 81       	ld	r24, Z
    3334:	8f 77       	andi	r24, 0x7F	; 127
    3336:	8c 93       	st	X, r24
	
	return Local_enuErrorState;
    3338:	89 81       	ldd	r24, Y+1	; 0x01
}
    333a:	0f 90       	pop	r0
    333c:	cf 91       	pop	r28
    333e:	df 91       	pop	r29
    3340:	08 95       	ret

00003342 <ADC_enuStartConversion>:

ES_t ADC_enuStartConversion(void)
{
    3342:	df 93       	push	r29
    3344:	cf 93       	push	r28
    3346:	0f 92       	push	r0
    3348:	cd b7       	in	r28, 0x3d	; 61
    334a:	de b7       	in	r29, 0x3e	; 62
	ES_t Local_enuErrorState = ES_NOK;
    334c:	81 e0       	ldi	r24, 0x01	; 1
    334e:	89 83       	std	Y+1, r24	; 0x01
	
	ADCSRA |= (MASK_BIT << ADSC);
    3350:	a6 e2       	ldi	r26, 0x26	; 38
    3352:	b0 e0       	ldi	r27, 0x00	; 0
    3354:	e6 e2       	ldi	r30, 0x26	; 38
    3356:	f0 e0       	ldi	r31, 0x00	; 0
    3358:	80 81       	ld	r24, Z
    335a:	80 64       	ori	r24, 0x40	; 64
    335c:	8c 93       	st	X, r24
	
	return Local_enuErrorState;
    335e:	89 81       	ldd	r24, Y+1	; 0x01
}
    3360:	0f 90       	pop	r0
    3362:	cf 91       	pop	r28
    3364:	df 91       	pop	r29
    3366:	08 95       	ret

00003368 <ADC_enuSelectChannel>:

ES_t ADC_enuSelectChannel(u8 Copy_u8ChannelID)
{
    3368:	df 93       	push	r29
    336a:	cf 93       	push	r28
    336c:	00 d0       	rcall	.+0      	; 0x336e <ADC_enuSelectChannel+0x6>
    336e:	cd b7       	in	r28, 0x3d	; 61
    3370:	de b7       	in	r29, 0x3e	; 62
    3372:	8a 83       	std	Y+2, r24	; 0x02
	ES_t Local_enuErrorState = ES_NOK;
    3374:	81 e0       	ldi	r24, 0x01	; 1
    3376:	89 83       	std	Y+1, r24	; 0x01
	
	/* Mask the five bits of channels */
	ADMUX &= CHANNALS_MASK;
    3378:	a7 e2       	ldi	r26, 0x27	; 39
    337a:	b0 e0       	ldi	r27, 0x00	; 0
    337c:	e7 e2       	ldi	r30, 0x27	; 39
    337e:	f0 e0       	ldi	r31, 0x00	; 0
    3380:	80 81       	ld	r24, Z
    3382:	80 7e       	andi	r24, 0xE0	; 224
    3384:	8c 93       	st	X, r24
	
	ADMUX |= Copy_u8ChannelID;
    3386:	a7 e2       	ldi	r26, 0x27	; 39
    3388:	b0 e0       	ldi	r27, 0x00	; 0
    338a:	e7 e2       	ldi	r30, 0x27	; 39
    338c:	f0 e0       	ldi	r31, 0x00	; 0
    338e:	90 81       	ld	r25, Z
    3390:	8a 81       	ldd	r24, Y+2	; 0x02
    3392:	89 2b       	or	r24, r25
    3394:	8c 93       	st	X, r24
	
	return Local_enuErrorState;
    3396:	89 81       	ldd	r24, Y+1	; 0x01
}
    3398:	0f 90       	pop	r0
    339a:	0f 90       	pop	r0
    339c:	cf 91       	pop	r28
    339e:	df 91       	pop	r29
    33a0:	08 95       	ret

000033a2 <ADC_enuPollingSystem>:

ES_t ADC_enuPollingSystem(void)
{
    33a2:	df 93       	push	r29
    33a4:	cf 93       	push	r28
    33a6:	0f 92       	push	r0
    33a8:	cd b7       	in	r28, 0x3d	; 61
    33aa:	de b7       	in	r29, 0x3e	; 62
	ES_t Local_enuErrorState = ES_NOK;
    33ac:	81 e0       	ldi	r24, 0x01	; 1
    33ae:	89 83       	std	Y+1, r24	; 0x01
	
	/* Busy Wait until flag is set */
	while(!((ADCSRA >> ADIF) & MASK_BIT));
    33b0:	e6 e2       	ldi	r30, 0x26	; 38
    33b2:	f0 e0       	ldi	r31, 0x00	; 0
    33b4:	80 81       	ld	r24, Z
    33b6:	82 95       	swap	r24
    33b8:	8f 70       	andi	r24, 0x0F	; 15
    33ba:	88 2f       	mov	r24, r24
    33bc:	90 e0       	ldi	r25, 0x00	; 0
    33be:	81 70       	andi	r24, 0x01	; 1
    33c0:	90 70       	andi	r25, 0x00	; 0
    33c2:	00 97       	sbiw	r24, 0x00	; 0
    33c4:	a9 f3       	breq	.-22     	; 0x33b0 <ADC_enuPollingSystem+0xe>
	
	/* Write one to clear the flag */
	ADCSRA |= (MASK_BIT << ADIF);
    33c6:	a6 e2       	ldi	r26, 0x26	; 38
    33c8:	b0 e0       	ldi	r27, 0x00	; 0
    33ca:	e6 e2       	ldi	r30, 0x26	; 38
    33cc:	f0 e0       	ldi	r31, 0x00	; 0
    33ce:	80 81       	ld	r24, Z
    33d0:	80 61       	ori	r24, 0x10	; 16
    33d2:	8c 93       	st	X, r24
	
	return Local_enuErrorState;
    33d4:	89 81       	ldd	r24, Y+1	; 0x01
}
    33d6:	0f 90       	pop	r0
    33d8:	cf 91       	pop	r28
    33da:	df 91       	pop	r29
    33dc:	08 95       	ret

000033de <ADC_enuEnableInterrupt>:

ES_t ADC_enuEnableInterrupt(void)
{
    33de:	df 93       	push	r29
    33e0:	cf 93       	push	r28
    33e2:	0f 92       	push	r0
    33e4:	cd b7       	in	r28, 0x3d	; 61
    33e6:	de b7       	in	r29, 0x3e	; 62
	ES_t Local_enuErrorState = ES_NOK;
    33e8:	81 e0       	ldi	r24, 0x01	; 1
    33ea:	89 83       	std	Y+1, r24	; 0x01
	
	ADCSRA |= (MASK_BIT << ADIE);
    33ec:	a6 e2       	ldi	r26, 0x26	; 38
    33ee:	b0 e0       	ldi	r27, 0x00	; 0
    33f0:	e6 e2       	ldi	r30, 0x26	; 38
    33f2:	f0 e0       	ldi	r31, 0x00	; 0
    33f4:	80 81       	ld	r24, Z
    33f6:	88 60       	ori	r24, 0x08	; 8
    33f8:	8c 93       	st	X, r24
	
	return Local_enuErrorState;
    33fa:	89 81       	ldd	r24, Y+1	; 0x01
}
    33fc:	0f 90       	pop	r0
    33fe:	cf 91       	pop	r28
    3400:	df 91       	pop	r29
    3402:	08 95       	ret

00003404 <ADC_enuDisableInterrupt>:

ES_t ADC_enuDisableInterrupt(void)
{
    3404:	df 93       	push	r29
    3406:	cf 93       	push	r28
    3408:	0f 92       	push	r0
    340a:	cd b7       	in	r28, 0x3d	; 61
    340c:	de b7       	in	r29, 0x3e	; 62
	ES_t Local_enuErrorState = ES_NOK;
    340e:	81 e0       	ldi	r24, 0x01	; 1
    3410:	89 83       	std	Y+1, r24	; 0x01
	
	ADCSRA &= ~(MASK_BIT << ADIE);
    3412:	a6 e2       	ldi	r26, 0x26	; 38
    3414:	b0 e0       	ldi	r27, 0x00	; 0
    3416:	e6 e2       	ldi	r30, 0x26	; 38
    3418:	f0 e0       	ldi	r31, 0x00	; 0
    341a:	80 81       	ld	r24, Z
    341c:	87 7f       	andi	r24, 0xF7	; 247
    341e:	8c 93       	st	X, r24
	
	return Local_enuErrorState;
    3420:	89 81       	ldd	r24, Y+1	; 0x01
}
    3422:	0f 90       	pop	r0
    3424:	cf 91       	pop	r28
    3426:	df 91       	pop	r29
    3428:	08 95       	ret

0000342a <ADC_enuReadHighValue>:

ES_t ADC_enuReadHighValue(u8 *Copy_pu8ReadHighValue)
{
    342a:	df 93       	push	r29
    342c:	cf 93       	push	r28
    342e:	00 d0       	rcall	.+0      	; 0x3430 <ADC_enuReadHighValue+0x6>
    3430:	0f 92       	push	r0
    3432:	cd b7       	in	r28, 0x3d	; 61
    3434:	de b7       	in	r29, 0x3e	; 62
    3436:	9b 83       	std	Y+3, r25	; 0x03
    3438:	8a 83       	std	Y+2, r24	; 0x02
	ES_t Local_enuErrorState = ES_NOK;
    343a:	81 e0       	ldi	r24, 0x01	; 1
    343c:	89 83       	std	Y+1, r24	; 0x01
	
	#if ADC_ADJUST == RIGHT_ADJUST
	*Copy_pu8ReadHighValue  = (ADCL >> 2);
    343e:	e4 e2       	ldi	r30, 0x24	; 36
    3440:	f0 e0       	ldi	r31, 0x00	; 0
    3442:	80 81       	ld	r24, Z
    3444:	86 95       	lsr	r24
    3446:	86 95       	lsr	r24
    3448:	ea 81       	ldd	r30, Y+2	; 0x02
    344a:	fb 81       	ldd	r31, Y+3	; 0x03
    344c:	80 83       	st	Z, r24
	*Copy_pu8ReadHighValue |= (ADCH << 6);
    344e:	ea 81       	ldd	r30, Y+2	; 0x02
    3450:	fb 81       	ldd	r31, Y+3	; 0x03
    3452:	80 81       	ld	r24, Z
    3454:	28 2f       	mov	r18, r24
    3456:	e5 e2       	ldi	r30, 0x25	; 37
    3458:	f0 e0       	ldi	r31, 0x00	; 0
    345a:	80 81       	ld	r24, Z
    345c:	88 2f       	mov	r24, r24
    345e:	90 e0       	ldi	r25, 0x00	; 0
    3460:	00 24       	eor	r0, r0
    3462:	96 95       	lsr	r25
    3464:	87 95       	ror	r24
    3466:	07 94       	ror	r0
    3468:	96 95       	lsr	r25
    346a:	87 95       	ror	r24
    346c:	07 94       	ror	r0
    346e:	98 2f       	mov	r25, r24
    3470:	80 2d       	mov	r24, r0
    3472:	82 2b       	or	r24, r18
    3474:	ea 81       	ldd	r30, Y+2	; 0x02
    3476:	fb 81       	ldd	r31, Y+3	; 0x03
    3478:	80 83       	st	Z, r24
	*Copy_pu8ReadHighValue = ADCH;
	#else
	#error "ADC Adjustment has a wrong configuration"
	#endif
	
	return Local_enuErrorState;
    347a:	89 81       	ldd	r24, Y+1	; 0x01
}
    347c:	0f 90       	pop	r0
    347e:	0f 90       	pop	r0
    3480:	0f 90       	pop	r0
    3482:	cf 91       	pop	r28
    3484:	df 91       	pop	r29
    3486:	08 95       	ret

00003488 <ADC_enuReadADCValue>:

ES_t ADC_enuReadADCValue(u16 *Copy_pu16ReadValue)
{
    3488:	df 93       	push	r29
    348a:	cf 93       	push	r28
    348c:	00 d0       	rcall	.+0      	; 0x348e <ADC_enuReadADCValue+0x6>
    348e:	0f 92       	push	r0
    3490:	cd b7       	in	r28, 0x3d	; 61
    3492:	de b7       	in	r29, 0x3e	; 62
    3494:	9b 83       	std	Y+3, r25	; 0x03
    3496:	8a 83       	std	Y+2, r24	; 0x02
	ES_t Local_enuErrorState = ES_NOK;
    3498:	81 e0       	ldi	r24, 0x01	; 1
    349a:	89 83       	std	Y+1, r24	; 0x01
	
	#if ADC_ADJUST == RIGHT_ADJUST
	*Copy_pu16ReadValue  = ((u16)ADCL);
    349c:	e4 e2       	ldi	r30, 0x24	; 36
    349e:	f0 e0       	ldi	r31, 0x00	; 0
    34a0:	80 81       	ld	r24, Z
    34a2:	88 2f       	mov	r24, r24
    34a4:	90 e0       	ldi	r25, 0x00	; 0
    34a6:	ea 81       	ldd	r30, Y+2	; 0x02
    34a8:	fb 81       	ldd	r31, Y+3	; 0x03
    34aa:	91 83       	std	Z+1, r25	; 0x01
    34ac:	80 83       	st	Z, r24
	*Copy_pu16ReadValue |= ((u16)ADCH << 8);
    34ae:	ea 81       	ldd	r30, Y+2	; 0x02
    34b0:	fb 81       	ldd	r31, Y+3	; 0x03
    34b2:	20 81       	ld	r18, Z
    34b4:	31 81       	ldd	r19, Z+1	; 0x01
    34b6:	e5 e2       	ldi	r30, 0x25	; 37
    34b8:	f0 e0       	ldi	r31, 0x00	; 0
    34ba:	80 81       	ld	r24, Z
    34bc:	88 2f       	mov	r24, r24
    34be:	90 e0       	ldi	r25, 0x00	; 0
    34c0:	98 2f       	mov	r25, r24
    34c2:	88 27       	eor	r24, r24
    34c4:	82 2b       	or	r24, r18
    34c6:	93 2b       	or	r25, r19
    34c8:	ea 81       	ldd	r30, Y+2	; 0x02
    34ca:	fb 81       	ldd	r31, Y+3	; 0x03
    34cc:	91 83       	std	Z+1, r25	; 0x01
    34ce:	80 83       	st	Z, r24
	*Copy_pu16ReadValue |= ((u16)ADCH << 2);
	#else
	#error "ADC Adjustment has a wrong configuration"
	#endif
	
	return Local_enuErrorState;
    34d0:	89 81       	ldd	r24, Y+1	; 0x01
}
    34d2:	0f 90       	pop	r0
    34d4:	0f 90       	pop	r0
    34d6:	0f 90       	pop	r0
    34d8:	cf 91       	pop	r28
    34da:	df 91       	pop	r29
    34dc:	08 95       	ret

000034de <ADC_enuEnableTrigger>:

ES_t ADC_enuEnableTrigger(u8 Copy_u8TriggerSource)
{
    34de:	df 93       	push	r29
    34e0:	cf 93       	push	r28
    34e2:	00 d0       	rcall	.+0      	; 0x34e4 <ADC_enuEnableTrigger+0x6>
    34e4:	00 d0       	rcall	.+0      	; 0x34e6 <ADC_enuEnableTrigger+0x8>
    34e6:	cd b7       	in	r28, 0x3d	; 61
    34e8:	de b7       	in	r29, 0x3e	; 62
    34ea:	8a 83       	std	Y+2, r24	; 0x02
	ES_t Local_enuErrorState = ES_NOK;
    34ec:	81 e0       	ldi	r24, 0x01	; 1
    34ee:	89 83       	std	Y+1, r24	; 0x01
	
	ADCSRA &= ~(MASK_BIT << ADATE);
    34f0:	a6 e2       	ldi	r26, 0x26	; 38
    34f2:	b0 e0       	ldi	r27, 0x00	; 0
    34f4:	e6 e2       	ldi	r30, 0x26	; 38
    34f6:	f0 e0       	ldi	r31, 0x00	; 0
    34f8:	80 81       	ld	r24, Z
    34fa:	8f 7d       	andi	r24, 0xDF	; 223
    34fc:	8c 93       	st	X, r24
	
	/* Mask the three bits of Auto Trigger Source */
	SFIOR &= AUTO_TRIGGER_MASK;
    34fe:	a0 e5       	ldi	r26, 0x50	; 80
    3500:	b0 e0       	ldi	r27, 0x00	; 0
    3502:	e0 e5       	ldi	r30, 0x50	; 80
    3504:	f0 e0       	ldi	r31, 0x00	; 0
    3506:	80 81       	ld	r24, Z
    3508:	8f 71       	andi	r24, 0x1F	; 31
    350a:	8c 93       	st	X, r24
	switch(Copy_u8TriggerSource)
    350c:	8a 81       	ldd	r24, Y+2	; 0x02
    350e:	28 2f       	mov	r18, r24
    3510:	30 e0       	ldi	r19, 0x00	; 0
    3512:	3c 83       	std	Y+4, r19	; 0x04
    3514:	2b 83       	std	Y+3, r18	; 0x03
    3516:	8b 81       	ldd	r24, Y+3	; 0x03
    3518:	9c 81       	ldd	r25, Y+4	; 0x04
    351a:	83 30       	cpi	r24, 0x03	; 3
    351c:	91 05       	cpc	r25, r1
    351e:	09 f4       	brne	.+2      	; 0x3522 <ADC_enuEnableTrigger+0x44>
    3520:	70 c0       	rjmp	.+224    	; 0x3602 <ADC_enuEnableTrigger+0x124>
    3522:	2b 81       	ldd	r18, Y+3	; 0x03
    3524:	3c 81       	ldd	r19, Y+4	; 0x04
    3526:	24 30       	cpi	r18, 0x04	; 4
    3528:	31 05       	cpc	r19, r1
    352a:	84 f4       	brge	.+32     	; 0x354c <ADC_enuEnableTrigger+0x6e>
    352c:	8b 81       	ldd	r24, Y+3	; 0x03
    352e:	9c 81       	ldd	r25, Y+4	; 0x04
    3530:	81 30       	cpi	r24, 0x01	; 1
    3532:	91 05       	cpc	r25, r1
    3534:	d1 f1       	breq	.+116    	; 0x35aa <ADC_enuEnableTrigger+0xcc>
    3536:	2b 81       	ldd	r18, Y+3	; 0x03
    3538:	3c 81       	ldd	r19, Y+4	; 0x04
    353a:	22 30       	cpi	r18, 0x02	; 2
    353c:	31 05       	cpc	r19, r1
    353e:	0c f0       	brlt	.+2      	; 0x3542 <ADC_enuEnableTrigger+0x64>
    3540:	4a c0       	rjmp	.+148    	; 0x35d6 <ADC_enuEnableTrigger+0xf8>
    3542:	8b 81       	ldd	r24, Y+3	; 0x03
    3544:	9c 81       	ldd	r25, Y+4	; 0x04
    3546:	00 97       	sbiw	r24, 0x00	; 0
    3548:	d1 f0       	breq	.+52     	; 0x357e <ADC_enuEnableTrigger+0xa0>
    354a:	c9 c0       	rjmp	.+402    	; 0x36de <ADC_enuEnableTrigger+0x200>
    354c:	2b 81       	ldd	r18, Y+3	; 0x03
    354e:	3c 81       	ldd	r19, Y+4	; 0x04
    3550:	25 30       	cpi	r18, 0x05	; 5
    3552:	31 05       	cpc	r19, r1
    3554:	09 f4       	brne	.+2      	; 0x3558 <ADC_enuEnableTrigger+0x7a>
    3556:	81 c0       	rjmp	.+258    	; 0x365a <ADC_enuEnableTrigger+0x17c>
    3558:	8b 81       	ldd	r24, Y+3	; 0x03
    355a:	9c 81       	ldd	r25, Y+4	; 0x04
    355c:	85 30       	cpi	r24, 0x05	; 5
    355e:	91 05       	cpc	r25, r1
    3560:	0c f4       	brge	.+2      	; 0x3564 <ADC_enuEnableTrigger+0x86>
    3562:	65 c0       	rjmp	.+202    	; 0x362e <ADC_enuEnableTrigger+0x150>
    3564:	2b 81       	ldd	r18, Y+3	; 0x03
    3566:	3c 81       	ldd	r19, Y+4	; 0x04
    3568:	26 30       	cpi	r18, 0x06	; 6
    356a:	31 05       	cpc	r19, r1
    356c:	09 f4       	brne	.+2      	; 0x3570 <ADC_enuEnableTrigger+0x92>
    356e:	8b c0       	rjmp	.+278    	; 0x3686 <ADC_enuEnableTrigger+0x1a8>
    3570:	8b 81       	ldd	r24, Y+3	; 0x03
    3572:	9c 81       	ldd	r25, Y+4	; 0x04
    3574:	87 30       	cpi	r24, 0x07	; 7
    3576:	91 05       	cpc	r25, r1
    3578:	09 f4       	brne	.+2      	; 0x357c <ADC_enuEnableTrigger+0x9e>
    357a:	9b c0       	rjmp	.+310    	; 0x36b2 <ADC_enuEnableTrigger+0x1d4>
    357c:	b0 c0       	rjmp	.+352    	; 0x36de <ADC_enuEnableTrigger+0x200>
	{
		case FREE_RUNNING:
		SFIOR &= ~(MASK_BIT << ADTS0);
    357e:	a0 e5       	ldi	r26, 0x50	; 80
    3580:	b0 e0       	ldi	r27, 0x00	; 0
    3582:	e0 e5       	ldi	r30, 0x50	; 80
    3584:	f0 e0       	ldi	r31, 0x00	; 0
    3586:	80 81       	ld	r24, Z
    3588:	8f 7d       	andi	r24, 0xDF	; 223
    358a:	8c 93       	st	X, r24
		SFIOR &= ~(MASK_BIT << ADTS1);
    358c:	a0 e5       	ldi	r26, 0x50	; 80
    358e:	b0 e0       	ldi	r27, 0x00	; 0
    3590:	e0 e5       	ldi	r30, 0x50	; 80
    3592:	f0 e0       	ldi	r31, 0x00	; 0
    3594:	80 81       	ld	r24, Z
    3596:	8f 7b       	andi	r24, 0xBF	; 191
    3598:	8c 93       	st	X, r24
		SFIOR &= ~(MASK_BIT << ADTS2);
    359a:	a0 e5       	ldi	r26, 0x50	; 80
    359c:	b0 e0       	ldi	r27, 0x00	; 0
    359e:	e0 e5       	ldi	r30, 0x50	; 80
    35a0:	f0 e0       	ldi	r31, 0x00	; 0
    35a2:	80 81       	ld	r24, Z
    35a4:	8f 77       	andi	r24, 0x7F	; 127
    35a6:	8c 93       	st	X, r24
    35a8:	9c c0       	rjmp	.+312    	; 0x36e2 <ADC_enuEnableTrigger+0x204>
		break;
		
		case ANALOG_COMPARATOR:
		SFIOR |=  (MASK_BIT << ADTS0);
    35aa:	a0 e5       	ldi	r26, 0x50	; 80
    35ac:	b0 e0       	ldi	r27, 0x00	; 0
    35ae:	e0 e5       	ldi	r30, 0x50	; 80
    35b0:	f0 e0       	ldi	r31, 0x00	; 0
    35b2:	80 81       	ld	r24, Z
    35b4:	80 62       	ori	r24, 0x20	; 32
    35b6:	8c 93       	st	X, r24
		SFIOR &= ~(MASK_BIT << ADTS1);
    35b8:	a0 e5       	ldi	r26, 0x50	; 80
    35ba:	b0 e0       	ldi	r27, 0x00	; 0
    35bc:	e0 e5       	ldi	r30, 0x50	; 80
    35be:	f0 e0       	ldi	r31, 0x00	; 0
    35c0:	80 81       	ld	r24, Z
    35c2:	8f 7b       	andi	r24, 0xBF	; 191
    35c4:	8c 93       	st	X, r24
		SFIOR &= ~(MASK_BIT << ADTS2);
    35c6:	a0 e5       	ldi	r26, 0x50	; 80
    35c8:	b0 e0       	ldi	r27, 0x00	; 0
    35ca:	e0 e5       	ldi	r30, 0x50	; 80
    35cc:	f0 e0       	ldi	r31, 0x00	; 0
    35ce:	80 81       	ld	r24, Z
    35d0:	8f 77       	andi	r24, 0x7F	; 127
    35d2:	8c 93       	st	X, r24
    35d4:	86 c0       	rjmp	.+268    	; 0x36e2 <ADC_enuEnableTrigger+0x204>
		break;
		
		case EXTI0_TRIG:
		SFIOR &= ~(MASK_BIT << ADTS0);
    35d6:	a0 e5       	ldi	r26, 0x50	; 80
    35d8:	b0 e0       	ldi	r27, 0x00	; 0
    35da:	e0 e5       	ldi	r30, 0x50	; 80
    35dc:	f0 e0       	ldi	r31, 0x00	; 0
    35de:	80 81       	ld	r24, Z
    35e0:	8f 7d       	andi	r24, 0xDF	; 223
    35e2:	8c 93       	st	X, r24
		SFIOR |=  (MASK_BIT << ADTS1);
    35e4:	a0 e5       	ldi	r26, 0x50	; 80
    35e6:	b0 e0       	ldi	r27, 0x00	; 0
    35e8:	e0 e5       	ldi	r30, 0x50	; 80
    35ea:	f0 e0       	ldi	r31, 0x00	; 0
    35ec:	80 81       	ld	r24, Z
    35ee:	80 64       	ori	r24, 0x40	; 64
    35f0:	8c 93       	st	X, r24
		SFIOR &= ~(MASK_BIT << ADTS2);
    35f2:	a0 e5       	ldi	r26, 0x50	; 80
    35f4:	b0 e0       	ldi	r27, 0x00	; 0
    35f6:	e0 e5       	ldi	r30, 0x50	; 80
    35f8:	f0 e0       	ldi	r31, 0x00	; 0
    35fa:	80 81       	ld	r24, Z
    35fc:	8f 77       	andi	r24, 0x7F	; 127
    35fe:	8c 93       	st	X, r24
    3600:	70 c0       	rjmp	.+224    	; 0x36e2 <ADC_enuEnableTrigger+0x204>
		break;
		
		case TIMER0_COMPARE_MATCH_TRIG:
		SFIOR |=  (MASK_BIT << ADTS0);
    3602:	a0 e5       	ldi	r26, 0x50	; 80
    3604:	b0 e0       	ldi	r27, 0x00	; 0
    3606:	e0 e5       	ldi	r30, 0x50	; 80
    3608:	f0 e0       	ldi	r31, 0x00	; 0
    360a:	80 81       	ld	r24, Z
    360c:	80 62       	ori	r24, 0x20	; 32
    360e:	8c 93       	st	X, r24
		SFIOR |=  (MASK_BIT << ADTS1);
    3610:	a0 e5       	ldi	r26, 0x50	; 80
    3612:	b0 e0       	ldi	r27, 0x00	; 0
    3614:	e0 e5       	ldi	r30, 0x50	; 80
    3616:	f0 e0       	ldi	r31, 0x00	; 0
    3618:	80 81       	ld	r24, Z
    361a:	80 64       	ori	r24, 0x40	; 64
    361c:	8c 93       	st	X, r24
		SFIOR &= ~(MASK_BIT << ADTS2);
    361e:	a0 e5       	ldi	r26, 0x50	; 80
    3620:	b0 e0       	ldi	r27, 0x00	; 0
    3622:	e0 e5       	ldi	r30, 0x50	; 80
    3624:	f0 e0       	ldi	r31, 0x00	; 0
    3626:	80 81       	ld	r24, Z
    3628:	8f 77       	andi	r24, 0x7F	; 127
    362a:	8c 93       	st	X, r24
    362c:	5a c0       	rjmp	.+180    	; 0x36e2 <ADC_enuEnableTrigger+0x204>
		break;
		
		case TIMER0_OVERFLOW_TRIG:
		SFIOR &= ~(MASK_BIT << ADTS0);
    362e:	a0 e5       	ldi	r26, 0x50	; 80
    3630:	b0 e0       	ldi	r27, 0x00	; 0
    3632:	e0 e5       	ldi	r30, 0x50	; 80
    3634:	f0 e0       	ldi	r31, 0x00	; 0
    3636:	80 81       	ld	r24, Z
    3638:	8f 7d       	andi	r24, 0xDF	; 223
    363a:	8c 93       	st	X, r24
		SFIOR &= ~(MASK_BIT << ADTS1);
    363c:	a0 e5       	ldi	r26, 0x50	; 80
    363e:	b0 e0       	ldi	r27, 0x00	; 0
    3640:	e0 e5       	ldi	r30, 0x50	; 80
    3642:	f0 e0       	ldi	r31, 0x00	; 0
    3644:	80 81       	ld	r24, Z
    3646:	8f 7b       	andi	r24, 0xBF	; 191
    3648:	8c 93       	st	X, r24
		SFIOR |=  (MASK_BIT << ADTS2);
    364a:	a0 e5       	ldi	r26, 0x50	; 80
    364c:	b0 e0       	ldi	r27, 0x00	; 0
    364e:	e0 e5       	ldi	r30, 0x50	; 80
    3650:	f0 e0       	ldi	r31, 0x00	; 0
    3652:	80 81       	ld	r24, Z
    3654:	80 68       	ori	r24, 0x80	; 128
    3656:	8c 93       	st	X, r24
    3658:	44 c0       	rjmp	.+136    	; 0x36e2 <ADC_enuEnableTrigger+0x204>
		break;
		
		case TIMER1_COMPARE_MATCH_TRIG:
		SFIOR |=  (MASK_BIT << ADTS0);
    365a:	a0 e5       	ldi	r26, 0x50	; 80
    365c:	b0 e0       	ldi	r27, 0x00	; 0
    365e:	e0 e5       	ldi	r30, 0x50	; 80
    3660:	f0 e0       	ldi	r31, 0x00	; 0
    3662:	80 81       	ld	r24, Z
    3664:	80 62       	ori	r24, 0x20	; 32
    3666:	8c 93       	st	X, r24
		SFIOR &= ~(MASK_BIT << ADTS1);
    3668:	a0 e5       	ldi	r26, 0x50	; 80
    366a:	b0 e0       	ldi	r27, 0x00	; 0
    366c:	e0 e5       	ldi	r30, 0x50	; 80
    366e:	f0 e0       	ldi	r31, 0x00	; 0
    3670:	80 81       	ld	r24, Z
    3672:	8f 7b       	andi	r24, 0xBF	; 191
    3674:	8c 93       	st	X, r24
		SFIOR |=  (MASK_BIT << ADTS2);
    3676:	a0 e5       	ldi	r26, 0x50	; 80
    3678:	b0 e0       	ldi	r27, 0x00	; 0
    367a:	e0 e5       	ldi	r30, 0x50	; 80
    367c:	f0 e0       	ldi	r31, 0x00	; 0
    367e:	80 81       	ld	r24, Z
    3680:	80 68       	ori	r24, 0x80	; 128
    3682:	8c 93       	st	X, r24
    3684:	2e c0       	rjmp	.+92     	; 0x36e2 <ADC_enuEnableTrigger+0x204>
		break;
		
		case TIMER1_OVERFLOW_TRIG:
		SFIOR &= ~(MASK_BIT << ADTS0);
    3686:	a0 e5       	ldi	r26, 0x50	; 80
    3688:	b0 e0       	ldi	r27, 0x00	; 0
    368a:	e0 e5       	ldi	r30, 0x50	; 80
    368c:	f0 e0       	ldi	r31, 0x00	; 0
    368e:	80 81       	ld	r24, Z
    3690:	8f 7d       	andi	r24, 0xDF	; 223
    3692:	8c 93       	st	X, r24
		SFIOR |=  (MASK_BIT << ADTS1);
    3694:	a0 e5       	ldi	r26, 0x50	; 80
    3696:	b0 e0       	ldi	r27, 0x00	; 0
    3698:	e0 e5       	ldi	r30, 0x50	; 80
    369a:	f0 e0       	ldi	r31, 0x00	; 0
    369c:	80 81       	ld	r24, Z
    369e:	80 64       	ori	r24, 0x40	; 64
    36a0:	8c 93       	st	X, r24
		SFIOR |=  (MASK_BIT << ADTS2);
    36a2:	a0 e5       	ldi	r26, 0x50	; 80
    36a4:	b0 e0       	ldi	r27, 0x00	; 0
    36a6:	e0 e5       	ldi	r30, 0x50	; 80
    36a8:	f0 e0       	ldi	r31, 0x00	; 0
    36aa:	80 81       	ld	r24, Z
    36ac:	80 68       	ori	r24, 0x80	; 128
    36ae:	8c 93       	st	X, r24
    36b0:	18 c0       	rjmp	.+48     	; 0x36e2 <ADC_enuEnableTrigger+0x204>
		break;
		
		case TIMER1_CAPUTRE_TRIG:
		SFIOR |=  (MASK_BIT << ADTS0);
    36b2:	a0 e5       	ldi	r26, 0x50	; 80
    36b4:	b0 e0       	ldi	r27, 0x00	; 0
    36b6:	e0 e5       	ldi	r30, 0x50	; 80
    36b8:	f0 e0       	ldi	r31, 0x00	; 0
    36ba:	80 81       	ld	r24, Z
    36bc:	80 62       	ori	r24, 0x20	; 32
    36be:	8c 93       	st	X, r24
		SFIOR |=  (MASK_BIT << ADTS1);
    36c0:	a0 e5       	ldi	r26, 0x50	; 80
    36c2:	b0 e0       	ldi	r27, 0x00	; 0
    36c4:	e0 e5       	ldi	r30, 0x50	; 80
    36c6:	f0 e0       	ldi	r31, 0x00	; 0
    36c8:	80 81       	ld	r24, Z
    36ca:	80 64       	ori	r24, 0x40	; 64
    36cc:	8c 93       	st	X, r24
		SFIOR |=  (MASK_BIT << ADTS2);
    36ce:	a0 e5       	ldi	r26, 0x50	; 80
    36d0:	b0 e0       	ldi	r27, 0x00	; 0
    36d2:	e0 e5       	ldi	r30, 0x50	; 80
    36d4:	f0 e0       	ldi	r31, 0x00	; 0
    36d6:	80 81       	ld	r24, Z
    36d8:	80 68       	ori	r24, 0x80	; 128
    36da:	8c 93       	st	X, r24
    36dc:	02 c0       	rjmp	.+4      	; 0x36e2 <ADC_enuEnableTrigger+0x204>
		break;
		
		default:
		Local_enuErrorState = ES_OUT_OF_RANGE;
    36de:	83 e0       	ldi	r24, 0x03	; 3
    36e0:	89 83       	std	Y+1, r24	; 0x01
		break;
	}
	
	ADCSRA |= (MASK_BIT << ADATE);
    36e2:	a6 e2       	ldi	r26, 0x26	; 38
    36e4:	b0 e0       	ldi	r27, 0x00	; 0
    36e6:	e6 e2       	ldi	r30, 0x26	; 38
    36e8:	f0 e0       	ldi	r31, 0x00	; 0
    36ea:	80 81       	ld	r24, Z
    36ec:	80 62       	ori	r24, 0x20	; 32
    36ee:	8c 93       	st	X, r24
	
	return Local_enuErrorState;
    36f0:	89 81       	ldd	r24, Y+1	; 0x01
}
    36f2:	0f 90       	pop	r0
    36f4:	0f 90       	pop	r0
    36f6:	0f 90       	pop	r0
    36f8:	0f 90       	pop	r0
    36fa:	cf 91       	pop	r28
    36fc:	df 91       	pop	r29
    36fe:	08 95       	ret

00003700 <ADC_enuDisableTrigger>:

ES_t ADC_enuDisableTrigger(void)
{
    3700:	df 93       	push	r29
    3702:	cf 93       	push	r28
    3704:	0f 92       	push	r0
    3706:	cd b7       	in	r28, 0x3d	; 61
    3708:	de b7       	in	r29, 0x3e	; 62
	ES_t Local_enuErrorState = ES_NOK;
    370a:	81 e0       	ldi	r24, 0x01	; 1
    370c:	89 83       	std	Y+1, r24	; 0x01
	
	ADCSRA &= ~(MASK_BIT << ADATE);
    370e:	a6 e2       	ldi	r26, 0x26	; 38
    3710:	b0 e0       	ldi	r27, 0x00	; 0
    3712:	e6 e2       	ldi	r30, 0x26	; 38
    3714:	f0 e0       	ldi	r31, 0x00	; 0
    3716:	80 81       	ld	r24, Z
    3718:	8f 7d       	andi	r24, 0xDF	; 223
    371a:	8c 93       	st	X, r24
	
	return Local_enuErrorState;
    371c:	89 81       	ldd	r24, Y+1	; 0x01
}
    371e:	0f 90       	pop	r0
    3720:	cf 91       	pop	r28
    3722:	df 91       	pop	r29
    3724:	08 95       	ret

00003726 <ADC_enuCallBack>:

ES_t ADC_enuCallBack(volatile void (*Copy_PFunc)(void*), volatile void *Copy_PvidAppParameter)
{
    3726:	df 93       	push	r29
    3728:	cf 93       	push	r28
    372a:	00 d0       	rcall	.+0      	; 0x372c <ADC_enuCallBack+0x6>
    372c:	00 d0       	rcall	.+0      	; 0x372e <ADC_enuCallBack+0x8>
    372e:	0f 92       	push	r0
    3730:	cd b7       	in	r28, 0x3d	; 61
    3732:	de b7       	in	r29, 0x3e	; 62
    3734:	9b 83       	std	Y+3, r25	; 0x03
    3736:	8a 83       	std	Y+2, r24	; 0x02
    3738:	7d 83       	std	Y+5, r23	; 0x05
    373a:	6c 83       	std	Y+4, r22	; 0x04
	ES_t Local_enuErrorState = ES_NOK;
    373c:	81 e0       	ldi	r24, 0x01	; 1
    373e:	89 83       	std	Y+1, r24	; 0x01
	
	if(Copy_PFunc != NULL)
    3740:	8a 81       	ldd	r24, Y+2	; 0x02
    3742:	9b 81       	ldd	r25, Y+3	; 0x03
    3744:	00 97       	sbiw	r24, 0x00	; 0
    3746:	69 f0       	breq	.+26     	; 0x3762 <ADC_enuCallBack+0x3c>
	{
		ADC_PFuncISRFunc = Copy_PFunc;
    3748:	8a 81       	ldd	r24, Y+2	; 0x02
    374a:	9b 81       	ldd	r25, Y+3	; 0x03
    374c:	90 93 20 02 	sts	0x0220, r25
    3750:	80 93 1f 02 	sts	0x021F, r24
		ADC_PvidISRParameter = Copy_PvidAppParameter;
    3754:	8c 81       	ldd	r24, Y+4	; 0x04
    3756:	9d 81       	ldd	r25, Y+5	; 0x05
    3758:	90 93 22 02 	sts	0x0222, r25
    375c:	80 93 21 02 	sts	0x0221, r24
    3760:	02 c0       	rjmp	.+4      	; 0x3766 <ADC_enuCallBack+0x40>
	}
	else
	{
		Local_enuErrorState = ES_NULL_POINTER;
    3762:	82 e0       	ldi	r24, 0x02	; 2
    3764:	89 83       	std	Y+1, r24	; 0x01
	}
	return Local_enuErrorState;
    3766:	89 81       	ldd	r24, Y+1	; 0x01
}
    3768:	0f 90       	pop	r0
    376a:	0f 90       	pop	r0
    376c:	0f 90       	pop	r0
    376e:	0f 90       	pop	r0
    3770:	0f 90       	pop	r0
    3772:	cf 91       	pop	r28
    3774:	df 91       	pop	r29
    3776:	08 95       	ret

00003778 <__vector_16>:

ISR(VECT_ADC)
{
    3778:	1f 92       	push	r1
    377a:	0f 92       	push	r0
    377c:	0f b6       	in	r0, 0x3f	; 63
    377e:	0f 92       	push	r0
    3780:	11 24       	eor	r1, r1
    3782:	2f 93       	push	r18
    3784:	3f 93       	push	r19
    3786:	4f 93       	push	r20
    3788:	5f 93       	push	r21
    378a:	6f 93       	push	r22
    378c:	7f 93       	push	r23
    378e:	8f 93       	push	r24
    3790:	9f 93       	push	r25
    3792:	af 93       	push	r26
    3794:	bf 93       	push	r27
    3796:	ef 93       	push	r30
    3798:	ff 93       	push	r31
    379a:	df 93       	push	r29
    379c:	cf 93       	push	r28
    379e:	cd b7       	in	r28, 0x3d	; 61
    37a0:	de b7       	in	r29, 0x3e	; 62
	if(ADC_PFuncISRFunc != NULL)
    37a2:	80 91 1f 02 	lds	r24, 0x021F
    37a6:	90 91 20 02 	lds	r25, 0x0220
    37aa:	00 97       	sbiw	r24, 0x00	; 0
    37ac:	49 f0       	breq	.+18     	; 0x37c0 <__vector_16+0x48>
	{
		ADC_PFuncISRFunc(ADC_PvidISRParameter);
    37ae:	e0 91 1f 02 	lds	r30, 0x021F
    37b2:	f0 91 20 02 	lds	r31, 0x0220
    37b6:	80 91 21 02 	lds	r24, 0x0221
    37ba:	90 91 22 02 	lds	r25, 0x0222
    37be:	09 95       	icall
	}
    37c0:	cf 91       	pop	r28
    37c2:	df 91       	pop	r29
    37c4:	ff 91       	pop	r31
    37c6:	ef 91       	pop	r30
    37c8:	bf 91       	pop	r27
    37ca:	af 91       	pop	r26
    37cc:	9f 91       	pop	r25
    37ce:	8f 91       	pop	r24
    37d0:	7f 91       	pop	r23
    37d2:	6f 91       	pop	r22
    37d4:	5f 91       	pop	r21
    37d6:	4f 91       	pop	r20
    37d8:	3f 91       	pop	r19
    37da:	2f 91       	pop	r18
    37dc:	0f 90       	pop	r0
    37de:	0f be       	out	0x3f, r0	; 63
    37e0:	0f 90       	pop	r0
    37e2:	1f 90       	pop	r1
    37e4:	18 95       	reti

000037e6 <Switch_enuINIT>:
#include "Switch_priv.h"
#include "Switch_config.h"


ES_t Switch_enuINIT(SW_t * Copy_pAstrSwConfig)
{
    37e6:	df 93       	push	r29
    37e8:	cf 93       	push	r28
    37ea:	00 d0       	rcall	.+0      	; 0x37ec <Switch_enuINIT+0x6>
    37ec:	00 d0       	rcall	.+0      	; 0x37ee <Switch_enuINIT+0x8>
    37ee:	cd b7       	in	r28, 0x3d	; 61
    37f0:	de b7       	in	r29, 0x3e	; 62
    37f2:	9c 83       	std	Y+4, r25	; 0x04
    37f4:	8b 83       	std	Y+3, r24	; 0x03
	ES_t Local_enuErrorState = ES_NOK;
    37f6:	81 e0       	ldi	r24, 0x01	; 1
    37f8:	8a 83       	std	Y+2, r24	; 0x02
	
	if(Copy_pAstrSwConfig != NULL)
    37fa:	8b 81       	ldd	r24, Y+3	; 0x03
    37fc:	9c 81       	ldd	r25, Y+4	; 0x04
    37fe:	00 97       	sbiw	r24, 0x00	; 0
    3800:	09 f4       	brne	.+2      	; 0x3804 <Switch_enuINIT+0x1e>
    3802:	5c c0       	rjmp	.+184    	; 0x38bc <Switch_enuINIT+0xd6>
	{
		u8 Local_u8Iterator;
		
		for(Local_u8Iterator = 0; Local_u8Iterator < SW_NUM; Local_u8Iterator++)
    3804:	19 82       	std	Y+1, r1	; 0x01
    3806:	55 c0       	rjmp	.+170    	; 0x38b2 <Switch_enuINIT+0xcc>
		{
			Local_enuErrorState = DIO_enuSetPinDirection(Copy_pAstrSwConfig[Local_u8Iterator].SW_u8PortID, Copy_pAstrSwConfig[Local_u8Iterator].SW_u8PinID, DIO_u8INPUT);
    3808:	89 81       	ldd	r24, Y+1	; 0x01
    380a:	28 2f       	mov	r18, r24
    380c:	30 e0       	ldi	r19, 0x00	; 0
    380e:	c9 01       	movw	r24, r18
    3810:	88 0f       	add	r24, r24
    3812:	99 1f       	adc	r25, r25
    3814:	28 0f       	add	r18, r24
    3816:	39 1f       	adc	r19, r25
    3818:	8b 81       	ldd	r24, Y+3	; 0x03
    381a:	9c 81       	ldd	r25, Y+4	; 0x04
    381c:	fc 01       	movw	r30, r24
    381e:	e2 0f       	add	r30, r18
    3820:	f3 1f       	adc	r31, r19
    3822:	40 81       	ld	r20, Z
    3824:	89 81       	ldd	r24, Y+1	; 0x01
    3826:	28 2f       	mov	r18, r24
    3828:	30 e0       	ldi	r19, 0x00	; 0
    382a:	c9 01       	movw	r24, r18
    382c:	88 0f       	add	r24, r24
    382e:	99 1f       	adc	r25, r25
    3830:	28 0f       	add	r18, r24
    3832:	39 1f       	adc	r19, r25
    3834:	8b 81       	ldd	r24, Y+3	; 0x03
    3836:	9c 81       	ldd	r25, Y+4	; 0x04
    3838:	fc 01       	movw	r30, r24
    383a:	e2 0f       	add	r30, r18
    383c:	f3 1f       	adc	r31, r19
    383e:	91 81       	ldd	r25, Z+1	; 0x01
    3840:	84 2f       	mov	r24, r20
    3842:	69 2f       	mov	r22, r25
    3844:	40 e0       	ldi	r20, 0x00	; 0
    3846:	0e 94 2c 16 	call	0x2c58	; 0x2c58 <DIO_enuSetPinDirection>
    384a:	8a 83       	std	Y+2, r24	; 0x02
			Local_enuErrorState = DIO_enuSetPinVal(Copy_pAstrSwConfig[Local_u8Iterator].SW_u8PortID, Copy_pAstrSwConfig[Local_u8Iterator].SW_u8PinID, Copy_pAstrSwConfig[Local_u8Iterator].SW_u8Status);	
    384c:	89 81       	ldd	r24, Y+1	; 0x01
    384e:	28 2f       	mov	r18, r24
    3850:	30 e0       	ldi	r19, 0x00	; 0
    3852:	c9 01       	movw	r24, r18
    3854:	88 0f       	add	r24, r24
    3856:	99 1f       	adc	r25, r25
    3858:	28 0f       	add	r18, r24
    385a:	39 1f       	adc	r19, r25
    385c:	8b 81       	ldd	r24, Y+3	; 0x03
    385e:	9c 81       	ldd	r25, Y+4	; 0x04
    3860:	fc 01       	movw	r30, r24
    3862:	e2 0f       	add	r30, r18
    3864:	f3 1f       	adc	r31, r19
    3866:	50 81       	ld	r21, Z
    3868:	89 81       	ldd	r24, Y+1	; 0x01
    386a:	28 2f       	mov	r18, r24
    386c:	30 e0       	ldi	r19, 0x00	; 0
    386e:	c9 01       	movw	r24, r18
    3870:	88 0f       	add	r24, r24
    3872:	99 1f       	adc	r25, r25
    3874:	28 0f       	add	r18, r24
    3876:	39 1f       	adc	r19, r25
    3878:	8b 81       	ldd	r24, Y+3	; 0x03
    387a:	9c 81       	ldd	r25, Y+4	; 0x04
    387c:	fc 01       	movw	r30, r24
    387e:	e2 0f       	add	r30, r18
    3880:	f3 1f       	adc	r31, r19
    3882:	41 81       	ldd	r20, Z+1	; 0x01
    3884:	89 81       	ldd	r24, Y+1	; 0x01
    3886:	28 2f       	mov	r18, r24
    3888:	30 e0       	ldi	r19, 0x00	; 0
    388a:	c9 01       	movw	r24, r18
    388c:	88 0f       	add	r24, r24
    388e:	99 1f       	adc	r25, r25
    3890:	28 0f       	add	r18, r24
    3892:	39 1f       	adc	r19, r25
    3894:	8b 81       	ldd	r24, Y+3	; 0x03
    3896:	9c 81       	ldd	r25, Y+4	; 0x04
    3898:	fc 01       	movw	r30, r24
    389a:	e2 0f       	add	r30, r18
    389c:	f3 1f       	adc	r31, r19
    389e:	92 81       	ldd	r25, Z+2	; 0x02
    38a0:	85 2f       	mov	r24, r21
    38a2:	64 2f       	mov	r22, r20
    38a4:	49 2f       	mov	r20, r25
    38a6:	0e 94 18 17 	call	0x2e30	; 0x2e30 <DIO_enuSetPinVal>
    38aa:	8a 83       	std	Y+2, r24	; 0x02
	
	if(Copy_pAstrSwConfig != NULL)
	{
		u8 Local_u8Iterator;
		
		for(Local_u8Iterator = 0; Local_u8Iterator < SW_NUM; Local_u8Iterator++)
    38ac:	89 81       	ldd	r24, Y+1	; 0x01
    38ae:	8f 5f       	subi	r24, 0xFF	; 255
    38b0:	89 83       	std	Y+1, r24	; 0x01
    38b2:	89 81       	ldd	r24, Y+1	; 0x01
    38b4:	82 30       	cpi	r24, 0x02	; 2
    38b6:	08 f4       	brcc	.+2      	; 0x38ba <Switch_enuINIT+0xd4>
    38b8:	a7 cf       	rjmp	.-178    	; 0x3808 <Switch_enuINIT+0x22>
    38ba:	02 c0       	rjmp	.+4      	; 0x38c0 <Switch_enuINIT+0xda>
			Local_enuErrorState = DIO_enuSetPinVal(Copy_pAstrSwConfig[Local_u8Iterator].SW_u8PortID, Copy_pAstrSwConfig[Local_u8Iterator].SW_u8PinID, Copy_pAstrSwConfig[Local_u8Iterator].SW_u8Status);	
		}
	}
	else
	{
		Local_enuErrorState = ES_NULL_POINTER;
    38bc:	82 e0       	ldi	r24, 0x02	; 2
    38be:	8a 83       	std	Y+2, r24	; 0x02
	}
	
	return Local_enuErrorState;
    38c0:	8a 81       	ldd	r24, Y+2	; 0x02
}
    38c2:	0f 90       	pop	r0
    38c4:	0f 90       	pop	r0
    38c6:	0f 90       	pop	r0
    38c8:	0f 90       	pop	r0
    38ca:	cf 91       	pop	r28
    38cc:	df 91       	pop	r29
    38ce:	08 95       	ret

000038d0 <Switch_enuGetState>:

ES_t Switch_enuGetState(SW_t * Copy_pstrSwConfigID, u8 * Copy_pu8SwitchState)
{
    38d0:	df 93       	push	r29
    38d2:	cf 93       	push	r28
    38d4:	00 d0       	rcall	.+0      	; 0x38d6 <Switch_enuGetState+0x6>
    38d6:	00 d0       	rcall	.+0      	; 0x38d8 <Switch_enuGetState+0x8>
    38d8:	0f 92       	push	r0
    38da:	cd b7       	in	r28, 0x3d	; 61
    38dc:	de b7       	in	r29, 0x3e	; 62
    38de:	9b 83       	std	Y+3, r25	; 0x03
    38e0:	8a 83       	std	Y+2, r24	; 0x02
    38e2:	7d 83       	std	Y+5, r23	; 0x05
    38e4:	6c 83       	std	Y+4, r22	; 0x04
	ES_t Local_enuErrorState = ES_NOK;
    38e6:	81 e0       	ldi	r24, 0x01	; 1
    38e8:	89 83       	std	Y+1, r24	; 0x01
	
	if(Copy_pstrSwConfigID != NULL && Copy_pu8SwitchState != NULL)
    38ea:	8a 81       	ldd	r24, Y+2	; 0x02
    38ec:	9b 81       	ldd	r25, Y+3	; 0x03
    38ee:	00 97       	sbiw	r24, 0x00	; 0
    38f0:	91 f0       	breq	.+36     	; 0x3916 <Switch_enuGetState+0x46>
    38f2:	8c 81       	ldd	r24, Y+4	; 0x04
    38f4:	9d 81       	ldd	r25, Y+5	; 0x05
    38f6:	00 97       	sbiw	r24, 0x00	; 0
    38f8:	71 f0       	breq	.+28     	; 0x3916 <Switch_enuGetState+0x46>
	{
		Local_enuErrorState = DIO_enuGetPinVal(Copy_pstrSwConfigID->SW_u8PortID, Copy_pstrSwConfigID->SW_u8PinID, Copy_pu8SwitchState);
    38fa:	ea 81       	ldd	r30, Y+2	; 0x02
    38fc:	fb 81       	ldd	r31, Y+3	; 0x03
    38fe:	80 81       	ld	r24, Z
    3900:	ea 81       	ldd	r30, Y+2	; 0x02
    3902:	fb 81       	ldd	r31, Y+3	; 0x03
    3904:	91 81       	ldd	r25, Z+1	; 0x01
    3906:	2c 81       	ldd	r18, Y+4	; 0x04
    3908:	3d 81       	ldd	r19, Y+5	; 0x05
    390a:	69 2f       	mov	r22, r25
    390c:	a9 01       	movw	r20, r18
    390e:	0e 94 04 18 	call	0x3008	; 0x3008 <DIO_enuGetPinVal>
    3912:	89 83       	std	Y+1, r24	; 0x01
    3914:	02 c0       	rjmp	.+4      	; 0x391a <Switch_enuGetState+0x4a>
	}
	else
	{
		Local_enuErrorState = ES_NULL_POINTER;
    3916:	82 e0       	ldi	r24, 0x02	; 2
    3918:	89 83       	std	Y+1, r24	; 0x01
	}
	
	return Local_enuErrorState;
    391a:	89 81       	ldd	r24, Y+1	; 0x01
}
    391c:	0f 90       	pop	r0
    391e:	0f 90       	pop	r0
    3920:	0f 90       	pop	r0
    3922:	0f 90       	pop	r0
    3924:	0f 90       	pop	r0
    3926:	cf 91       	pop	r28
    3928:	df 91       	pop	r29
    392a:	08 95       	ret

0000392c <Switch_enuChangeMode>:

ES_t Switch_enuChangeMode(SW_t * Copy_pstrSwConfigID, u8 Copy_u8SwitchStatus)
{
    392c:	df 93       	push	r29
    392e:	cf 93       	push	r28
    3930:	00 d0       	rcall	.+0      	; 0x3932 <Switch_enuChangeMode+0x6>
    3932:	00 d0       	rcall	.+0      	; 0x3934 <Switch_enuChangeMode+0x8>
    3934:	cd b7       	in	r28, 0x3d	; 61
    3936:	de b7       	in	r29, 0x3e	; 62
    3938:	9b 83       	std	Y+3, r25	; 0x03
    393a:	8a 83       	std	Y+2, r24	; 0x02
    393c:	6c 83       	std	Y+4, r22	; 0x04
	ES_t Local_enuErrorState = ES_NOK;
    393e:	81 e0       	ldi	r24, 0x01	; 1
    3940:	89 83       	std	Y+1, r24	; 0x01
	
	if(Copy_pstrSwConfigID != NULL)
    3942:	8a 81       	ldd	r24, Y+2	; 0x02
    3944:	9b 81       	ldd	r25, Y+3	; 0x03
    3946:	00 97       	sbiw	r24, 0x00	; 0
    3948:	b9 f0       	breq	.+46     	; 0x3978 <Switch_enuChangeMode+0x4c>
	{
		Local_enuErrorState = DIO_enuSetPinDirection(Copy_pstrSwConfigID->SW_u8PortID, Copy_pstrSwConfigID->SW_u8PinID, DIO_u8INPUT);
    394a:	ea 81       	ldd	r30, Y+2	; 0x02
    394c:	fb 81       	ldd	r31, Y+3	; 0x03
    394e:	80 81       	ld	r24, Z
    3950:	ea 81       	ldd	r30, Y+2	; 0x02
    3952:	fb 81       	ldd	r31, Y+3	; 0x03
    3954:	91 81       	ldd	r25, Z+1	; 0x01
    3956:	69 2f       	mov	r22, r25
    3958:	40 e0       	ldi	r20, 0x00	; 0
    395a:	0e 94 2c 16 	call	0x2c58	; 0x2c58 <DIO_enuSetPinDirection>
    395e:	89 83       	std	Y+1, r24	; 0x01
		Local_enuErrorState = DIO_enuSetPinVal(Copy_pstrSwConfigID->SW_u8PortID, Copy_pstrSwConfigID->SW_u8PinID, Copy_u8SwitchStatus);
    3960:	ea 81       	ldd	r30, Y+2	; 0x02
    3962:	fb 81       	ldd	r31, Y+3	; 0x03
    3964:	80 81       	ld	r24, Z
    3966:	ea 81       	ldd	r30, Y+2	; 0x02
    3968:	fb 81       	ldd	r31, Y+3	; 0x03
    396a:	91 81       	ldd	r25, Z+1	; 0x01
    396c:	69 2f       	mov	r22, r25
    396e:	4c 81       	ldd	r20, Y+4	; 0x04
    3970:	0e 94 18 17 	call	0x2e30	; 0x2e30 <DIO_enuSetPinVal>
    3974:	89 83       	std	Y+1, r24	; 0x01
    3976:	02 c0       	rjmp	.+4      	; 0x397c <Switch_enuChangeMode+0x50>
	}
	else
	{
		Local_enuErrorState = ES_NULL_POINTER;
    3978:	82 e0       	ldi	r24, 0x02	; 2
    397a:	89 83       	std	Y+1, r24	; 0x01
	}
	
	return Local_enuErrorState;
    397c:	89 81       	ldd	r24, Y+1	; 0x01
}
    397e:	0f 90       	pop	r0
    3980:	0f 90       	pop	r0
    3982:	0f 90       	pop	r0
    3984:	0f 90       	pop	r0
    3986:	cf 91       	pop	r28
    3988:	df 91       	pop	r29
    398a:	08 95       	ret

0000398c <Seven_Segment_enuInit>:
#include "Seven_Segment_priv.h"

extern SEG_t SEV_SEG_AstrSEGConfig[SEG_NUM];

ES_t Seven_Segment_enuInit(SEG_t *Copy_pAstrSEG_Config)
{
    398c:	df 93       	push	r29
    398e:	cf 93       	push	r28
    3990:	cd b7       	in	r28, 0x3d	; 61
    3992:	de b7       	in	r29, 0x3e	; 62
    3994:	2a 97       	sbiw	r28, 0x0a	; 10
    3996:	0f b6       	in	r0, 0x3f	; 63
    3998:	f8 94       	cli
    399a:	de bf       	out	0x3e, r29	; 62
    399c:	0f be       	out	0x3f, r0	; 63
    399e:	cd bf       	out	0x3d, r28	; 61
    39a0:	99 87       	std	Y+9, r25	; 0x09
    39a2:	88 87       	std	Y+8, r24	; 0x08
	ES_t Local_enuErrorState = ES_NOK;
    39a4:	81 e0       	ldi	r24, 0x01	; 1
    39a6:	8f 83       	std	Y+7, r24	; 0x07
	
	u8 Local_u8Iterator = 0;
    39a8:	1e 82       	std	Y+6, r1	; 0x06
	
	u8 Local_u8Iterator_Error = 0;
    39aa:	1d 82       	std	Y+5, r1	; 0x05
	u32 Local_u32CheckError = 0;
    39ac:	19 82       	std	Y+1, r1	; 0x01
    39ae:	1a 82       	std	Y+2, r1	; 0x02
    39b0:	1b 82       	std	Y+3, r1	; 0x03
    39b2:	1c 82       	std	Y+4, r1	; 0x04
	
	if(Copy_pAstrSEG_Config != NULL)
    39b4:	88 85       	ldd	r24, Y+8	; 0x08
    39b6:	99 85       	ldd	r25, Y+9	; 0x09
    39b8:	00 97       	sbiw	r24, 0x00	; 0
    39ba:	09 f4       	brne	.+2      	; 0x39be <Seven_Segment_enuInit+0x32>
    39bc:	9c c3       	rjmp	.+1848   	; 0x40f6 <Seven_Segment_enuInit+0x76a>
	{
		for(Local_u8Iterator = 0; Local_u8Iterator < SEG_NUM; Local_u8Iterator++)
    39be:	1e 82       	std	Y+6, r1	; 0x06
    39c0:	6a c3       	rjmp	.+1748   	; 0x4096 <Seven_Segment_enuInit+0x70a>
		{
			Local_u8Iterator_Error = 0;
    39c2:	1d 82       	std	Y+5, r1	; 0x05
			Local_u32CheckError |= (DIO_enuSetPinDirection(Copy_pAstrSEG_Config[Local_u8Iterator].SEG_APORT, Copy_pAstrSEG_Config[Local_u8Iterator].SEG_APIN, DIO_u8OUTPUT) << Local_u8Iterator_Error);
    39c4:	8e 81       	ldd	r24, Y+6	; 0x06
    39c6:	48 2f       	mov	r20, r24
    39c8:	50 e0       	ldi	r21, 0x00	; 0
    39ca:	ca 01       	movw	r24, r20
    39cc:	88 0f       	add	r24, r24
    39ce:	99 1f       	adc	r25, r25
    39d0:	9c 01       	movw	r18, r24
    39d2:	22 0f       	add	r18, r18
    39d4:	33 1f       	adc	r19, r19
    39d6:	22 0f       	add	r18, r18
    39d8:	33 1f       	adc	r19, r19
    39da:	22 0f       	add	r18, r18
    39dc:	33 1f       	adc	r19, r19
    39de:	82 0f       	add	r24, r18
    39e0:	93 1f       	adc	r25, r19
    39e2:	9c 01       	movw	r18, r24
    39e4:	24 0f       	add	r18, r20
    39e6:	35 1f       	adc	r19, r21
    39e8:	88 85       	ldd	r24, Y+8	; 0x08
    39ea:	99 85       	ldd	r25, Y+9	; 0x09
    39ec:	fc 01       	movw	r30, r24
    39ee:	e2 0f       	add	r30, r18
    39f0:	f3 1f       	adc	r31, r19
    39f2:	60 81       	ld	r22, Z
    39f4:	8e 81       	ldd	r24, Y+6	; 0x06
    39f6:	48 2f       	mov	r20, r24
    39f8:	50 e0       	ldi	r21, 0x00	; 0
    39fa:	ca 01       	movw	r24, r20
    39fc:	88 0f       	add	r24, r24
    39fe:	99 1f       	adc	r25, r25
    3a00:	9c 01       	movw	r18, r24
    3a02:	22 0f       	add	r18, r18
    3a04:	33 1f       	adc	r19, r19
    3a06:	22 0f       	add	r18, r18
    3a08:	33 1f       	adc	r19, r19
    3a0a:	22 0f       	add	r18, r18
    3a0c:	33 1f       	adc	r19, r19
    3a0e:	82 0f       	add	r24, r18
    3a10:	93 1f       	adc	r25, r19
    3a12:	9c 01       	movw	r18, r24
    3a14:	24 0f       	add	r18, r20
    3a16:	35 1f       	adc	r19, r21
    3a18:	88 85       	ldd	r24, Y+8	; 0x08
    3a1a:	99 85       	ldd	r25, Y+9	; 0x09
    3a1c:	fc 01       	movw	r30, r24
    3a1e:	e2 0f       	add	r30, r18
    3a20:	f3 1f       	adc	r31, r19
    3a22:	91 81       	ldd	r25, Z+1	; 0x01
    3a24:	86 2f       	mov	r24, r22
    3a26:	69 2f       	mov	r22, r25
    3a28:	41 e0       	ldi	r20, 0x01	; 1
    3a2a:	0e 94 2c 16 	call	0x2c58	; 0x2c58 <DIO_enuSetPinDirection>
    3a2e:	28 2f       	mov	r18, r24
    3a30:	30 e0       	ldi	r19, 0x00	; 0
    3a32:	8d 81       	ldd	r24, Y+5	; 0x05
    3a34:	88 2f       	mov	r24, r24
    3a36:	90 e0       	ldi	r25, 0x00	; 0
    3a38:	a9 01       	movw	r20, r18
    3a3a:	02 c0       	rjmp	.+4      	; 0x3a40 <Seven_Segment_enuInit+0xb4>
    3a3c:	44 0f       	add	r20, r20
    3a3e:	55 1f       	adc	r21, r21
    3a40:	8a 95       	dec	r24
    3a42:	e2 f7       	brpl	.-8      	; 0x3a3c <Seven_Segment_enuInit+0xb0>
    3a44:	ca 01       	movw	r24, r20
    3a46:	9c 01       	movw	r18, r24
    3a48:	44 27       	eor	r20, r20
    3a4a:	37 fd       	sbrc	r19, 7
    3a4c:	40 95       	com	r20
    3a4e:	54 2f       	mov	r21, r20
    3a50:	89 81       	ldd	r24, Y+1	; 0x01
    3a52:	9a 81       	ldd	r25, Y+2	; 0x02
    3a54:	ab 81       	ldd	r26, Y+3	; 0x03
    3a56:	bc 81       	ldd	r27, Y+4	; 0x04
    3a58:	82 2b       	or	r24, r18
    3a5a:	93 2b       	or	r25, r19
    3a5c:	a4 2b       	or	r26, r20
    3a5e:	b5 2b       	or	r27, r21
    3a60:	89 83       	std	Y+1, r24	; 0x01
    3a62:	9a 83       	std	Y+2, r25	; 0x02
    3a64:	ab 83       	std	Y+3, r26	; 0x03
    3a66:	bc 83       	std	Y+4, r27	; 0x04
			Local_u32CheckError |= (DIO_enuSetPinDirection(Copy_pAstrSEG_Config[Local_u8Iterator].SEG_BPORT, Copy_pAstrSEG_Config[Local_u8Iterator].SEG_BPIN, DIO_u8OUTPUT) << (Local_u8Iterator_Error += ERROR_STATE_SIZE));
    3a68:	8e 81       	ldd	r24, Y+6	; 0x06
    3a6a:	48 2f       	mov	r20, r24
    3a6c:	50 e0       	ldi	r21, 0x00	; 0
    3a6e:	ca 01       	movw	r24, r20
    3a70:	88 0f       	add	r24, r24
    3a72:	99 1f       	adc	r25, r25
    3a74:	9c 01       	movw	r18, r24
    3a76:	22 0f       	add	r18, r18
    3a78:	33 1f       	adc	r19, r19
    3a7a:	22 0f       	add	r18, r18
    3a7c:	33 1f       	adc	r19, r19
    3a7e:	22 0f       	add	r18, r18
    3a80:	33 1f       	adc	r19, r19
    3a82:	82 0f       	add	r24, r18
    3a84:	93 1f       	adc	r25, r19
    3a86:	9c 01       	movw	r18, r24
    3a88:	24 0f       	add	r18, r20
    3a8a:	35 1f       	adc	r19, r21
    3a8c:	88 85       	ldd	r24, Y+8	; 0x08
    3a8e:	99 85       	ldd	r25, Y+9	; 0x09
    3a90:	fc 01       	movw	r30, r24
    3a92:	e2 0f       	add	r30, r18
    3a94:	f3 1f       	adc	r31, r19
    3a96:	62 81       	ldd	r22, Z+2	; 0x02
    3a98:	8e 81       	ldd	r24, Y+6	; 0x06
    3a9a:	48 2f       	mov	r20, r24
    3a9c:	50 e0       	ldi	r21, 0x00	; 0
    3a9e:	ca 01       	movw	r24, r20
    3aa0:	88 0f       	add	r24, r24
    3aa2:	99 1f       	adc	r25, r25
    3aa4:	9c 01       	movw	r18, r24
    3aa6:	22 0f       	add	r18, r18
    3aa8:	33 1f       	adc	r19, r19
    3aaa:	22 0f       	add	r18, r18
    3aac:	33 1f       	adc	r19, r19
    3aae:	22 0f       	add	r18, r18
    3ab0:	33 1f       	adc	r19, r19
    3ab2:	82 0f       	add	r24, r18
    3ab4:	93 1f       	adc	r25, r19
    3ab6:	9c 01       	movw	r18, r24
    3ab8:	24 0f       	add	r18, r20
    3aba:	35 1f       	adc	r19, r21
    3abc:	88 85       	ldd	r24, Y+8	; 0x08
    3abe:	99 85       	ldd	r25, Y+9	; 0x09
    3ac0:	fc 01       	movw	r30, r24
    3ac2:	e2 0f       	add	r30, r18
    3ac4:	f3 1f       	adc	r31, r19
    3ac6:	93 81       	ldd	r25, Z+3	; 0x03
    3ac8:	86 2f       	mov	r24, r22
    3aca:	69 2f       	mov	r22, r25
    3acc:	41 e0       	ldi	r20, 0x01	; 1
    3ace:	0e 94 2c 16 	call	0x2c58	; 0x2c58 <DIO_enuSetPinDirection>
    3ad2:	28 2f       	mov	r18, r24
    3ad4:	30 e0       	ldi	r19, 0x00	; 0
    3ad6:	8d 81       	ldd	r24, Y+5	; 0x05
    3ad8:	8d 5f       	subi	r24, 0xFD	; 253
    3ada:	8d 83       	std	Y+5, r24	; 0x05
    3adc:	8d 81       	ldd	r24, Y+5	; 0x05
    3ade:	88 2f       	mov	r24, r24
    3ae0:	90 e0       	ldi	r25, 0x00	; 0
    3ae2:	a9 01       	movw	r20, r18
    3ae4:	02 c0       	rjmp	.+4      	; 0x3aea <Seven_Segment_enuInit+0x15e>
    3ae6:	44 0f       	add	r20, r20
    3ae8:	55 1f       	adc	r21, r21
    3aea:	8a 95       	dec	r24
    3aec:	e2 f7       	brpl	.-8      	; 0x3ae6 <Seven_Segment_enuInit+0x15a>
    3aee:	ca 01       	movw	r24, r20
    3af0:	9c 01       	movw	r18, r24
    3af2:	44 27       	eor	r20, r20
    3af4:	37 fd       	sbrc	r19, 7
    3af6:	40 95       	com	r20
    3af8:	54 2f       	mov	r21, r20
    3afa:	89 81       	ldd	r24, Y+1	; 0x01
    3afc:	9a 81       	ldd	r25, Y+2	; 0x02
    3afe:	ab 81       	ldd	r26, Y+3	; 0x03
    3b00:	bc 81       	ldd	r27, Y+4	; 0x04
    3b02:	82 2b       	or	r24, r18
    3b04:	93 2b       	or	r25, r19
    3b06:	a4 2b       	or	r26, r20
    3b08:	b5 2b       	or	r27, r21
    3b0a:	89 83       	std	Y+1, r24	; 0x01
    3b0c:	9a 83       	std	Y+2, r25	; 0x02
    3b0e:	ab 83       	std	Y+3, r26	; 0x03
    3b10:	bc 83       	std	Y+4, r27	; 0x04
			Local_u32CheckError |= (DIO_enuSetPinDirection(Copy_pAstrSEG_Config[Local_u8Iterator].SEG_CPORT, Copy_pAstrSEG_Config[Local_u8Iterator].SEG_CPIN, DIO_u8OUTPUT) << (Local_u8Iterator_Error += ERROR_STATE_SIZE));
    3b12:	8e 81       	ldd	r24, Y+6	; 0x06
    3b14:	48 2f       	mov	r20, r24
    3b16:	50 e0       	ldi	r21, 0x00	; 0
    3b18:	ca 01       	movw	r24, r20
    3b1a:	88 0f       	add	r24, r24
    3b1c:	99 1f       	adc	r25, r25
    3b1e:	9c 01       	movw	r18, r24
    3b20:	22 0f       	add	r18, r18
    3b22:	33 1f       	adc	r19, r19
    3b24:	22 0f       	add	r18, r18
    3b26:	33 1f       	adc	r19, r19
    3b28:	22 0f       	add	r18, r18
    3b2a:	33 1f       	adc	r19, r19
    3b2c:	82 0f       	add	r24, r18
    3b2e:	93 1f       	adc	r25, r19
    3b30:	9c 01       	movw	r18, r24
    3b32:	24 0f       	add	r18, r20
    3b34:	35 1f       	adc	r19, r21
    3b36:	88 85       	ldd	r24, Y+8	; 0x08
    3b38:	99 85       	ldd	r25, Y+9	; 0x09
    3b3a:	fc 01       	movw	r30, r24
    3b3c:	e2 0f       	add	r30, r18
    3b3e:	f3 1f       	adc	r31, r19
    3b40:	64 81       	ldd	r22, Z+4	; 0x04
    3b42:	8e 81       	ldd	r24, Y+6	; 0x06
    3b44:	48 2f       	mov	r20, r24
    3b46:	50 e0       	ldi	r21, 0x00	; 0
    3b48:	ca 01       	movw	r24, r20
    3b4a:	88 0f       	add	r24, r24
    3b4c:	99 1f       	adc	r25, r25
    3b4e:	9c 01       	movw	r18, r24
    3b50:	22 0f       	add	r18, r18
    3b52:	33 1f       	adc	r19, r19
    3b54:	22 0f       	add	r18, r18
    3b56:	33 1f       	adc	r19, r19
    3b58:	22 0f       	add	r18, r18
    3b5a:	33 1f       	adc	r19, r19
    3b5c:	82 0f       	add	r24, r18
    3b5e:	93 1f       	adc	r25, r19
    3b60:	9c 01       	movw	r18, r24
    3b62:	24 0f       	add	r18, r20
    3b64:	35 1f       	adc	r19, r21
    3b66:	88 85       	ldd	r24, Y+8	; 0x08
    3b68:	99 85       	ldd	r25, Y+9	; 0x09
    3b6a:	fc 01       	movw	r30, r24
    3b6c:	e2 0f       	add	r30, r18
    3b6e:	f3 1f       	adc	r31, r19
    3b70:	95 81       	ldd	r25, Z+5	; 0x05
    3b72:	86 2f       	mov	r24, r22
    3b74:	69 2f       	mov	r22, r25
    3b76:	41 e0       	ldi	r20, 0x01	; 1
    3b78:	0e 94 2c 16 	call	0x2c58	; 0x2c58 <DIO_enuSetPinDirection>
    3b7c:	28 2f       	mov	r18, r24
    3b7e:	30 e0       	ldi	r19, 0x00	; 0
    3b80:	8d 81       	ldd	r24, Y+5	; 0x05
    3b82:	8d 5f       	subi	r24, 0xFD	; 253
    3b84:	8d 83       	std	Y+5, r24	; 0x05
    3b86:	8d 81       	ldd	r24, Y+5	; 0x05
    3b88:	88 2f       	mov	r24, r24
    3b8a:	90 e0       	ldi	r25, 0x00	; 0
    3b8c:	a9 01       	movw	r20, r18
    3b8e:	02 c0       	rjmp	.+4      	; 0x3b94 <Seven_Segment_enuInit+0x208>
    3b90:	44 0f       	add	r20, r20
    3b92:	55 1f       	adc	r21, r21
    3b94:	8a 95       	dec	r24
    3b96:	e2 f7       	brpl	.-8      	; 0x3b90 <Seven_Segment_enuInit+0x204>
    3b98:	ca 01       	movw	r24, r20
    3b9a:	9c 01       	movw	r18, r24
    3b9c:	44 27       	eor	r20, r20
    3b9e:	37 fd       	sbrc	r19, 7
    3ba0:	40 95       	com	r20
    3ba2:	54 2f       	mov	r21, r20
    3ba4:	89 81       	ldd	r24, Y+1	; 0x01
    3ba6:	9a 81       	ldd	r25, Y+2	; 0x02
    3ba8:	ab 81       	ldd	r26, Y+3	; 0x03
    3baa:	bc 81       	ldd	r27, Y+4	; 0x04
    3bac:	82 2b       	or	r24, r18
    3bae:	93 2b       	or	r25, r19
    3bb0:	a4 2b       	or	r26, r20
    3bb2:	b5 2b       	or	r27, r21
    3bb4:	89 83       	std	Y+1, r24	; 0x01
    3bb6:	9a 83       	std	Y+2, r25	; 0x02
    3bb8:	ab 83       	std	Y+3, r26	; 0x03
    3bba:	bc 83       	std	Y+4, r27	; 0x04
			Local_u32CheckError |= (DIO_enuSetPinDirection(Copy_pAstrSEG_Config[Local_u8Iterator].SEG_DPORT, Copy_pAstrSEG_Config[Local_u8Iterator].SEG_DPIN, DIO_u8OUTPUT) << (Local_u8Iterator_Error += ERROR_STATE_SIZE));
    3bbc:	8e 81       	ldd	r24, Y+6	; 0x06
    3bbe:	48 2f       	mov	r20, r24
    3bc0:	50 e0       	ldi	r21, 0x00	; 0
    3bc2:	ca 01       	movw	r24, r20
    3bc4:	88 0f       	add	r24, r24
    3bc6:	99 1f       	adc	r25, r25
    3bc8:	9c 01       	movw	r18, r24
    3bca:	22 0f       	add	r18, r18
    3bcc:	33 1f       	adc	r19, r19
    3bce:	22 0f       	add	r18, r18
    3bd0:	33 1f       	adc	r19, r19
    3bd2:	22 0f       	add	r18, r18
    3bd4:	33 1f       	adc	r19, r19
    3bd6:	82 0f       	add	r24, r18
    3bd8:	93 1f       	adc	r25, r19
    3bda:	9c 01       	movw	r18, r24
    3bdc:	24 0f       	add	r18, r20
    3bde:	35 1f       	adc	r19, r21
    3be0:	88 85       	ldd	r24, Y+8	; 0x08
    3be2:	99 85       	ldd	r25, Y+9	; 0x09
    3be4:	fc 01       	movw	r30, r24
    3be6:	e2 0f       	add	r30, r18
    3be8:	f3 1f       	adc	r31, r19
    3bea:	66 81       	ldd	r22, Z+6	; 0x06
    3bec:	8e 81       	ldd	r24, Y+6	; 0x06
    3bee:	48 2f       	mov	r20, r24
    3bf0:	50 e0       	ldi	r21, 0x00	; 0
    3bf2:	ca 01       	movw	r24, r20
    3bf4:	88 0f       	add	r24, r24
    3bf6:	99 1f       	adc	r25, r25
    3bf8:	9c 01       	movw	r18, r24
    3bfa:	22 0f       	add	r18, r18
    3bfc:	33 1f       	adc	r19, r19
    3bfe:	22 0f       	add	r18, r18
    3c00:	33 1f       	adc	r19, r19
    3c02:	22 0f       	add	r18, r18
    3c04:	33 1f       	adc	r19, r19
    3c06:	82 0f       	add	r24, r18
    3c08:	93 1f       	adc	r25, r19
    3c0a:	9c 01       	movw	r18, r24
    3c0c:	24 0f       	add	r18, r20
    3c0e:	35 1f       	adc	r19, r21
    3c10:	88 85       	ldd	r24, Y+8	; 0x08
    3c12:	99 85       	ldd	r25, Y+9	; 0x09
    3c14:	fc 01       	movw	r30, r24
    3c16:	e2 0f       	add	r30, r18
    3c18:	f3 1f       	adc	r31, r19
    3c1a:	97 81       	ldd	r25, Z+7	; 0x07
    3c1c:	86 2f       	mov	r24, r22
    3c1e:	69 2f       	mov	r22, r25
    3c20:	41 e0       	ldi	r20, 0x01	; 1
    3c22:	0e 94 2c 16 	call	0x2c58	; 0x2c58 <DIO_enuSetPinDirection>
    3c26:	28 2f       	mov	r18, r24
    3c28:	30 e0       	ldi	r19, 0x00	; 0
    3c2a:	8d 81       	ldd	r24, Y+5	; 0x05
    3c2c:	8d 5f       	subi	r24, 0xFD	; 253
    3c2e:	8d 83       	std	Y+5, r24	; 0x05
    3c30:	8d 81       	ldd	r24, Y+5	; 0x05
    3c32:	88 2f       	mov	r24, r24
    3c34:	90 e0       	ldi	r25, 0x00	; 0
    3c36:	a9 01       	movw	r20, r18
    3c38:	02 c0       	rjmp	.+4      	; 0x3c3e <Seven_Segment_enuInit+0x2b2>
    3c3a:	44 0f       	add	r20, r20
    3c3c:	55 1f       	adc	r21, r21
    3c3e:	8a 95       	dec	r24
    3c40:	e2 f7       	brpl	.-8      	; 0x3c3a <Seven_Segment_enuInit+0x2ae>
    3c42:	ca 01       	movw	r24, r20
    3c44:	9c 01       	movw	r18, r24
    3c46:	44 27       	eor	r20, r20
    3c48:	37 fd       	sbrc	r19, 7
    3c4a:	40 95       	com	r20
    3c4c:	54 2f       	mov	r21, r20
    3c4e:	89 81       	ldd	r24, Y+1	; 0x01
    3c50:	9a 81       	ldd	r25, Y+2	; 0x02
    3c52:	ab 81       	ldd	r26, Y+3	; 0x03
    3c54:	bc 81       	ldd	r27, Y+4	; 0x04
    3c56:	82 2b       	or	r24, r18
    3c58:	93 2b       	or	r25, r19
    3c5a:	a4 2b       	or	r26, r20
    3c5c:	b5 2b       	or	r27, r21
    3c5e:	89 83       	std	Y+1, r24	; 0x01
    3c60:	9a 83       	std	Y+2, r25	; 0x02
    3c62:	ab 83       	std	Y+3, r26	; 0x03
    3c64:	bc 83       	std	Y+4, r27	; 0x04
			Local_u32CheckError |= (DIO_enuSetPinDirection(Copy_pAstrSEG_Config[Local_u8Iterator].SEG_EPORT, Copy_pAstrSEG_Config[Local_u8Iterator].SEG_EPIN, DIO_u8OUTPUT) << (Local_u8Iterator_Error += ERROR_STATE_SIZE));
    3c66:	8e 81       	ldd	r24, Y+6	; 0x06
    3c68:	48 2f       	mov	r20, r24
    3c6a:	50 e0       	ldi	r21, 0x00	; 0
    3c6c:	ca 01       	movw	r24, r20
    3c6e:	88 0f       	add	r24, r24
    3c70:	99 1f       	adc	r25, r25
    3c72:	9c 01       	movw	r18, r24
    3c74:	22 0f       	add	r18, r18
    3c76:	33 1f       	adc	r19, r19
    3c78:	22 0f       	add	r18, r18
    3c7a:	33 1f       	adc	r19, r19
    3c7c:	22 0f       	add	r18, r18
    3c7e:	33 1f       	adc	r19, r19
    3c80:	82 0f       	add	r24, r18
    3c82:	93 1f       	adc	r25, r19
    3c84:	9c 01       	movw	r18, r24
    3c86:	24 0f       	add	r18, r20
    3c88:	35 1f       	adc	r19, r21
    3c8a:	88 85       	ldd	r24, Y+8	; 0x08
    3c8c:	99 85       	ldd	r25, Y+9	; 0x09
    3c8e:	fc 01       	movw	r30, r24
    3c90:	e2 0f       	add	r30, r18
    3c92:	f3 1f       	adc	r31, r19
    3c94:	60 85       	ldd	r22, Z+8	; 0x08
    3c96:	8e 81       	ldd	r24, Y+6	; 0x06
    3c98:	48 2f       	mov	r20, r24
    3c9a:	50 e0       	ldi	r21, 0x00	; 0
    3c9c:	ca 01       	movw	r24, r20
    3c9e:	88 0f       	add	r24, r24
    3ca0:	99 1f       	adc	r25, r25
    3ca2:	9c 01       	movw	r18, r24
    3ca4:	22 0f       	add	r18, r18
    3ca6:	33 1f       	adc	r19, r19
    3ca8:	22 0f       	add	r18, r18
    3caa:	33 1f       	adc	r19, r19
    3cac:	22 0f       	add	r18, r18
    3cae:	33 1f       	adc	r19, r19
    3cb0:	82 0f       	add	r24, r18
    3cb2:	93 1f       	adc	r25, r19
    3cb4:	9c 01       	movw	r18, r24
    3cb6:	24 0f       	add	r18, r20
    3cb8:	35 1f       	adc	r19, r21
    3cba:	88 85       	ldd	r24, Y+8	; 0x08
    3cbc:	99 85       	ldd	r25, Y+9	; 0x09
    3cbe:	fc 01       	movw	r30, r24
    3cc0:	e2 0f       	add	r30, r18
    3cc2:	f3 1f       	adc	r31, r19
    3cc4:	91 85       	ldd	r25, Z+9	; 0x09
    3cc6:	86 2f       	mov	r24, r22
    3cc8:	69 2f       	mov	r22, r25
    3cca:	41 e0       	ldi	r20, 0x01	; 1
    3ccc:	0e 94 2c 16 	call	0x2c58	; 0x2c58 <DIO_enuSetPinDirection>
    3cd0:	28 2f       	mov	r18, r24
    3cd2:	30 e0       	ldi	r19, 0x00	; 0
    3cd4:	8d 81       	ldd	r24, Y+5	; 0x05
    3cd6:	8d 5f       	subi	r24, 0xFD	; 253
    3cd8:	8d 83       	std	Y+5, r24	; 0x05
    3cda:	8d 81       	ldd	r24, Y+5	; 0x05
    3cdc:	88 2f       	mov	r24, r24
    3cde:	90 e0       	ldi	r25, 0x00	; 0
    3ce0:	a9 01       	movw	r20, r18
    3ce2:	02 c0       	rjmp	.+4      	; 0x3ce8 <Seven_Segment_enuInit+0x35c>
    3ce4:	44 0f       	add	r20, r20
    3ce6:	55 1f       	adc	r21, r21
    3ce8:	8a 95       	dec	r24
    3cea:	e2 f7       	brpl	.-8      	; 0x3ce4 <Seven_Segment_enuInit+0x358>
    3cec:	ca 01       	movw	r24, r20
    3cee:	9c 01       	movw	r18, r24
    3cf0:	44 27       	eor	r20, r20
    3cf2:	37 fd       	sbrc	r19, 7
    3cf4:	40 95       	com	r20
    3cf6:	54 2f       	mov	r21, r20
    3cf8:	89 81       	ldd	r24, Y+1	; 0x01
    3cfa:	9a 81       	ldd	r25, Y+2	; 0x02
    3cfc:	ab 81       	ldd	r26, Y+3	; 0x03
    3cfe:	bc 81       	ldd	r27, Y+4	; 0x04
    3d00:	82 2b       	or	r24, r18
    3d02:	93 2b       	or	r25, r19
    3d04:	a4 2b       	or	r26, r20
    3d06:	b5 2b       	or	r27, r21
    3d08:	89 83       	std	Y+1, r24	; 0x01
    3d0a:	9a 83       	std	Y+2, r25	; 0x02
    3d0c:	ab 83       	std	Y+3, r26	; 0x03
    3d0e:	bc 83       	std	Y+4, r27	; 0x04
			Local_u32CheckError |= (DIO_enuSetPinDirection(Copy_pAstrSEG_Config[Local_u8Iterator].SEG_FPORT, Copy_pAstrSEG_Config[Local_u8Iterator].SEG_FPIN, DIO_u8OUTPUT) << (Local_u8Iterator_Error += ERROR_STATE_SIZE));
    3d10:	8e 81       	ldd	r24, Y+6	; 0x06
    3d12:	48 2f       	mov	r20, r24
    3d14:	50 e0       	ldi	r21, 0x00	; 0
    3d16:	ca 01       	movw	r24, r20
    3d18:	88 0f       	add	r24, r24
    3d1a:	99 1f       	adc	r25, r25
    3d1c:	9c 01       	movw	r18, r24
    3d1e:	22 0f       	add	r18, r18
    3d20:	33 1f       	adc	r19, r19
    3d22:	22 0f       	add	r18, r18
    3d24:	33 1f       	adc	r19, r19
    3d26:	22 0f       	add	r18, r18
    3d28:	33 1f       	adc	r19, r19
    3d2a:	82 0f       	add	r24, r18
    3d2c:	93 1f       	adc	r25, r19
    3d2e:	9c 01       	movw	r18, r24
    3d30:	24 0f       	add	r18, r20
    3d32:	35 1f       	adc	r19, r21
    3d34:	88 85       	ldd	r24, Y+8	; 0x08
    3d36:	99 85       	ldd	r25, Y+9	; 0x09
    3d38:	fc 01       	movw	r30, r24
    3d3a:	e2 0f       	add	r30, r18
    3d3c:	f3 1f       	adc	r31, r19
    3d3e:	62 85       	ldd	r22, Z+10	; 0x0a
    3d40:	8e 81       	ldd	r24, Y+6	; 0x06
    3d42:	48 2f       	mov	r20, r24
    3d44:	50 e0       	ldi	r21, 0x00	; 0
    3d46:	ca 01       	movw	r24, r20
    3d48:	88 0f       	add	r24, r24
    3d4a:	99 1f       	adc	r25, r25
    3d4c:	9c 01       	movw	r18, r24
    3d4e:	22 0f       	add	r18, r18
    3d50:	33 1f       	adc	r19, r19
    3d52:	22 0f       	add	r18, r18
    3d54:	33 1f       	adc	r19, r19
    3d56:	22 0f       	add	r18, r18
    3d58:	33 1f       	adc	r19, r19
    3d5a:	82 0f       	add	r24, r18
    3d5c:	93 1f       	adc	r25, r19
    3d5e:	9c 01       	movw	r18, r24
    3d60:	24 0f       	add	r18, r20
    3d62:	35 1f       	adc	r19, r21
    3d64:	88 85       	ldd	r24, Y+8	; 0x08
    3d66:	99 85       	ldd	r25, Y+9	; 0x09
    3d68:	fc 01       	movw	r30, r24
    3d6a:	e2 0f       	add	r30, r18
    3d6c:	f3 1f       	adc	r31, r19
    3d6e:	93 85       	ldd	r25, Z+11	; 0x0b
    3d70:	86 2f       	mov	r24, r22
    3d72:	69 2f       	mov	r22, r25
    3d74:	41 e0       	ldi	r20, 0x01	; 1
    3d76:	0e 94 2c 16 	call	0x2c58	; 0x2c58 <DIO_enuSetPinDirection>
    3d7a:	28 2f       	mov	r18, r24
    3d7c:	30 e0       	ldi	r19, 0x00	; 0
    3d7e:	8d 81       	ldd	r24, Y+5	; 0x05
    3d80:	8d 5f       	subi	r24, 0xFD	; 253
    3d82:	8d 83       	std	Y+5, r24	; 0x05
    3d84:	8d 81       	ldd	r24, Y+5	; 0x05
    3d86:	88 2f       	mov	r24, r24
    3d88:	90 e0       	ldi	r25, 0x00	; 0
    3d8a:	a9 01       	movw	r20, r18
    3d8c:	02 c0       	rjmp	.+4      	; 0x3d92 <Seven_Segment_enuInit+0x406>
    3d8e:	44 0f       	add	r20, r20
    3d90:	55 1f       	adc	r21, r21
    3d92:	8a 95       	dec	r24
    3d94:	e2 f7       	brpl	.-8      	; 0x3d8e <Seven_Segment_enuInit+0x402>
    3d96:	ca 01       	movw	r24, r20
    3d98:	9c 01       	movw	r18, r24
    3d9a:	44 27       	eor	r20, r20
    3d9c:	37 fd       	sbrc	r19, 7
    3d9e:	40 95       	com	r20
    3da0:	54 2f       	mov	r21, r20
    3da2:	89 81       	ldd	r24, Y+1	; 0x01
    3da4:	9a 81       	ldd	r25, Y+2	; 0x02
    3da6:	ab 81       	ldd	r26, Y+3	; 0x03
    3da8:	bc 81       	ldd	r27, Y+4	; 0x04
    3daa:	82 2b       	or	r24, r18
    3dac:	93 2b       	or	r25, r19
    3dae:	a4 2b       	or	r26, r20
    3db0:	b5 2b       	or	r27, r21
    3db2:	89 83       	std	Y+1, r24	; 0x01
    3db4:	9a 83       	std	Y+2, r25	; 0x02
    3db6:	ab 83       	std	Y+3, r26	; 0x03
    3db8:	bc 83       	std	Y+4, r27	; 0x04
			Local_u32CheckError |= (DIO_enuSetPinDirection(Copy_pAstrSEG_Config[Local_u8Iterator].SEG_GPORT, Copy_pAstrSEG_Config[Local_u8Iterator].SEG_GPIN, DIO_u8OUTPUT) << (Local_u8Iterator_Error += ERROR_STATE_SIZE));
    3dba:	8e 81       	ldd	r24, Y+6	; 0x06
    3dbc:	48 2f       	mov	r20, r24
    3dbe:	50 e0       	ldi	r21, 0x00	; 0
    3dc0:	ca 01       	movw	r24, r20
    3dc2:	88 0f       	add	r24, r24
    3dc4:	99 1f       	adc	r25, r25
    3dc6:	9c 01       	movw	r18, r24
    3dc8:	22 0f       	add	r18, r18
    3dca:	33 1f       	adc	r19, r19
    3dcc:	22 0f       	add	r18, r18
    3dce:	33 1f       	adc	r19, r19
    3dd0:	22 0f       	add	r18, r18
    3dd2:	33 1f       	adc	r19, r19
    3dd4:	82 0f       	add	r24, r18
    3dd6:	93 1f       	adc	r25, r19
    3dd8:	9c 01       	movw	r18, r24
    3dda:	24 0f       	add	r18, r20
    3ddc:	35 1f       	adc	r19, r21
    3dde:	88 85       	ldd	r24, Y+8	; 0x08
    3de0:	99 85       	ldd	r25, Y+9	; 0x09
    3de2:	fc 01       	movw	r30, r24
    3de4:	e2 0f       	add	r30, r18
    3de6:	f3 1f       	adc	r31, r19
    3de8:	64 85       	ldd	r22, Z+12	; 0x0c
    3dea:	8e 81       	ldd	r24, Y+6	; 0x06
    3dec:	48 2f       	mov	r20, r24
    3dee:	50 e0       	ldi	r21, 0x00	; 0
    3df0:	ca 01       	movw	r24, r20
    3df2:	88 0f       	add	r24, r24
    3df4:	99 1f       	adc	r25, r25
    3df6:	9c 01       	movw	r18, r24
    3df8:	22 0f       	add	r18, r18
    3dfa:	33 1f       	adc	r19, r19
    3dfc:	22 0f       	add	r18, r18
    3dfe:	33 1f       	adc	r19, r19
    3e00:	22 0f       	add	r18, r18
    3e02:	33 1f       	adc	r19, r19
    3e04:	82 0f       	add	r24, r18
    3e06:	93 1f       	adc	r25, r19
    3e08:	9c 01       	movw	r18, r24
    3e0a:	24 0f       	add	r18, r20
    3e0c:	35 1f       	adc	r19, r21
    3e0e:	88 85       	ldd	r24, Y+8	; 0x08
    3e10:	99 85       	ldd	r25, Y+9	; 0x09
    3e12:	fc 01       	movw	r30, r24
    3e14:	e2 0f       	add	r30, r18
    3e16:	f3 1f       	adc	r31, r19
    3e18:	95 85       	ldd	r25, Z+13	; 0x0d
    3e1a:	86 2f       	mov	r24, r22
    3e1c:	69 2f       	mov	r22, r25
    3e1e:	41 e0       	ldi	r20, 0x01	; 1
    3e20:	0e 94 2c 16 	call	0x2c58	; 0x2c58 <DIO_enuSetPinDirection>
    3e24:	28 2f       	mov	r18, r24
    3e26:	30 e0       	ldi	r19, 0x00	; 0
    3e28:	8d 81       	ldd	r24, Y+5	; 0x05
    3e2a:	8d 5f       	subi	r24, 0xFD	; 253
    3e2c:	8d 83       	std	Y+5, r24	; 0x05
    3e2e:	8d 81       	ldd	r24, Y+5	; 0x05
    3e30:	88 2f       	mov	r24, r24
    3e32:	90 e0       	ldi	r25, 0x00	; 0
    3e34:	a9 01       	movw	r20, r18
    3e36:	02 c0       	rjmp	.+4      	; 0x3e3c <Seven_Segment_enuInit+0x4b0>
    3e38:	44 0f       	add	r20, r20
    3e3a:	55 1f       	adc	r21, r21
    3e3c:	8a 95       	dec	r24
    3e3e:	e2 f7       	brpl	.-8      	; 0x3e38 <Seven_Segment_enuInit+0x4ac>
    3e40:	ca 01       	movw	r24, r20
    3e42:	9c 01       	movw	r18, r24
    3e44:	44 27       	eor	r20, r20
    3e46:	37 fd       	sbrc	r19, 7
    3e48:	40 95       	com	r20
    3e4a:	54 2f       	mov	r21, r20
    3e4c:	89 81       	ldd	r24, Y+1	; 0x01
    3e4e:	9a 81       	ldd	r25, Y+2	; 0x02
    3e50:	ab 81       	ldd	r26, Y+3	; 0x03
    3e52:	bc 81       	ldd	r27, Y+4	; 0x04
    3e54:	82 2b       	or	r24, r18
    3e56:	93 2b       	or	r25, r19
    3e58:	a4 2b       	or	r26, r20
    3e5a:	b5 2b       	or	r27, r21
    3e5c:	89 83       	std	Y+1, r24	; 0x01
    3e5e:	9a 83       	std	Y+2, r25	; 0x02
    3e60:	ab 83       	std	Y+3, r26	; 0x03
    3e62:	bc 83       	std	Y+4, r27	; 0x04
			
			if(Copy_pAstrSEG_Config[Local_u8Iterator].SEG_CMN_PORT != NOT_CONNECTED && Copy_pAstrSEG_Config[Local_u8Iterator].SEG_CMN_PIN != NOT_CONNECTED)
    3e64:	8e 81       	ldd	r24, Y+6	; 0x06
    3e66:	48 2f       	mov	r20, r24
    3e68:	50 e0       	ldi	r21, 0x00	; 0
    3e6a:	ca 01       	movw	r24, r20
    3e6c:	88 0f       	add	r24, r24
    3e6e:	99 1f       	adc	r25, r25
    3e70:	9c 01       	movw	r18, r24
    3e72:	22 0f       	add	r18, r18
    3e74:	33 1f       	adc	r19, r19
    3e76:	22 0f       	add	r18, r18
    3e78:	33 1f       	adc	r19, r19
    3e7a:	22 0f       	add	r18, r18
    3e7c:	33 1f       	adc	r19, r19
    3e7e:	82 0f       	add	r24, r18
    3e80:	93 1f       	adc	r25, r19
    3e82:	9c 01       	movw	r18, r24
    3e84:	24 0f       	add	r18, r20
    3e86:	35 1f       	adc	r19, r21
    3e88:	88 85       	ldd	r24, Y+8	; 0x08
    3e8a:	99 85       	ldd	r25, Y+9	; 0x09
    3e8c:	fc 01       	movw	r30, r24
    3e8e:	e2 0f       	add	r30, r18
    3e90:	f3 1f       	adc	r31, r19
    3e92:	86 85       	ldd	r24, Z+14	; 0x0e
    3e94:	8a 30       	cpi	r24, 0x0A	; 10
    3e96:	09 f4       	brne	.+2      	; 0x3e9a <Seven_Segment_enuInit+0x50e>
    3e98:	70 c0       	rjmp	.+224    	; 0x3f7a <Seven_Segment_enuInit+0x5ee>
    3e9a:	8e 81       	ldd	r24, Y+6	; 0x06
    3e9c:	48 2f       	mov	r20, r24
    3e9e:	50 e0       	ldi	r21, 0x00	; 0
    3ea0:	ca 01       	movw	r24, r20
    3ea2:	88 0f       	add	r24, r24
    3ea4:	99 1f       	adc	r25, r25
    3ea6:	9c 01       	movw	r18, r24
    3ea8:	22 0f       	add	r18, r18
    3eaa:	33 1f       	adc	r19, r19
    3eac:	22 0f       	add	r18, r18
    3eae:	33 1f       	adc	r19, r19
    3eb0:	22 0f       	add	r18, r18
    3eb2:	33 1f       	adc	r19, r19
    3eb4:	82 0f       	add	r24, r18
    3eb6:	93 1f       	adc	r25, r19
    3eb8:	9c 01       	movw	r18, r24
    3eba:	24 0f       	add	r18, r20
    3ebc:	35 1f       	adc	r19, r21
    3ebe:	88 85       	ldd	r24, Y+8	; 0x08
    3ec0:	99 85       	ldd	r25, Y+9	; 0x09
    3ec2:	fc 01       	movw	r30, r24
    3ec4:	e2 0f       	add	r30, r18
    3ec6:	f3 1f       	adc	r31, r19
    3ec8:	87 85       	ldd	r24, Z+15	; 0x0f
    3eca:	8a 30       	cpi	r24, 0x0A	; 10
    3ecc:	09 f4       	brne	.+2      	; 0x3ed0 <Seven_Segment_enuInit+0x544>
    3ece:	55 c0       	rjmp	.+170    	; 0x3f7a <Seven_Segment_enuInit+0x5ee>
			{
				Local_u32CheckError |= (DIO_enuSetPinDirection(Copy_pAstrSEG_Config[Local_u8Iterator].SEG_CMN_PORT, Copy_pAstrSEG_Config[Local_u8Iterator].SEG_CMN_PIN, DIO_u8OUTPUT) << (Local_u8Iterator_Error += ERROR_STATE_SIZE));
    3ed0:	8e 81       	ldd	r24, Y+6	; 0x06
    3ed2:	48 2f       	mov	r20, r24
    3ed4:	50 e0       	ldi	r21, 0x00	; 0
    3ed6:	ca 01       	movw	r24, r20
    3ed8:	88 0f       	add	r24, r24
    3eda:	99 1f       	adc	r25, r25
    3edc:	9c 01       	movw	r18, r24
    3ede:	22 0f       	add	r18, r18
    3ee0:	33 1f       	adc	r19, r19
    3ee2:	22 0f       	add	r18, r18
    3ee4:	33 1f       	adc	r19, r19
    3ee6:	22 0f       	add	r18, r18
    3ee8:	33 1f       	adc	r19, r19
    3eea:	82 0f       	add	r24, r18
    3eec:	93 1f       	adc	r25, r19
    3eee:	9c 01       	movw	r18, r24
    3ef0:	24 0f       	add	r18, r20
    3ef2:	35 1f       	adc	r19, r21
    3ef4:	88 85       	ldd	r24, Y+8	; 0x08
    3ef6:	99 85       	ldd	r25, Y+9	; 0x09
    3ef8:	fc 01       	movw	r30, r24
    3efa:	e2 0f       	add	r30, r18
    3efc:	f3 1f       	adc	r31, r19
    3efe:	66 85       	ldd	r22, Z+14	; 0x0e
    3f00:	8e 81       	ldd	r24, Y+6	; 0x06
    3f02:	48 2f       	mov	r20, r24
    3f04:	50 e0       	ldi	r21, 0x00	; 0
    3f06:	ca 01       	movw	r24, r20
    3f08:	88 0f       	add	r24, r24
    3f0a:	99 1f       	adc	r25, r25
    3f0c:	9c 01       	movw	r18, r24
    3f0e:	22 0f       	add	r18, r18
    3f10:	33 1f       	adc	r19, r19
    3f12:	22 0f       	add	r18, r18
    3f14:	33 1f       	adc	r19, r19
    3f16:	22 0f       	add	r18, r18
    3f18:	33 1f       	adc	r19, r19
    3f1a:	82 0f       	add	r24, r18
    3f1c:	93 1f       	adc	r25, r19
    3f1e:	9c 01       	movw	r18, r24
    3f20:	24 0f       	add	r18, r20
    3f22:	35 1f       	adc	r19, r21
    3f24:	88 85       	ldd	r24, Y+8	; 0x08
    3f26:	99 85       	ldd	r25, Y+9	; 0x09
    3f28:	fc 01       	movw	r30, r24
    3f2a:	e2 0f       	add	r30, r18
    3f2c:	f3 1f       	adc	r31, r19
    3f2e:	97 85       	ldd	r25, Z+15	; 0x0f
    3f30:	86 2f       	mov	r24, r22
    3f32:	69 2f       	mov	r22, r25
    3f34:	41 e0       	ldi	r20, 0x01	; 1
    3f36:	0e 94 2c 16 	call	0x2c58	; 0x2c58 <DIO_enuSetPinDirection>
    3f3a:	28 2f       	mov	r18, r24
    3f3c:	30 e0       	ldi	r19, 0x00	; 0
    3f3e:	8d 81       	ldd	r24, Y+5	; 0x05
    3f40:	8d 5f       	subi	r24, 0xFD	; 253
    3f42:	8d 83       	std	Y+5, r24	; 0x05
    3f44:	8d 81       	ldd	r24, Y+5	; 0x05
    3f46:	88 2f       	mov	r24, r24
    3f48:	90 e0       	ldi	r25, 0x00	; 0
    3f4a:	a9 01       	movw	r20, r18
    3f4c:	02 c0       	rjmp	.+4      	; 0x3f52 <Seven_Segment_enuInit+0x5c6>
    3f4e:	44 0f       	add	r20, r20
    3f50:	55 1f       	adc	r21, r21
    3f52:	8a 95       	dec	r24
    3f54:	e2 f7       	brpl	.-8      	; 0x3f4e <Seven_Segment_enuInit+0x5c2>
    3f56:	ca 01       	movw	r24, r20
    3f58:	9c 01       	movw	r18, r24
    3f5a:	44 27       	eor	r20, r20
    3f5c:	37 fd       	sbrc	r19, 7
    3f5e:	40 95       	com	r20
    3f60:	54 2f       	mov	r21, r20
    3f62:	89 81       	ldd	r24, Y+1	; 0x01
    3f64:	9a 81       	ldd	r25, Y+2	; 0x02
    3f66:	ab 81       	ldd	r26, Y+3	; 0x03
    3f68:	bc 81       	ldd	r27, Y+4	; 0x04
    3f6a:	82 2b       	or	r24, r18
    3f6c:	93 2b       	or	r25, r19
    3f6e:	a4 2b       	or	r26, r20
    3f70:	b5 2b       	or	r27, r21
    3f72:	89 83       	std	Y+1, r24	; 0x01
    3f74:	9a 83       	std	Y+2, r25	; 0x02
    3f76:	ab 83       	std	Y+3, r26	; 0x03
    3f78:	bc 83       	std	Y+4, r27	; 0x04
			}
			
			if(Copy_pAstrSEG_Config[Local_u8Iterator].SEG_DOT_PORT != NOT_CONNECTED && Copy_pAstrSEG_Config[Local_u8Iterator].SEG_DOT_PIN != NOT_CONNECTED)
    3f7a:	8e 81       	ldd	r24, Y+6	; 0x06
    3f7c:	48 2f       	mov	r20, r24
    3f7e:	50 e0       	ldi	r21, 0x00	; 0
    3f80:	ca 01       	movw	r24, r20
    3f82:	88 0f       	add	r24, r24
    3f84:	99 1f       	adc	r25, r25
    3f86:	9c 01       	movw	r18, r24
    3f88:	22 0f       	add	r18, r18
    3f8a:	33 1f       	adc	r19, r19
    3f8c:	22 0f       	add	r18, r18
    3f8e:	33 1f       	adc	r19, r19
    3f90:	22 0f       	add	r18, r18
    3f92:	33 1f       	adc	r19, r19
    3f94:	82 0f       	add	r24, r18
    3f96:	93 1f       	adc	r25, r19
    3f98:	9c 01       	movw	r18, r24
    3f9a:	24 0f       	add	r18, r20
    3f9c:	35 1f       	adc	r19, r21
    3f9e:	88 85       	ldd	r24, Y+8	; 0x08
    3fa0:	99 85       	ldd	r25, Y+9	; 0x09
    3fa2:	fc 01       	movw	r30, r24
    3fa4:	e2 0f       	add	r30, r18
    3fa6:	f3 1f       	adc	r31, r19
    3fa8:	80 89       	ldd	r24, Z+16	; 0x10
    3faa:	8a 30       	cpi	r24, 0x0A	; 10
    3fac:	09 f4       	brne	.+2      	; 0x3fb0 <Seven_Segment_enuInit+0x624>
    3fae:	70 c0       	rjmp	.+224    	; 0x4090 <Seven_Segment_enuInit+0x704>
    3fb0:	8e 81       	ldd	r24, Y+6	; 0x06
    3fb2:	48 2f       	mov	r20, r24
    3fb4:	50 e0       	ldi	r21, 0x00	; 0
    3fb6:	ca 01       	movw	r24, r20
    3fb8:	88 0f       	add	r24, r24
    3fba:	99 1f       	adc	r25, r25
    3fbc:	9c 01       	movw	r18, r24
    3fbe:	22 0f       	add	r18, r18
    3fc0:	33 1f       	adc	r19, r19
    3fc2:	22 0f       	add	r18, r18
    3fc4:	33 1f       	adc	r19, r19
    3fc6:	22 0f       	add	r18, r18
    3fc8:	33 1f       	adc	r19, r19
    3fca:	82 0f       	add	r24, r18
    3fcc:	93 1f       	adc	r25, r19
    3fce:	9c 01       	movw	r18, r24
    3fd0:	24 0f       	add	r18, r20
    3fd2:	35 1f       	adc	r19, r21
    3fd4:	88 85       	ldd	r24, Y+8	; 0x08
    3fd6:	99 85       	ldd	r25, Y+9	; 0x09
    3fd8:	fc 01       	movw	r30, r24
    3fda:	e2 0f       	add	r30, r18
    3fdc:	f3 1f       	adc	r31, r19
    3fde:	81 89       	ldd	r24, Z+17	; 0x11
    3fe0:	8a 30       	cpi	r24, 0x0A	; 10
    3fe2:	09 f4       	brne	.+2      	; 0x3fe6 <Seven_Segment_enuInit+0x65a>
    3fe4:	55 c0       	rjmp	.+170    	; 0x4090 <Seven_Segment_enuInit+0x704>
			{
				Local_u32CheckError |= (DIO_enuSetPinDirection(Copy_pAstrSEG_Config[Local_u8Iterator].SEG_DOT_PORT, Copy_pAstrSEG_Config[Local_u8Iterator].SEG_DOT_PIN, DIO_u8OUTPUT) << (Local_u8Iterator_Error += ERROR_STATE_SIZE));
    3fe6:	8e 81       	ldd	r24, Y+6	; 0x06
    3fe8:	48 2f       	mov	r20, r24
    3fea:	50 e0       	ldi	r21, 0x00	; 0
    3fec:	ca 01       	movw	r24, r20
    3fee:	88 0f       	add	r24, r24
    3ff0:	99 1f       	adc	r25, r25
    3ff2:	9c 01       	movw	r18, r24
    3ff4:	22 0f       	add	r18, r18
    3ff6:	33 1f       	adc	r19, r19
    3ff8:	22 0f       	add	r18, r18
    3ffa:	33 1f       	adc	r19, r19
    3ffc:	22 0f       	add	r18, r18
    3ffe:	33 1f       	adc	r19, r19
    4000:	82 0f       	add	r24, r18
    4002:	93 1f       	adc	r25, r19
    4004:	9c 01       	movw	r18, r24
    4006:	24 0f       	add	r18, r20
    4008:	35 1f       	adc	r19, r21
    400a:	88 85       	ldd	r24, Y+8	; 0x08
    400c:	99 85       	ldd	r25, Y+9	; 0x09
    400e:	fc 01       	movw	r30, r24
    4010:	e2 0f       	add	r30, r18
    4012:	f3 1f       	adc	r31, r19
    4014:	60 89       	ldd	r22, Z+16	; 0x10
    4016:	8e 81       	ldd	r24, Y+6	; 0x06
    4018:	48 2f       	mov	r20, r24
    401a:	50 e0       	ldi	r21, 0x00	; 0
    401c:	ca 01       	movw	r24, r20
    401e:	88 0f       	add	r24, r24
    4020:	99 1f       	adc	r25, r25
    4022:	9c 01       	movw	r18, r24
    4024:	22 0f       	add	r18, r18
    4026:	33 1f       	adc	r19, r19
    4028:	22 0f       	add	r18, r18
    402a:	33 1f       	adc	r19, r19
    402c:	22 0f       	add	r18, r18
    402e:	33 1f       	adc	r19, r19
    4030:	82 0f       	add	r24, r18
    4032:	93 1f       	adc	r25, r19
    4034:	9c 01       	movw	r18, r24
    4036:	24 0f       	add	r18, r20
    4038:	35 1f       	adc	r19, r21
    403a:	88 85       	ldd	r24, Y+8	; 0x08
    403c:	99 85       	ldd	r25, Y+9	; 0x09
    403e:	fc 01       	movw	r30, r24
    4040:	e2 0f       	add	r30, r18
    4042:	f3 1f       	adc	r31, r19
    4044:	91 89       	ldd	r25, Z+17	; 0x11
    4046:	86 2f       	mov	r24, r22
    4048:	69 2f       	mov	r22, r25
    404a:	41 e0       	ldi	r20, 0x01	; 1
    404c:	0e 94 2c 16 	call	0x2c58	; 0x2c58 <DIO_enuSetPinDirection>
    4050:	28 2f       	mov	r18, r24
    4052:	30 e0       	ldi	r19, 0x00	; 0
    4054:	8d 81       	ldd	r24, Y+5	; 0x05
    4056:	8d 5f       	subi	r24, 0xFD	; 253
    4058:	8d 83       	std	Y+5, r24	; 0x05
    405a:	8d 81       	ldd	r24, Y+5	; 0x05
    405c:	88 2f       	mov	r24, r24
    405e:	90 e0       	ldi	r25, 0x00	; 0
    4060:	a9 01       	movw	r20, r18
    4062:	02 c0       	rjmp	.+4      	; 0x4068 <Seven_Segment_enuInit+0x6dc>
    4064:	44 0f       	add	r20, r20
    4066:	55 1f       	adc	r21, r21
    4068:	8a 95       	dec	r24
    406a:	e2 f7       	brpl	.-8      	; 0x4064 <Seven_Segment_enuInit+0x6d8>
    406c:	ca 01       	movw	r24, r20
    406e:	9c 01       	movw	r18, r24
    4070:	44 27       	eor	r20, r20
    4072:	37 fd       	sbrc	r19, 7
    4074:	40 95       	com	r20
    4076:	54 2f       	mov	r21, r20
    4078:	89 81       	ldd	r24, Y+1	; 0x01
    407a:	9a 81       	ldd	r25, Y+2	; 0x02
    407c:	ab 81       	ldd	r26, Y+3	; 0x03
    407e:	bc 81       	ldd	r27, Y+4	; 0x04
    4080:	82 2b       	or	r24, r18
    4082:	93 2b       	or	r25, r19
    4084:	a4 2b       	or	r26, r20
    4086:	b5 2b       	or	r27, r21
    4088:	89 83       	std	Y+1, r24	; 0x01
    408a:	9a 83       	std	Y+2, r25	; 0x02
    408c:	ab 83       	std	Y+3, r26	; 0x03
    408e:	bc 83       	std	Y+4, r27	; 0x04
	u8 Local_u8Iterator_Error = 0;
	u32 Local_u32CheckError = 0;
	
	if(Copy_pAstrSEG_Config != NULL)
	{
		for(Local_u8Iterator = 0; Local_u8Iterator < SEG_NUM; Local_u8Iterator++)
    4090:	8e 81       	ldd	r24, Y+6	; 0x06
    4092:	8f 5f       	subi	r24, 0xFF	; 255
    4094:	8e 83       	std	Y+6, r24	; 0x06
    4096:	8e 81       	ldd	r24, Y+6	; 0x06
    4098:	82 30       	cpi	r24, 0x02	; 2
    409a:	08 f4       	brcc	.+2      	; 0x409e <Seven_Segment_enuInit+0x712>
    409c:	92 cc       	rjmp	.-1756   	; 0x39c2 <Seven_Segment_enuInit+0x36>
			{
				Local_u32CheckError |= (DIO_enuSetPinDirection(Copy_pAstrSEG_Config[Local_u8Iterator].SEG_DOT_PORT, Copy_pAstrSEG_Config[Local_u8Iterator].SEG_DOT_PIN, DIO_u8OUTPUT) << (Local_u8Iterator_Error += ERROR_STATE_SIZE));
			}
		}
		
		for(Local_u8Iterator = 0; Local_u8Iterator < SEG_NUM; Local_u8Iterator++)
    409e:	1e 82       	std	Y+6, r1	; 0x06
    40a0:	26 c0       	rjmp	.+76     	; 0x40ee <Seven_Segment_enuInit+0x762>
		{
			for(Local_u8Iterator_Error = 0; Local_u8Iterator_Error < sizeof(Local_u32CheckError)*8; Local_u8Iterator_Error += ERROR_STATE_SIZE)
    40a2:	1d 82       	std	Y+5, r1	; 0x05
    40a4:	1d c0       	rjmp	.+58     	; 0x40e0 <Seven_Segment_enuInit+0x754>
			{
				if(((Local_u32CheckError >> Local_u8Iterator_Error) & ERROR_STATE_MASK) != ES_OK)
    40a6:	8d 81       	ldd	r24, Y+5	; 0x05
    40a8:	28 2f       	mov	r18, r24
    40aa:	30 e0       	ldi	r19, 0x00	; 0
    40ac:	89 81       	ldd	r24, Y+1	; 0x01
    40ae:	9a 81       	ldd	r25, Y+2	; 0x02
    40b0:	ab 81       	ldd	r26, Y+3	; 0x03
    40b2:	bc 81       	ldd	r27, Y+4	; 0x04
    40b4:	02 2e       	mov	r0, r18
    40b6:	04 c0       	rjmp	.+8      	; 0x40c0 <Seven_Segment_enuInit+0x734>
    40b8:	b6 95       	lsr	r27
    40ba:	a7 95       	ror	r26
    40bc:	97 95       	ror	r25
    40be:	87 95       	ror	r24
    40c0:	0a 94       	dec	r0
    40c2:	d2 f7       	brpl	.-12     	; 0x40b8 <Seven_Segment_enuInit+0x72c>
    40c4:	87 70       	andi	r24, 0x07	; 7
    40c6:	90 70       	andi	r25, 0x00	; 0
    40c8:	a0 70       	andi	r26, 0x00	; 0
    40ca:	b0 70       	andi	r27, 0x00	; 0
    40cc:	00 97       	sbiw	r24, 0x00	; 0
    40ce:	a1 05       	cpc	r26, r1
    40d0:	b1 05       	cpc	r27, r1
    40d2:	19 f0       	breq	.+6      	; 0x40da <Seven_Segment_enuInit+0x74e>
				{
					return ES_NOK;
    40d4:	51 e0       	ldi	r21, 0x01	; 1
    40d6:	5a 87       	std	Y+10, r21	; 0x0a
    40d8:	12 c0       	rjmp	.+36     	; 0x40fe <Seven_Segment_enuInit+0x772>
			}
		}
		
		for(Local_u8Iterator = 0; Local_u8Iterator < SEG_NUM; Local_u8Iterator++)
		{
			for(Local_u8Iterator_Error = 0; Local_u8Iterator_Error < sizeof(Local_u32CheckError)*8; Local_u8Iterator_Error += ERROR_STATE_SIZE)
    40da:	8d 81       	ldd	r24, Y+5	; 0x05
    40dc:	8d 5f       	subi	r24, 0xFD	; 253
    40de:	8d 83       	std	Y+5, r24	; 0x05
    40e0:	8d 81       	ldd	r24, Y+5	; 0x05
    40e2:	80 32       	cpi	r24, 0x20	; 32
    40e4:	00 f3       	brcs	.-64     	; 0x40a6 <Seven_Segment_enuInit+0x71a>
				if(((Local_u32CheckError >> Local_u8Iterator_Error) & ERROR_STATE_MASK) != ES_OK)
				{
					return ES_NOK;
				}
			}
			Local_enuErrorState = ES_OK;
    40e6:	1f 82       	std	Y+7, r1	; 0x07
			{
				Local_u32CheckError |= (DIO_enuSetPinDirection(Copy_pAstrSEG_Config[Local_u8Iterator].SEG_DOT_PORT, Copy_pAstrSEG_Config[Local_u8Iterator].SEG_DOT_PIN, DIO_u8OUTPUT) << (Local_u8Iterator_Error += ERROR_STATE_SIZE));
			}
		}
		
		for(Local_u8Iterator = 0; Local_u8Iterator < SEG_NUM; Local_u8Iterator++)
    40e8:	8e 81       	ldd	r24, Y+6	; 0x06
    40ea:	8f 5f       	subi	r24, 0xFF	; 255
    40ec:	8e 83       	std	Y+6, r24	; 0x06
    40ee:	8e 81       	ldd	r24, Y+6	; 0x06
    40f0:	82 30       	cpi	r24, 0x02	; 2
    40f2:	b8 f2       	brcs	.-82     	; 0x40a2 <Seven_Segment_enuInit+0x716>
    40f4:	02 c0       	rjmp	.+4      	; 0x40fa <Seven_Segment_enuInit+0x76e>
			Local_enuErrorState = ES_OK;
		}
	}
	else
	{
		Local_enuErrorState = ES_NULL_POINTER;
    40f6:	82 e0       	ldi	r24, 0x02	; 2
    40f8:	8f 83       	std	Y+7, r24	; 0x07
	}
	
	return Local_enuErrorState;
    40fa:	8f 81       	ldd	r24, Y+7	; 0x07
    40fc:	8a 87       	std	Y+10, r24	; 0x0a
    40fe:	8a 85       	ldd	r24, Y+10	; 0x0a
}
    4100:	2a 96       	adiw	r28, 0x0a	; 10
    4102:	0f b6       	in	r0, 0x3f	; 63
    4104:	f8 94       	cli
    4106:	de bf       	out	0x3e, r29	; 62
    4108:	0f be       	out	0x3f, r0	; 63
    410a:	cd bf       	out	0x3d, r28	; 61
    410c:	cf 91       	pop	r28
    410e:	df 91       	pop	r29
    4110:	08 95       	ret

00004112 <Seven_Segment_enuDisplayNumber>:

ES_t Seven_Segment_enuDisplayNumber(u8 Copy_SEG_ID, u8 Copy_u8Number)
{
    4112:	df 93       	push	r29
    4114:	cf 93       	push	r28
    4116:	cd b7       	in	r28, 0x3d	; 61
    4118:	de b7       	in	r29, 0x3e	; 62
    411a:	6e 97       	sbiw	r28, 0x1e	; 30
    411c:	0f b6       	in	r0, 0x3f	; 63
    411e:	f8 94       	cli
    4120:	de bf       	out	0x3e, r29	; 62
    4122:	0f be       	out	0x3f, r0	; 63
    4124:	cd bf       	out	0x3d, r28	; 61
    4126:	8f 83       	std	Y+7, r24	; 0x07
    4128:	68 87       	std	Y+8, r22	; 0x08
	ES_t Local_enuErrorState = ES_NOK;
    412a:	81 e0       	ldi	r24, 0x01	; 1
    412c:	8e 83       	std	Y+6, r24	; 0x06
	
	u8 Local_u8Iterator_Error = 0;
    412e:	1d 82       	std	Y+5, r1	; 0x05
	u32 Local_u32CheckError = 0;
    4130:	19 82       	std	Y+1, r1	; 0x01
    4132:	1a 82       	std	Y+2, r1	; 0x02
    4134:	1b 82       	std	Y+3, r1	; 0x03
    4136:	1c 82       	std	Y+4, r1	; 0x04
	 
	if(Copy_SEG_ID < SEG_NUM && Copy_u8Number < 10)
    4138:	8f 81       	ldd	r24, Y+7	; 0x07
    413a:	82 30       	cpi	r24, 0x02	; 2
    413c:	08 f0       	brcs	.+2      	; 0x4140 <Seven_Segment_enuDisplayNumber+0x2e>
    413e:	80 c5       	rjmp	.+2816   	; 0x4c40 <Seven_Segment_enuDisplayNumber+0xb2e>
    4140:	88 85       	ldd	r24, Y+8	; 0x08
    4142:	8a 30       	cpi	r24, 0x0A	; 10
    4144:	08 f0       	brcs	.+2      	; 0x4148 <Seven_Segment_enuDisplayNumber+0x36>
    4146:	7c c5       	rjmp	.+2808   	; 0x4c40 <Seven_Segment_enuDisplayNumber+0xb2e>
	{
		if(SEV_SEG_AstrSEGConfig[Copy_SEG_ID].SEG_TYPE == COMMON_ANODE)
    4148:	8f 81       	ldd	r24, Y+7	; 0x07
    414a:	48 2f       	mov	r20, r24
    414c:	50 e0       	ldi	r21, 0x00	; 0
    414e:	ca 01       	movw	r24, r20
    4150:	88 0f       	add	r24, r24
    4152:	99 1f       	adc	r25, r25
    4154:	9c 01       	movw	r18, r24
    4156:	22 0f       	add	r18, r18
    4158:	33 1f       	adc	r19, r19
    415a:	22 0f       	add	r18, r18
    415c:	33 1f       	adc	r19, r19
    415e:	22 0f       	add	r18, r18
    4160:	33 1f       	adc	r19, r19
    4162:	82 0f       	add	r24, r18
    4164:	93 1f       	adc	r25, r19
    4166:	84 0f       	add	r24, r20
    4168:	95 1f       	adc	r25, r21
    416a:	fc 01       	movw	r30, r24
    416c:	ea 56       	subi	r30, 0x6A	; 106
    416e:	fe 4f       	sbci	r31, 0xFE	; 254
    4170:	80 81       	ld	r24, Z
    4172:	85 30       	cpi	r24, 0x05	; 5
    4174:	09 f0       	breq	.+2      	; 0x4178 <Seven_Segment_enuDisplayNumber+0x66>
    4176:	b4 c2       	rjmp	.+1384   	; 0x46e0 <Seven_Segment_enuDisplayNumber+0x5ce>
		{
			Local_u32CheckError |= (DIO_enuSetPinVal(SEV_SEG_AstrSEGConfig[Copy_SEG_ID].SEG_APORT, SEV_SEG_AstrSEGConfig[Copy_SEG_ID].SEG_APIN, !((SEGCth_Numbers[Copy_u8Number] >> APIN_POS) & MASK_BIT)) << Local_u8Iterator_Error);
    4178:	8f 81       	ldd	r24, Y+7	; 0x07
    417a:	48 2f       	mov	r20, r24
    417c:	50 e0       	ldi	r21, 0x00	; 0
    417e:	ca 01       	movw	r24, r20
    4180:	88 0f       	add	r24, r24
    4182:	99 1f       	adc	r25, r25
    4184:	9c 01       	movw	r18, r24
    4186:	22 0f       	add	r18, r18
    4188:	33 1f       	adc	r19, r19
    418a:	22 0f       	add	r18, r18
    418c:	33 1f       	adc	r19, r19
    418e:	22 0f       	add	r18, r18
    4190:	33 1f       	adc	r19, r19
    4192:	82 0f       	add	r24, r18
    4194:	93 1f       	adc	r25, r19
    4196:	84 0f       	add	r24, r20
    4198:	95 1f       	adc	r25, r21
    419a:	fc 01       	movw	r30, r24
    419c:	ec 57       	subi	r30, 0x7C	; 124
    419e:	fe 4f       	sbci	r31, 0xFE	; 254
    41a0:	40 81       	ld	r20, Z
    41a2:	4e 8f       	std	Y+30, r20	; 0x1e
    41a4:	8f 81       	ldd	r24, Y+7	; 0x07
    41a6:	48 2f       	mov	r20, r24
    41a8:	50 e0       	ldi	r21, 0x00	; 0
    41aa:	ca 01       	movw	r24, r20
    41ac:	88 0f       	add	r24, r24
    41ae:	99 1f       	adc	r25, r25
    41b0:	9c 01       	movw	r18, r24
    41b2:	22 0f       	add	r18, r18
    41b4:	33 1f       	adc	r19, r19
    41b6:	22 0f       	add	r18, r18
    41b8:	33 1f       	adc	r19, r19
    41ba:	22 0f       	add	r18, r18
    41bc:	33 1f       	adc	r19, r19
    41be:	82 0f       	add	r24, r18
    41c0:	93 1f       	adc	r25, r19
    41c2:	84 0f       	add	r24, r20
    41c4:	95 1f       	adc	r25, r21
    41c6:	fc 01       	movw	r30, r24
    41c8:	eb 57       	subi	r30, 0x7B	; 123
    41ca:	fe 4f       	sbci	r31, 0xFE	; 254
    41cc:	50 81       	ld	r21, Z
    41ce:	5d 8f       	std	Y+29, r21	; 0x1d
    41d0:	88 85       	ldd	r24, Y+8	; 0x08
    41d2:	88 2f       	mov	r24, r24
    41d4:	90 e0       	ldi	r25, 0x00	; 0
    41d6:	fc 01       	movw	r30, r24
    41d8:	e6 55       	subi	r30, 0x56	; 86
    41da:	fe 4f       	sbci	r31, 0xFE	; 254
    41dc:	80 81       	ld	r24, Z
    41de:	88 2f       	mov	r24, r24
    41e0:	90 e0       	ldi	r25, 0x00	; 0
    41e2:	81 70       	andi	r24, 0x01	; 1
    41e4:	90 70       	andi	r25, 0x00	; 0
    41e6:	1c 8e       	std	Y+28, r1	; 0x1c
    41e8:	00 97       	sbiw	r24, 0x00	; 0
    41ea:	11 f4       	brne	.+4      	; 0x41f0 <Seven_Segment_enuDisplayNumber+0xde>
    41ec:	81 e0       	ldi	r24, 0x01	; 1
    41ee:	8c 8f       	std	Y+28, r24	; 0x1c
    41f0:	8e 8d       	ldd	r24, Y+30	; 0x1e
    41f2:	6d 8d       	ldd	r22, Y+29	; 0x1d
    41f4:	4c 8d       	ldd	r20, Y+28	; 0x1c
    41f6:	0e 94 18 17 	call	0x2e30	; 0x2e30 <DIO_enuSetPinVal>
    41fa:	28 2f       	mov	r18, r24
    41fc:	30 e0       	ldi	r19, 0x00	; 0
    41fe:	8d 81       	ldd	r24, Y+5	; 0x05
    4200:	88 2f       	mov	r24, r24
    4202:	90 e0       	ldi	r25, 0x00	; 0
    4204:	a9 01       	movw	r20, r18
    4206:	02 c0       	rjmp	.+4      	; 0x420c <Seven_Segment_enuDisplayNumber+0xfa>
    4208:	44 0f       	add	r20, r20
    420a:	55 1f       	adc	r21, r21
    420c:	8a 95       	dec	r24
    420e:	e2 f7       	brpl	.-8      	; 0x4208 <Seven_Segment_enuDisplayNumber+0xf6>
    4210:	ca 01       	movw	r24, r20
    4212:	9c 01       	movw	r18, r24
    4214:	44 27       	eor	r20, r20
    4216:	37 fd       	sbrc	r19, 7
    4218:	40 95       	com	r20
    421a:	54 2f       	mov	r21, r20
    421c:	89 81       	ldd	r24, Y+1	; 0x01
    421e:	9a 81       	ldd	r25, Y+2	; 0x02
    4220:	ab 81       	ldd	r26, Y+3	; 0x03
    4222:	bc 81       	ldd	r27, Y+4	; 0x04
    4224:	82 2b       	or	r24, r18
    4226:	93 2b       	or	r25, r19
    4228:	a4 2b       	or	r26, r20
    422a:	b5 2b       	or	r27, r21
    422c:	89 83       	std	Y+1, r24	; 0x01
    422e:	9a 83       	std	Y+2, r25	; 0x02
    4230:	ab 83       	std	Y+3, r26	; 0x03
    4232:	bc 83       	std	Y+4, r27	; 0x04
			Local_u32CheckError |= (DIO_enuSetPinVal(SEV_SEG_AstrSEGConfig[Copy_SEG_ID].SEG_BPORT, SEV_SEG_AstrSEGConfig[Copy_SEG_ID].SEG_BPIN, !((SEGCth_Numbers[Copy_u8Number] >> BPIN_POS) & MASK_BIT)) << (Local_u8Iterator_Error += ERROR_STATE_SIZE));
    4234:	8f 81       	ldd	r24, Y+7	; 0x07
    4236:	48 2f       	mov	r20, r24
    4238:	50 e0       	ldi	r21, 0x00	; 0
    423a:	ca 01       	movw	r24, r20
    423c:	88 0f       	add	r24, r24
    423e:	99 1f       	adc	r25, r25
    4240:	9c 01       	movw	r18, r24
    4242:	22 0f       	add	r18, r18
    4244:	33 1f       	adc	r19, r19
    4246:	22 0f       	add	r18, r18
    4248:	33 1f       	adc	r19, r19
    424a:	22 0f       	add	r18, r18
    424c:	33 1f       	adc	r19, r19
    424e:	82 0f       	add	r24, r18
    4250:	93 1f       	adc	r25, r19
    4252:	84 0f       	add	r24, r20
    4254:	95 1f       	adc	r25, r21
    4256:	fc 01       	movw	r30, r24
    4258:	ea 57       	subi	r30, 0x7A	; 122
    425a:	fe 4f       	sbci	r31, 0xFE	; 254
    425c:	50 81       	ld	r21, Z
    425e:	5b 8f       	std	Y+27, r21	; 0x1b
    4260:	8f 81       	ldd	r24, Y+7	; 0x07
    4262:	48 2f       	mov	r20, r24
    4264:	50 e0       	ldi	r21, 0x00	; 0
    4266:	ca 01       	movw	r24, r20
    4268:	88 0f       	add	r24, r24
    426a:	99 1f       	adc	r25, r25
    426c:	9c 01       	movw	r18, r24
    426e:	22 0f       	add	r18, r18
    4270:	33 1f       	adc	r19, r19
    4272:	22 0f       	add	r18, r18
    4274:	33 1f       	adc	r19, r19
    4276:	22 0f       	add	r18, r18
    4278:	33 1f       	adc	r19, r19
    427a:	82 0f       	add	r24, r18
    427c:	93 1f       	adc	r25, r19
    427e:	84 0f       	add	r24, r20
    4280:	95 1f       	adc	r25, r21
    4282:	fc 01       	movw	r30, r24
    4284:	e9 57       	subi	r30, 0x79	; 121
    4286:	fe 4f       	sbci	r31, 0xFE	; 254
    4288:	80 81       	ld	r24, Z
    428a:	8a 8f       	std	Y+26, r24	; 0x1a
    428c:	88 85       	ldd	r24, Y+8	; 0x08
    428e:	88 2f       	mov	r24, r24
    4290:	90 e0       	ldi	r25, 0x00	; 0
    4292:	fc 01       	movw	r30, r24
    4294:	e6 55       	subi	r30, 0x56	; 86
    4296:	fe 4f       	sbci	r31, 0xFE	; 254
    4298:	80 81       	ld	r24, Z
    429a:	86 95       	lsr	r24
    429c:	88 2f       	mov	r24, r24
    429e:	90 e0       	ldi	r25, 0x00	; 0
    42a0:	81 70       	andi	r24, 0x01	; 1
    42a2:	90 70       	andi	r25, 0x00	; 0
    42a4:	19 8e       	std	Y+25, r1	; 0x19
    42a6:	00 97       	sbiw	r24, 0x00	; 0
    42a8:	11 f4       	brne	.+4      	; 0x42ae <Seven_Segment_enuDisplayNumber+0x19c>
    42aa:	41 e0       	ldi	r20, 0x01	; 1
    42ac:	49 8f       	std	Y+25, r20	; 0x19
    42ae:	8b 8d       	ldd	r24, Y+27	; 0x1b
    42b0:	6a 8d       	ldd	r22, Y+26	; 0x1a
    42b2:	49 8d       	ldd	r20, Y+25	; 0x19
    42b4:	0e 94 18 17 	call	0x2e30	; 0x2e30 <DIO_enuSetPinVal>
    42b8:	28 2f       	mov	r18, r24
    42ba:	30 e0       	ldi	r19, 0x00	; 0
    42bc:	8d 81       	ldd	r24, Y+5	; 0x05
    42be:	8d 5f       	subi	r24, 0xFD	; 253
    42c0:	8d 83       	std	Y+5, r24	; 0x05
    42c2:	8d 81       	ldd	r24, Y+5	; 0x05
    42c4:	88 2f       	mov	r24, r24
    42c6:	90 e0       	ldi	r25, 0x00	; 0
    42c8:	a9 01       	movw	r20, r18
    42ca:	02 c0       	rjmp	.+4      	; 0x42d0 <Seven_Segment_enuDisplayNumber+0x1be>
    42cc:	44 0f       	add	r20, r20
    42ce:	55 1f       	adc	r21, r21
    42d0:	8a 95       	dec	r24
    42d2:	e2 f7       	brpl	.-8      	; 0x42cc <Seven_Segment_enuDisplayNumber+0x1ba>
    42d4:	ca 01       	movw	r24, r20
    42d6:	9c 01       	movw	r18, r24
    42d8:	44 27       	eor	r20, r20
    42da:	37 fd       	sbrc	r19, 7
    42dc:	40 95       	com	r20
    42de:	54 2f       	mov	r21, r20
    42e0:	89 81       	ldd	r24, Y+1	; 0x01
    42e2:	9a 81       	ldd	r25, Y+2	; 0x02
    42e4:	ab 81       	ldd	r26, Y+3	; 0x03
    42e6:	bc 81       	ldd	r27, Y+4	; 0x04
    42e8:	82 2b       	or	r24, r18
    42ea:	93 2b       	or	r25, r19
    42ec:	a4 2b       	or	r26, r20
    42ee:	b5 2b       	or	r27, r21
    42f0:	89 83       	std	Y+1, r24	; 0x01
    42f2:	9a 83       	std	Y+2, r25	; 0x02
    42f4:	ab 83       	std	Y+3, r26	; 0x03
    42f6:	bc 83       	std	Y+4, r27	; 0x04
			Local_u32CheckError |= (DIO_enuSetPinVal(SEV_SEG_AstrSEGConfig[Copy_SEG_ID].SEG_CPORT, SEV_SEG_AstrSEGConfig[Copy_SEG_ID].SEG_CPIN, !((SEGCth_Numbers[Copy_u8Number] >> CPIN_POS) & MASK_BIT)) << (Local_u8Iterator_Error += ERROR_STATE_SIZE));
    42f8:	8f 81       	ldd	r24, Y+7	; 0x07
    42fa:	48 2f       	mov	r20, r24
    42fc:	50 e0       	ldi	r21, 0x00	; 0
    42fe:	ca 01       	movw	r24, r20
    4300:	88 0f       	add	r24, r24
    4302:	99 1f       	adc	r25, r25
    4304:	9c 01       	movw	r18, r24
    4306:	22 0f       	add	r18, r18
    4308:	33 1f       	adc	r19, r19
    430a:	22 0f       	add	r18, r18
    430c:	33 1f       	adc	r19, r19
    430e:	22 0f       	add	r18, r18
    4310:	33 1f       	adc	r19, r19
    4312:	82 0f       	add	r24, r18
    4314:	93 1f       	adc	r25, r19
    4316:	84 0f       	add	r24, r20
    4318:	95 1f       	adc	r25, r21
    431a:	fc 01       	movw	r30, r24
    431c:	e8 57       	subi	r30, 0x78	; 120
    431e:	fe 4f       	sbci	r31, 0xFE	; 254
    4320:	50 81       	ld	r21, Z
    4322:	58 8f       	std	Y+24, r21	; 0x18
    4324:	8f 81       	ldd	r24, Y+7	; 0x07
    4326:	48 2f       	mov	r20, r24
    4328:	50 e0       	ldi	r21, 0x00	; 0
    432a:	ca 01       	movw	r24, r20
    432c:	88 0f       	add	r24, r24
    432e:	99 1f       	adc	r25, r25
    4330:	9c 01       	movw	r18, r24
    4332:	22 0f       	add	r18, r18
    4334:	33 1f       	adc	r19, r19
    4336:	22 0f       	add	r18, r18
    4338:	33 1f       	adc	r19, r19
    433a:	22 0f       	add	r18, r18
    433c:	33 1f       	adc	r19, r19
    433e:	82 0f       	add	r24, r18
    4340:	93 1f       	adc	r25, r19
    4342:	84 0f       	add	r24, r20
    4344:	95 1f       	adc	r25, r21
    4346:	fc 01       	movw	r30, r24
    4348:	e7 57       	subi	r30, 0x77	; 119
    434a:	fe 4f       	sbci	r31, 0xFE	; 254
    434c:	80 81       	ld	r24, Z
    434e:	8f 8b       	std	Y+23, r24	; 0x17
    4350:	88 85       	ldd	r24, Y+8	; 0x08
    4352:	88 2f       	mov	r24, r24
    4354:	90 e0       	ldi	r25, 0x00	; 0
    4356:	fc 01       	movw	r30, r24
    4358:	e6 55       	subi	r30, 0x56	; 86
    435a:	fe 4f       	sbci	r31, 0xFE	; 254
    435c:	80 81       	ld	r24, Z
    435e:	86 95       	lsr	r24
    4360:	86 95       	lsr	r24
    4362:	88 2f       	mov	r24, r24
    4364:	90 e0       	ldi	r25, 0x00	; 0
    4366:	81 70       	andi	r24, 0x01	; 1
    4368:	90 70       	andi	r25, 0x00	; 0
    436a:	1e 8a       	std	Y+22, r1	; 0x16
    436c:	00 97       	sbiw	r24, 0x00	; 0
    436e:	11 f4       	brne	.+4      	; 0x4374 <Seven_Segment_enuDisplayNumber+0x262>
    4370:	41 e0       	ldi	r20, 0x01	; 1
    4372:	4e 8b       	std	Y+22, r20	; 0x16
    4374:	88 8d       	ldd	r24, Y+24	; 0x18
    4376:	6f 89       	ldd	r22, Y+23	; 0x17
    4378:	4e 89       	ldd	r20, Y+22	; 0x16
    437a:	0e 94 18 17 	call	0x2e30	; 0x2e30 <DIO_enuSetPinVal>
    437e:	28 2f       	mov	r18, r24
    4380:	30 e0       	ldi	r19, 0x00	; 0
    4382:	8d 81       	ldd	r24, Y+5	; 0x05
    4384:	8d 5f       	subi	r24, 0xFD	; 253
    4386:	8d 83       	std	Y+5, r24	; 0x05
    4388:	8d 81       	ldd	r24, Y+5	; 0x05
    438a:	88 2f       	mov	r24, r24
    438c:	90 e0       	ldi	r25, 0x00	; 0
    438e:	a9 01       	movw	r20, r18
    4390:	02 c0       	rjmp	.+4      	; 0x4396 <Seven_Segment_enuDisplayNumber+0x284>
    4392:	44 0f       	add	r20, r20
    4394:	55 1f       	adc	r21, r21
    4396:	8a 95       	dec	r24
    4398:	e2 f7       	brpl	.-8      	; 0x4392 <Seven_Segment_enuDisplayNumber+0x280>
    439a:	ca 01       	movw	r24, r20
    439c:	9c 01       	movw	r18, r24
    439e:	44 27       	eor	r20, r20
    43a0:	37 fd       	sbrc	r19, 7
    43a2:	40 95       	com	r20
    43a4:	54 2f       	mov	r21, r20
    43a6:	89 81       	ldd	r24, Y+1	; 0x01
    43a8:	9a 81       	ldd	r25, Y+2	; 0x02
    43aa:	ab 81       	ldd	r26, Y+3	; 0x03
    43ac:	bc 81       	ldd	r27, Y+4	; 0x04
    43ae:	82 2b       	or	r24, r18
    43b0:	93 2b       	or	r25, r19
    43b2:	a4 2b       	or	r26, r20
    43b4:	b5 2b       	or	r27, r21
    43b6:	89 83       	std	Y+1, r24	; 0x01
    43b8:	9a 83       	std	Y+2, r25	; 0x02
    43ba:	ab 83       	std	Y+3, r26	; 0x03
    43bc:	bc 83       	std	Y+4, r27	; 0x04
			Local_u32CheckError |= (DIO_enuSetPinVal(SEV_SEG_AstrSEGConfig[Copy_SEG_ID].SEG_DPORT, SEV_SEG_AstrSEGConfig[Copy_SEG_ID].SEG_DPIN, !((SEGCth_Numbers[Copy_u8Number] >> DPIN_POS) & MASK_BIT)) << (Local_u8Iterator_Error += ERROR_STATE_SIZE));
    43be:	8f 81       	ldd	r24, Y+7	; 0x07
    43c0:	48 2f       	mov	r20, r24
    43c2:	50 e0       	ldi	r21, 0x00	; 0
    43c4:	ca 01       	movw	r24, r20
    43c6:	88 0f       	add	r24, r24
    43c8:	99 1f       	adc	r25, r25
    43ca:	9c 01       	movw	r18, r24
    43cc:	22 0f       	add	r18, r18
    43ce:	33 1f       	adc	r19, r19
    43d0:	22 0f       	add	r18, r18
    43d2:	33 1f       	adc	r19, r19
    43d4:	22 0f       	add	r18, r18
    43d6:	33 1f       	adc	r19, r19
    43d8:	82 0f       	add	r24, r18
    43da:	93 1f       	adc	r25, r19
    43dc:	84 0f       	add	r24, r20
    43de:	95 1f       	adc	r25, r21
    43e0:	fc 01       	movw	r30, r24
    43e2:	e6 57       	subi	r30, 0x76	; 118
    43e4:	fe 4f       	sbci	r31, 0xFE	; 254
    43e6:	50 81       	ld	r21, Z
    43e8:	5d 8b       	std	Y+21, r21	; 0x15
    43ea:	8f 81       	ldd	r24, Y+7	; 0x07
    43ec:	48 2f       	mov	r20, r24
    43ee:	50 e0       	ldi	r21, 0x00	; 0
    43f0:	ca 01       	movw	r24, r20
    43f2:	88 0f       	add	r24, r24
    43f4:	99 1f       	adc	r25, r25
    43f6:	9c 01       	movw	r18, r24
    43f8:	22 0f       	add	r18, r18
    43fa:	33 1f       	adc	r19, r19
    43fc:	22 0f       	add	r18, r18
    43fe:	33 1f       	adc	r19, r19
    4400:	22 0f       	add	r18, r18
    4402:	33 1f       	adc	r19, r19
    4404:	82 0f       	add	r24, r18
    4406:	93 1f       	adc	r25, r19
    4408:	84 0f       	add	r24, r20
    440a:	95 1f       	adc	r25, r21
    440c:	fc 01       	movw	r30, r24
    440e:	e5 57       	subi	r30, 0x75	; 117
    4410:	fe 4f       	sbci	r31, 0xFE	; 254
    4412:	80 81       	ld	r24, Z
    4414:	8c 8b       	std	Y+20, r24	; 0x14
    4416:	88 85       	ldd	r24, Y+8	; 0x08
    4418:	88 2f       	mov	r24, r24
    441a:	90 e0       	ldi	r25, 0x00	; 0
    441c:	fc 01       	movw	r30, r24
    441e:	e6 55       	subi	r30, 0x56	; 86
    4420:	fe 4f       	sbci	r31, 0xFE	; 254
    4422:	80 81       	ld	r24, Z
    4424:	86 95       	lsr	r24
    4426:	86 95       	lsr	r24
    4428:	86 95       	lsr	r24
    442a:	88 2f       	mov	r24, r24
    442c:	90 e0       	ldi	r25, 0x00	; 0
    442e:	81 70       	andi	r24, 0x01	; 1
    4430:	90 70       	andi	r25, 0x00	; 0
    4432:	1b 8a       	std	Y+19, r1	; 0x13
    4434:	00 97       	sbiw	r24, 0x00	; 0
    4436:	11 f4       	brne	.+4      	; 0x443c <Seven_Segment_enuDisplayNumber+0x32a>
    4438:	41 e0       	ldi	r20, 0x01	; 1
    443a:	4b 8b       	std	Y+19, r20	; 0x13
    443c:	8d 89       	ldd	r24, Y+21	; 0x15
    443e:	6c 89       	ldd	r22, Y+20	; 0x14
    4440:	4b 89       	ldd	r20, Y+19	; 0x13
    4442:	0e 94 18 17 	call	0x2e30	; 0x2e30 <DIO_enuSetPinVal>
    4446:	28 2f       	mov	r18, r24
    4448:	30 e0       	ldi	r19, 0x00	; 0
    444a:	8d 81       	ldd	r24, Y+5	; 0x05
    444c:	8d 5f       	subi	r24, 0xFD	; 253
    444e:	8d 83       	std	Y+5, r24	; 0x05
    4450:	8d 81       	ldd	r24, Y+5	; 0x05
    4452:	88 2f       	mov	r24, r24
    4454:	90 e0       	ldi	r25, 0x00	; 0
    4456:	a9 01       	movw	r20, r18
    4458:	02 c0       	rjmp	.+4      	; 0x445e <Seven_Segment_enuDisplayNumber+0x34c>
    445a:	44 0f       	add	r20, r20
    445c:	55 1f       	adc	r21, r21
    445e:	8a 95       	dec	r24
    4460:	e2 f7       	brpl	.-8      	; 0x445a <Seven_Segment_enuDisplayNumber+0x348>
    4462:	ca 01       	movw	r24, r20
    4464:	9c 01       	movw	r18, r24
    4466:	44 27       	eor	r20, r20
    4468:	37 fd       	sbrc	r19, 7
    446a:	40 95       	com	r20
    446c:	54 2f       	mov	r21, r20
    446e:	89 81       	ldd	r24, Y+1	; 0x01
    4470:	9a 81       	ldd	r25, Y+2	; 0x02
    4472:	ab 81       	ldd	r26, Y+3	; 0x03
    4474:	bc 81       	ldd	r27, Y+4	; 0x04
    4476:	82 2b       	or	r24, r18
    4478:	93 2b       	or	r25, r19
    447a:	a4 2b       	or	r26, r20
    447c:	b5 2b       	or	r27, r21
    447e:	89 83       	std	Y+1, r24	; 0x01
    4480:	9a 83       	std	Y+2, r25	; 0x02
    4482:	ab 83       	std	Y+3, r26	; 0x03
    4484:	bc 83       	std	Y+4, r27	; 0x04
			Local_u32CheckError |= (DIO_enuSetPinVal(SEV_SEG_AstrSEGConfig[Copy_SEG_ID].SEG_EPORT, SEV_SEG_AstrSEGConfig[Copy_SEG_ID].SEG_EPIN, !((SEGCth_Numbers[Copy_u8Number] >> EPIN_POS) & MASK_BIT)) << (Local_u8Iterator_Error += ERROR_STATE_SIZE));
    4486:	8f 81       	ldd	r24, Y+7	; 0x07
    4488:	48 2f       	mov	r20, r24
    448a:	50 e0       	ldi	r21, 0x00	; 0
    448c:	ca 01       	movw	r24, r20
    448e:	88 0f       	add	r24, r24
    4490:	99 1f       	adc	r25, r25
    4492:	9c 01       	movw	r18, r24
    4494:	22 0f       	add	r18, r18
    4496:	33 1f       	adc	r19, r19
    4498:	22 0f       	add	r18, r18
    449a:	33 1f       	adc	r19, r19
    449c:	22 0f       	add	r18, r18
    449e:	33 1f       	adc	r19, r19
    44a0:	82 0f       	add	r24, r18
    44a2:	93 1f       	adc	r25, r19
    44a4:	84 0f       	add	r24, r20
    44a6:	95 1f       	adc	r25, r21
    44a8:	fc 01       	movw	r30, r24
    44aa:	e4 57       	subi	r30, 0x74	; 116
    44ac:	fe 4f       	sbci	r31, 0xFE	; 254
    44ae:	50 81       	ld	r21, Z
    44b0:	5a 8b       	std	Y+18, r21	; 0x12
    44b2:	8f 81       	ldd	r24, Y+7	; 0x07
    44b4:	48 2f       	mov	r20, r24
    44b6:	50 e0       	ldi	r21, 0x00	; 0
    44b8:	ca 01       	movw	r24, r20
    44ba:	88 0f       	add	r24, r24
    44bc:	99 1f       	adc	r25, r25
    44be:	9c 01       	movw	r18, r24
    44c0:	22 0f       	add	r18, r18
    44c2:	33 1f       	adc	r19, r19
    44c4:	22 0f       	add	r18, r18
    44c6:	33 1f       	adc	r19, r19
    44c8:	22 0f       	add	r18, r18
    44ca:	33 1f       	adc	r19, r19
    44cc:	82 0f       	add	r24, r18
    44ce:	93 1f       	adc	r25, r19
    44d0:	84 0f       	add	r24, r20
    44d2:	95 1f       	adc	r25, r21
    44d4:	fc 01       	movw	r30, r24
    44d6:	e3 57       	subi	r30, 0x73	; 115
    44d8:	fe 4f       	sbci	r31, 0xFE	; 254
    44da:	80 81       	ld	r24, Z
    44dc:	89 8b       	std	Y+17, r24	; 0x11
    44de:	88 85       	ldd	r24, Y+8	; 0x08
    44e0:	88 2f       	mov	r24, r24
    44e2:	90 e0       	ldi	r25, 0x00	; 0
    44e4:	fc 01       	movw	r30, r24
    44e6:	e6 55       	subi	r30, 0x56	; 86
    44e8:	fe 4f       	sbci	r31, 0xFE	; 254
    44ea:	80 81       	ld	r24, Z
    44ec:	82 95       	swap	r24
    44ee:	8f 70       	andi	r24, 0x0F	; 15
    44f0:	88 2f       	mov	r24, r24
    44f2:	90 e0       	ldi	r25, 0x00	; 0
    44f4:	81 70       	andi	r24, 0x01	; 1
    44f6:	90 70       	andi	r25, 0x00	; 0
    44f8:	18 8a       	std	Y+16, r1	; 0x10
    44fa:	00 97       	sbiw	r24, 0x00	; 0
    44fc:	11 f4       	brne	.+4      	; 0x4502 <Seven_Segment_enuDisplayNumber+0x3f0>
    44fe:	41 e0       	ldi	r20, 0x01	; 1
    4500:	48 8b       	std	Y+16, r20	; 0x10
    4502:	8a 89       	ldd	r24, Y+18	; 0x12
    4504:	69 89       	ldd	r22, Y+17	; 0x11
    4506:	48 89       	ldd	r20, Y+16	; 0x10
    4508:	0e 94 18 17 	call	0x2e30	; 0x2e30 <DIO_enuSetPinVal>
    450c:	28 2f       	mov	r18, r24
    450e:	30 e0       	ldi	r19, 0x00	; 0
    4510:	8d 81       	ldd	r24, Y+5	; 0x05
    4512:	8d 5f       	subi	r24, 0xFD	; 253
    4514:	8d 83       	std	Y+5, r24	; 0x05
    4516:	8d 81       	ldd	r24, Y+5	; 0x05
    4518:	88 2f       	mov	r24, r24
    451a:	90 e0       	ldi	r25, 0x00	; 0
    451c:	a9 01       	movw	r20, r18
    451e:	02 c0       	rjmp	.+4      	; 0x4524 <Seven_Segment_enuDisplayNumber+0x412>
    4520:	44 0f       	add	r20, r20
    4522:	55 1f       	adc	r21, r21
    4524:	8a 95       	dec	r24
    4526:	e2 f7       	brpl	.-8      	; 0x4520 <Seven_Segment_enuDisplayNumber+0x40e>
    4528:	ca 01       	movw	r24, r20
    452a:	9c 01       	movw	r18, r24
    452c:	44 27       	eor	r20, r20
    452e:	37 fd       	sbrc	r19, 7
    4530:	40 95       	com	r20
    4532:	54 2f       	mov	r21, r20
    4534:	89 81       	ldd	r24, Y+1	; 0x01
    4536:	9a 81       	ldd	r25, Y+2	; 0x02
    4538:	ab 81       	ldd	r26, Y+3	; 0x03
    453a:	bc 81       	ldd	r27, Y+4	; 0x04
    453c:	82 2b       	or	r24, r18
    453e:	93 2b       	or	r25, r19
    4540:	a4 2b       	or	r26, r20
    4542:	b5 2b       	or	r27, r21
    4544:	89 83       	std	Y+1, r24	; 0x01
    4546:	9a 83       	std	Y+2, r25	; 0x02
    4548:	ab 83       	std	Y+3, r26	; 0x03
    454a:	bc 83       	std	Y+4, r27	; 0x04
			Local_u32CheckError |= (DIO_enuSetPinVal(SEV_SEG_AstrSEGConfig[Copy_SEG_ID].SEG_FPORT, SEV_SEG_AstrSEGConfig[Copy_SEG_ID].SEG_FPIN, !((SEGCth_Numbers[Copy_u8Number] >> FPIN_POS) & MASK_BIT)) << (Local_u8Iterator_Error += ERROR_STATE_SIZE));
    454c:	8f 81       	ldd	r24, Y+7	; 0x07
    454e:	48 2f       	mov	r20, r24
    4550:	50 e0       	ldi	r21, 0x00	; 0
    4552:	ca 01       	movw	r24, r20
    4554:	88 0f       	add	r24, r24
    4556:	99 1f       	adc	r25, r25
    4558:	9c 01       	movw	r18, r24
    455a:	22 0f       	add	r18, r18
    455c:	33 1f       	adc	r19, r19
    455e:	22 0f       	add	r18, r18
    4560:	33 1f       	adc	r19, r19
    4562:	22 0f       	add	r18, r18
    4564:	33 1f       	adc	r19, r19
    4566:	82 0f       	add	r24, r18
    4568:	93 1f       	adc	r25, r19
    456a:	84 0f       	add	r24, r20
    456c:	95 1f       	adc	r25, r21
    456e:	fc 01       	movw	r30, r24
    4570:	e2 57       	subi	r30, 0x72	; 114
    4572:	fe 4f       	sbci	r31, 0xFE	; 254
    4574:	50 81       	ld	r21, Z
    4576:	5f 87       	std	Y+15, r21	; 0x0f
    4578:	8f 81       	ldd	r24, Y+7	; 0x07
    457a:	48 2f       	mov	r20, r24
    457c:	50 e0       	ldi	r21, 0x00	; 0
    457e:	ca 01       	movw	r24, r20
    4580:	88 0f       	add	r24, r24
    4582:	99 1f       	adc	r25, r25
    4584:	9c 01       	movw	r18, r24
    4586:	22 0f       	add	r18, r18
    4588:	33 1f       	adc	r19, r19
    458a:	22 0f       	add	r18, r18
    458c:	33 1f       	adc	r19, r19
    458e:	22 0f       	add	r18, r18
    4590:	33 1f       	adc	r19, r19
    4592:	82 0f       	add	r24, r18
    4594:	93 1f       	adc	r25, r19
    4596:	84 0f       	add	r24, r20
    4598:	95 1f       	adc	r25, r21
    459a:	fc 01       	movw	r30, r24
    459c:	e1 57       	subi	r30, 0x71	; 113
    459e:	fe 4f       	sbci	r31, 0xFE	; 254
    45a0:	80 81       	ld	r24, Z
    45a2:	8e 87       	std	Y+14, r24	; 0x0e
    45a4:	88 85       	ldd	r24, Y+8	; 0x08
    45a6:	88 2f       	mov	r24, r24
    45a8:	90 e0       	ldi	r25, 0x00	; 0
    45aa:	fc 01       	movw	r30, r24
    45ac:	e6 55       	subi	r30, 0x56	; 86
    45ae:	fe 4f       	sbci	r31, 0xFE	; 254
    45b0:	80 81       	ld	r24, Z
    45b2:	82 95       	swap	r24
    45b4:	86 95       	lsr	r24
    45b6:	87 70       	andi	r24, 0x07	; 7
    45b8:	88 2f       	mov	r24, r24
    45ba:	90 e0       	ldi	r25, 0x00	; 0
    45bc:	81 70       	andi	r24, 0x01	; 1
    45be:	90 70       	andi	r25, 0x00	; 0
    45c0:	1d 86       	std	Y+13, r1	; 0x0d
    45c2:	00 97       	sbiw	r24, 0x00	; 0
    45c4:	11 f4       	brne	.+4      	; 0x45ca <Seven_Segment_enuDisplayNumber+0x4b8>
    45c6:	41 e0       	ldi	r20, 0x01	; 1
    45c8:	4d 87       	std	Y+13, r20	; 0x0d
    45ca:	8f 85       	ldd	r24, Y+15	; 0x0f
    45cc:	6e 85       	ldd	r22, Y+14	; 0x0e
    45ce:	4d 85       	ldd	r20, Y+13	; 0x0d
    45d0:	0e 94 18 17 	call	0x2e30	; 0x2e30 <DIO_enuSetPinVal>
    45d4:	28 2f       	mov	r18, r24
    45d6:	30 e0       	ldi	r19, 0x00	; 0
    45d8:	8d 81       	ldd	r24, Y+5	; 0x05
    45da:	8d 5f       	subi	r24, 0xFD	; 253
    45dc:	8d 83       	std	Y+5, r24	; 0x05
    45de:	8d 81       	ldd	r24, Y+5	; 0x05
    45e0:	88 2f       	mov	r24, r24
    45e2:	90 e0       	ldi	r25, 0x00	; 0
    45e4:	a9 01       	movw	r20, r18
    45e6:	02 c0       	rjmp	.+4      	; 0x45ec <Seven_Segment_enuDisplayNumber+0x4da>
    45e8:	44 0f       	add	r20, r20
    45ea:	55 1f       	adc	r21, r21
    45ec:	8a 95       	dec	r24
    45ee:	e2 f7       	brpl	.-8      	; 0x45e8 <Seven_Segment_enuDisplayNumber+0x4d6>
    45f0:	ca 01       	movw	r24, r20
    45f2:	9c 01       	movw	r18, r24
    45f4:	44 27       	eor	r20, r20
    45f6:	37 fd       	sbrc	r19, 7
    45f8:	40 95       	com	r20
    45fa:	54 2f       	mov	r21, r20
    45fc:	89 81       	ldd	r24, Y+1	; 0x01
    45fe:	9a 81       	ldd	r25, Y+2	; 0x02
    4600:	ab 81       	ldd	r26, Y+3	; 0x03
    4602:	bc 81       	ldd	r27, Y+4	; 0x04
    4604:	82 2b       	or	r24, r18
    4606:	93 2b       	or	r25, r19
    4608:	a4 2b       	or	r26, r20
    460a:	b5 2b       	or	r27, r21
    460c:	89 83       	std	Y+1, r24	; 0x01
    460e:	9a 83       	std	Y+2, r25	; 0x02
    4610:	ab 83       	std	Y+3, r26	; 0x03
    4612:	bc 83       	std	Y+4, r27	; 0x04
			Local_u32CheckError |= (DIO_enuSetPinVal(SEV_SEG_AstrSEGConfig[Copy_SEG_ID].SEG_GPORT, SEV_SEG_AstrSEGConfig[Copy_SEG_ID].SEG_GPIN, !((SEGCth_Numbers[Copy_u8Number] >> GPIN_POS) & MASK_BIT)) << (Local_u8Iterator_Error += ERROR_STATE_SIZE));
    4614:	8f 81       	ldd	r24, Y+7	; 0x07
    4616:	48 2f       	mov	r20, r24
    4618:	50 e0       	ldi	r21, 0x00	; 0
    461a:	ca 01       	movw	r24, r20
    461c:	88 0f       	add	r24, r24
    461e:	99 1f       	adc	r25, r25
    4620:	9c 01       	movw	r18, r24
    4622:	22 0f       	add	r18, r18
    4624:	33 1f       	adc	r19, r19
    4626:	22 0f       	add	r18, r18
    4628:	33 1f       	adc	r19, r19
    462a:	22 0f       	add	r18, r18
    462c:	33 1f       	adc	r19, r19
    462e:	82 0f       	add	r24, r18
    4630:	93 1f       	adc	r25, r19
    4632:	84 0f       	add	r24, r20
    4634:	95 1f       	adc	r25, r21
    4636:	fc 01       	movw	r30, r24
    4638:	e0 57       	subi	r30, 0x70	; 112
    463a:	fe 4f       	sbci	r31, 0xFE	; 254
    463c:	50 81       	ld	r21, Z
    463e:	5c 87       	std	Y+12, r21	; 0x0c
    4640:	8f 81       	ldd	r24, Y+7	; 0x07
    4642:	48 2f       	mov	r20, r24
    4644:	50 e0       	ldi	r21, 0x00	; 0
    4646:	ca 01       	movw	r24, r20
    4648:	88 0f       	add	r24, r24
    464a:	99 1f       	adc	r25, r25
    464c:	9c 01       	movw	r18, r24
    464e:	22 0f       	add	r18, r18
    4650:	33 1f       	adc	r19, r19
    4652:	22 0f       	add	r18, r18
    4654:	33 1f       	adc	r19, r19
    4656:	22 0f       	add	r18, r18
    4658:	33 1f       	adc	r19, r19
    465a:	82 0f       	add	r24, r18
    465c:	93 1f       	adc	r25, r19
    465e:	84 0f       	add	r24, r20
    4660:	95 1f       	adc	r25, r21
    4662:	fc 01       	movw	r30, r24
    4664:	ef 56       	subi	r30, 0x6F	; 111
    4666:	fe 4f       	sbci	r31, 0xFE	; 254
    4668:	80 81       	ld	r24, Z
    466a:	8b 87       	std	Y+11, r24	; 0x0b
    466c:	88 85       	ldd	r24, Y+8	; 0x08
    466e:	88 2f       	mov	r24, r24
    4670:	90 e0       	ldi	r25, 0x00	; 0
    4672:	fc 01       	movw	r30, r24
    4674:	e6 55       	subi	r30, 0x56	; 86
    4676:	fe 4f       	sbci	r31, 0xFE	; 254
    4678:	80 81       	ld	r24, Z
    467a:	82 95       	swap	r24
    467c:	86 95       	lsr	r24
    467e:	86 95       	lsr	r24
    4680:	83 70       	andi	r24, 0x03	; 3
    4682:	88 2f       	mov	r24, r24
    4684:	90 e0       	ldi	r25, 0x00	; 0
    4686:	81 70       	andi	r24, 0x01	; 1
    4688:	90 70       	andi	r25, 0x00	; 0
    468a:	1a 86       	std	Y+10, r1	; 0x0a
    468c:	00 97       	sbiw	r24, 0x00	; 0
    468e:	11 f4       	brne	.+4      	; 0x4694 <Seven_Segment_enuDisplayNumber+0x582>
    4690:	41 e0       	ldi	r20, 0x01	; 1
    4692:	4a 87       	std	Y+10, r20	; 0x0a
    4694:	8c 85       	ldd	r24, Y+12	; 0x0c
    4696:	6b 85       	ldd	r22, Y+11	; 0x0b
    4698:	4a 85       	ldd	r20, Y+10	; 0x0a
    469a:	0e 94 18 17 	call	0x2e30	; 0x2e30 <DIO_enuSetPinVal>
    469e:	28 2f       	mov	r18, r24
    46a0:	30 e0       	ldi	r19, 0x00	; 0
    46a2:	8d 81       	ldd	r24, Y+5	; 0x05
    46a4:	8d 5f       	subi	r24, 0xFD	; 253
    46a6:	8d 83       	std	Y+5, r24	; 0x05
    46a8:	8d 81       	ldd	r24, Y+5	; 0x05
    46aa:	88 2f       	mov	r24, r24
    46ac:	90 e0       	ldi	r25, 0x00	; 0
    46ae:	a9 01       	movw	r20, r18
    46b0:	02 c0       	rjmp	.+4      	; 0x46b6 <Seven_Segment_enuDisplayNumber+0x5a4>
    46b2:	44 0f       	add	r20, r20
    46b4:	55 1f       	adc	r21, r21
    46b6:	8a 95       	dec	r24
    46b8:	e2 f7       	brpl	.-8      	; 0x46b2 <Seven_Segment_enuDisplayNumber+0x5a0>
    46ba:	ca 01       	movw	r24, r20
    46bc:	9c 01       	movw	r18, r24
    46be:	44 27       	eor	r20, r20
    46c0:	37 fd       	sbrc	r19, 7
    46c2:	40 95       	com	r20
    46c4:	54 2f       	mov	r21, r20
    46c6:	89 81       	ldd	r24, Y+1	; 0x01
    46c8:	9a 81       	ldd	r25, Y+2	; 0x02
    46ca:	ab 81       	ldd	r26, Y+3	; 0x03
    46cc:	bc 81       	ldd	r27, Y+4	; 0x04
    46ce:	82 2b       	or	r24, r18
    46d0:	93 2b       	or	r25, r19
    46d2:	a4 2b       	or	r26, r20
    46d4:	b5 2b       	or	r27, r21
    46d6:	89 83       	std	Y+1, r24	; 0x01
    46d8:	9a 83       	std	Y+2, r25	; 0x02
    46da:	ab 83       	std	Y+3, r26	; 0x03
    46dc:	bc 83       	std	Y+4, r27	; 0x04
    46de:	8c c2       	rjmp	.+1304   	; 0x4bf8 <Seven_Segment_enuDisplayNumber+0xae6>
		}
		else if(SEV_SEG_AstrSEGConfig[Copy_SEG_ID].SEG_TYPE == COMMON_CATHODE)
    46e0:	8f 81       	ldd	r24, Y+7	; 0x07
    46e2:	48 2f       	mov	r20, r24
    46e4:	50 e0       	ldi	r21, 0x00	; 0
    46e6:	ca 01       	movw	r24, r20
    46e8:	88 0f       	add	r24, r24
    46ea:	99 1f       	adc	r25, r25
    46ec:	9c 01       	movw	r18, r24
    46ee:	22 0f       	add	r18, r18
    46f0:	33 1f       	adc	r19, r19
    46f2:	22 0f       	add	r18, r18
    46f4:	33 1f       	adc	r19, r19
    46f6:	22 0f       	add	r18, r18
    46f8:	33 1f       	adc	r19, r19
    46fa:	82 0f       	add	r24, r18
    46fc:	93 1f       	adc	r25, r19
    46fe:	84 0f       	add	r24, r20
    4700:	95 1f       	adc	r25, r21
    4702:	fc 01       	movw	r30, r24
    4704:	ea 56       	subi	r30, 0x6A	; 106
    4706:	fe 4f       	sbci	r31, 0xFE	; 254
    4708:	80 81       	ld	r24, Z
    470a:	86 30       	cpi	r24, 0x06	; 6
    470c:	09 f0       	breq	.+2      	; 0x4710 <Seven_Segment_enuDisplayNumber+0x5fe>
    470e:	74 c2       	rjmp	.+1256   	; 0x4bf8 <Seven_Segment_enuDisplayNumber+0xae6>
		{
			Local_u32CheckError |= (DIO_enuSetPinVal(SEV_SEG_AstrSEGConfig[Copy_SEG_ID].SEG_APORT, SEV_SEG_AstrSEGConfig[Copy_SEG_ID].SEG_APIN, ((SEGCth_Numbers[Copy_u8Number] >> APIN_POS) & MASK_BIT)) << Local_u8Iterator_Error);
    4710:	8f 81       	ldd	r24, Y+7	; 0x07
    4712:	48 2f       	mov	r20, r24
    4714:	50 e0       	ldi	r21, 0x00	; 0
    4716:	ca 01       	movw	r24, r20
    4718:	88 0f       	add	r24, r24
    471a:	99 1f       	adc	r25, r25
    471c:	9c 01       	movw	r18, r24
    471e:	22 0f       	add	r18, r18
    4720:	33 1f       	adc	r19, r19
    4722:	22 0f       	add	r18, r18
    4724:	33 1f       	adc	r19, r19
    4726:	22 0f       	add	r18, r18
    4728:	33 1f       	adc	r19, r19
    472a:	82 0f       	add	r24, r18
    472c:	93 1f       	adc	r25, r19
    472e:	84 0f       	add	r24, r20
    4730:	95 1f       	adc	r25, r21
    4732:	fc 01       	movw	r30, r24
    4734:	ec 57       	subi	r30, 0x7C	; 124
    4736:	fe 4f       	sbci	r31, 0xFE	; 254
    4738:	60 81       	ld	r22, Z
    473a:	8f 81       	ldd	r24, Y+7	; 0x07
    473c:	48 2f       	mov	r20, r24
    473e:	50 e0       	ldi	r21, 0x00	; 0
    4740:	ca 01       	movw	r24, r20
    4742:	88 0f       	add	r24, r24
    4744:	99 1f       	adc	r25, r25
    4746:	9c 01       	movw	r18, r24
    4748:	22 0f       	add	r18, r18
    474a:	33 1f       	adc	r19, r19
    474c:	22 0f       	add	r18, r18
    474e:	33 1f       	adc	r19, r19
    4750:	22 0f       	add	r18, r18
    4752:	33 1f       	adc	r19, r19
    4754:	82 0f       	add	r24, r18
    4756:	93 1f       	adc	r25, r19
    4758:	84 0f       	add	r24, r20
    475a:	95 1f       	adc	r25, r21
    475c:	fc 01       	movw	r30, r24
    475e:	eb 57       	subi	r30, 0x7B	; 123
    4760:	fe 4f       	sbci	r31, 0xFE	; 254
    4762:	20 81       	ld	r18, Z
    4764:	88 85       	ldd	r24, Y+8	; 0x08
    4766:	88 2f       	mov	r24, r24
    4768:	90 e0       	ldi	r25, 0x00	; 0
    476a:	fc 01       	movw	r30, r24
    476c:	e6 55       	subi	r30, 0x56	; 86
    476e:	fe 4f       	sbci	r31, 0xFE	; 254
    4770:	80 81       	ld	r24, Z
    4772:	98 2f       	mov	r25, r24
    4774:	91 70       	andi	r25, 0x01	; 1
    4776:	86 2f       	mov	r24, r22
    4778:	62 2f       	mov	r22, r18
    477a:	49 2f       	mov	r20, r25
    477c:	0e 94 18 17 	call	0x2e30	; 0x2e30 <DIO_enuSetPinVal>
    4780:	28 2f       	mov	r18, r24
    4782:	30 e0       	ldi	r19, 0x00	; 0
    4784:	8d 81       	ldd	r24, Y+5	; 0x05
    4786:	88 2f       	mov	r24, r24
    4788:	90 e0       	ldi	r25, 0x00	; 0
    478a:	a9 01       	movw	r20, r18
    478c:	02 c0       	rjmp	.+4      	; 0x4792 <Seven_Segment_enuDisplayNumber+0x680>
    478e:	44 0f       	add	r20, r20
    4790:	55 1f       	adc	r21, r21
    4792:	8a 95       	dec	r24
    4794:	e2 f7       	brpl	.-8      	; 0x478e <Seven_Segment_enuDisplayNumber+0x67c>
    4796:	ca 01       	movw	r24, r20
    4798:	9c 01       	movw	r18, r24
    479a:	44 27       	eor	r20, r20
    479c:	37 fd       	sbrc	r19, 7
    479e:	40 95       	com	r20
    47a0:	54 2f       	mov	r21, r20
    47a2:	89 81       	ldd	r24, Y+1	; 0x01
    47a4:	9a 81       	ldd	r25, Y+2	; 0x02
    47a6:	ab 81       	ldd	r26, Y+3	; 0x03
    47a8:	bc 81       	ldd	r27, Y+4	; 0x04
    47aa:	82 2b       	or	r24, r18
    47ac:	93 2b       	or	r25, r19
    47ae:	a4 2b       	or	r26, r20
    47b0:	b5 2b       	or	r27, r21
    47b2:	89 83       	std	Y+1, r24	; 0x01
    47b4:	9a 83       	std	Y+2, r25	; 0x02
    47b6:	ab 83       	std	Y+3, r26	; 0x03
    47b8:	bc 83       	std	Y+4, r27	; 0x04
			Local_u32CheckError |= (DIO_enuSetPinVal(SEV_SEG_AstrSEGConfig[Copy_SEG_ID].SEG_BPORT, SEV_SEG_AstrSEGConfig[Copy_SEG_ID].SEG_BPIN, ((SEGCth_Numbers[Copy_u8Number] >> BPIN_POS) & MASK_BIT)) << (Local_u8Iterator_Error += ERROR_STATE_SIZE));
    47ba:	8f 81       	ldd	r24, Y+7	; 0x07
    47bc:	48 2f       	mov	r20, r24
    47be:	50 e0       	ldi	r21, 0x00	; 0
    47c0:	ca 01       	movw	r24, r20
    47c2:	88 0f       	add	r24, r24
    47c4:	99 1f       	adc	r25, r25
    47c6:	9c 01       	movw	r18, r24
    47c8:	22 0f       	add	r18, r18
    47ca:	33 1f       	adc	r19, r19
    47cc:	22 0f       	add	r18, r18
    47ce:	33 1f       	adc	r19, r19
    47d0:	22 0f       	add	r18, r18
    47d2:	33 1f       	adc	r19, r19
    47d4:	82 0f       	add	r24, r18
    47d6:	93 1f       	adc	r25, r19
    47d8:	84 0f       	add	r24, r20
    47da:	95 1f       	adc	r25, r21
    47dc:	fc 01       	movw	r30, r24
    47de:	ea 57       	subi	r30, 0x7A	; 122
    47e0:	fe 4f       	sbci	r31, 0xFE	; 254
    47e2:	60 81       	ld	r22, Z
    47e4:	8f 81       	ldd	r24, Y+7	; 0x07
    47e6:	48 2f       	mov	r20, r24
    47e8:	50 e0       	ldi	r21, 0x00	; 0
    47ea:	ca 01       	movw	r24, r20
    47ec:	88 0f       	add	r24, r24
    47ee:	99 1f       	adc	r25, r25
    47f0:	9c 01       	movw	r18, r24
    47f2:	22 0f       	add	r18, r18
    47f4:	33 1f       	adc	r19, r19
    47f6:	22 0f       	add	r18, r18
    47f8:	33 1f       	adc	r19, r19
    47fa:	22 0f       	add	r18, r18
    47fc:	33 1f       	adc	r19, r19
    47fe:	82 0f       	add	r24, r18
    4800:	93 1f       	adc	r25, r19
    4802:	84 0f       	add	r24, r20
    4804:	95 1f       	adc	r25, r21
    4806:	fc 01       	movw	r30, r24
    4808:	e9 57       	subi	r30, 0x79	; 121
    480a:	fe 4f       	sbci	r31, 0xFE	; 254
    480c:	20 81       	ld	r18, Z
    480e:	88 85       	ldd	r24, Y+8	; 0x08
    4810:	88 2f       	mov	r24, r24
    4812:	90 e0       	ldi	r25, 0x00	; 0
    4814:	fc 01       	movw	r30, r24
    4816:	e6 55       	subi	r30, 0x56	; 86
    4818:	fe 4f       	sbci	r31, 0xFE	; 254
    481a:	80 81       	ld	r24, Z
    481c:	86 95       	lsr	r24
    481e:	98 2f       	mov	r25, r24
    4820:	91 70       	andi	r25, 0x01	; 1
    4822:	86 2f       	mov	r24, r22
    4824:	62 2f       	mov	r22, r18
    4826:	49 2f       	mov	r20, r25
    4828:	0e 94 18 17 	call	0x2e30	; 0x2e30 <DIO_enuSetPinVal>
    482c:	28 2f       	mov	r18, r24
    482e:	30 e0       	ldi	r19, 0x00	; 0
    4830:	8d 81       	ldd	r24, Y+5	; 0x05
    4832:	8d 5f       	subi	r24, 0xFD	; 253
    4834:	8d 83       	std	Y+5, r24	; 0x05
    4836:	8d 81       	ldd	r24, Y+5	; 0x05
    4838:	88 2f       	mov	r24, r24
    483a:	90 e0       	ldi	r25, 0x00	; 0
    483c:	a9 01       	movw	r20, r18
    483e:	02 c0       	rjmp	.+4      	; 0x4844 <Seven_Segment_enuDisplayNumber+0x732>
    4840:	44 0f       	add	r20, r20
    4842:	55 1f       	adc	r21, r21
    4844:	8a 95       	dec	r24
    4846:	e2 f7       	brpl	.-8      	; 0x4840 <Seven_Segment_enuDisplayNumber+0x72e>
    4848:	ca 01       	movw	r24, r20
    484a:	9c 01       	movw	r18, r24
    484c:	44 27       	eor	r20, r20
    484e:	37 fd       	sbrc	r19, 7
    4850:	40 95       	com	r20
    4852:	54 2f       	mov	r21, r20
    4854:	89 81       	ldd	r24, Y+1	; 0x01
    4856:	9a 81       	ldd	r25, Y+2	; 0x02
    4858:	ab 81       	ldd	r26, Y+3	; 0x03
    485a:	bc 81       	ldd	r27, Y+4	; 0x04
    485c:	82 2b       	or	r24, r18
    485e:	93 2b       	or	r25, r19
    4860:	a4 2b       	or	r26, r20
    4862:	b5 2b       	or	r27, r21
    4864:	89 83       	std	Y+1, r24	; 0x01
    4866:	9a 83       	std	Y+2, r25	; 0x02
    4868:	ab 83       	std	Y+3, r26	; 0x03
    486a:	bc 83       	std	Y+4, r27	; 0x04
			Local_u32CheckError |= (DIO_enuSetPinVal(SEV_SEG_AstrSEGConfig[Copy_SEG_ID].SEG_CPORT, SEV_SEG_AstrSEGConfig[Copy_SEG_ID].SEG_CPIN, ((SEGCth_Numbers[Copy_u8Number] >> CPIN_POS) & MASK_BIT)) << (Local_u8Iterator_Error += ERROR_STATE_SIZE));
    486c:	8f 81       	ldd	r24, Y+7	; 0x07
    486e:	48 2f       	mov	r20, r24
    4870:	50 e0       	ldi	r21, 0x00	; 0
    4872:	ca 01       	movw	r24, r20
    4874:	88 0f       	add	r24, r24
    4876:	99 1f       	adc	r25, r25
    4878:	9c 01       	movw	r18, r24
    487a:	22 0f       	add	r18, r18
    487c:	33 1f       	adc	r19, r19
    487e:	22 0f       	add	r18, r18
    4880:	33 1f       	adc	r19, r19
    4882:	22 0f       	add	r18, r18
    4884:	33 1f       	adc	r19, r19
    4886:	82 0f       	add	r24, r18
    4888:	93 1f       	adc	r25, r19
    488a:	84 0f       	add	r24, r20
    488c:	95 1f       	adc	r25, r21
    488e:	fc 01       	movw	r30, r24
    4890:	e8 57       	subi	r30, 0x78	; 120
    4892:	fe 4f       	sbci	r31, 0xFE	; 254
    4894:	60 81       	ld	r22, Z
    4896:	8f 81       	ldd	r24, Y+7	; 0x07
    4898:	48 2f       	mov	r20, r24
    489a:	50 e0       	ldi	r21, 0x00	; 0
    489c:	ca 01       	movw	r24, r20
    489e:	88 0f       	add	r24, r24
    48a0:	99 1f       	adc	r25, r25
    48a2:	9c 01       	movw	r18, r24
    48a4:	22 0f       	add	r18, r18
    48a6:	33 1f       	adc	r19, r19
    48a8:	22 0f       	add	r18, r18
    48aa:	33 1f       	adc	r19, r19
    48ac:	22 0f       	add	r18, r18
    48ae:	33 1f       	adc	r19, r19
    48b0:	82 0f       	add	r24, r18
    48b2:	93 1f       	adc	r25, r19
    48b4:	84 0f       	add	r24, r20
    48b6:	95 1f       	adc	r25, r21
    48b8:	fc 01       	movw	r30, r24
    48ba:	e7 57       	subi	r30, 0x77	; 119
    48bc:	fe 4f       	sbci	r31, 0xFE	; 254
    48be:	20 81       	ld	r18, Z
    48c0:	88 85       	ldd	r24, Y+8	; 0x08
    48c2:	88 2f       	mov	r24, r24
    48c4:	90 e0       	ldi	r25, 0x00	; 0
    48c6:	fc 01       	movw	r30, r24
    48c8:	e6 55       	subi	r30, 0x56	; 86
    48ca:	fe 4f       	sbci	r31, 0xFE	; 254
    48cc:	80 81       	ld	r24, Z
    48ce:	86 95       	lsr	r24
    48d0:	86 95       	lsr	r24
    48d2:	98 2f       	mov	r25, r24
    48d4:	91 70       	andi	r25, 0x01	; 1
    48d6:	86 2f       	mov	r24, r22
    48d8:	62 2f       	mov	r22, r18
    48da:	49 2f       	mov	r20, r25
    48dc:	0e 94 18 17 	call	0x2e30	; 0x2e30 <DIO_enuSetPinVal>
    48e0:	28 2f       	mov	r18, r24
    48e2:	30 e0       	ldi	r19, 0x00	; 0
    48e4:	8d 81       	ldd	r24, Y+5	; 0x05
    48e6:	8d 5f       	subi	r24, 0xFD	; 253
    48e8:	8d 83       	std	Y+5, r24	; 0x05
    48ea:	8d 81       	ldd	r24, Y+5	; 0x05
    48ec:	88 2f       	mov	r24, r24
    48ee:	90 e0       	ldi	r25, 0x00	; 0
    48f0:	a9 01       	movw	r20, r18
    48f2:	02 c0       	rjmp	.+4      	; 0x48f8 <Seven_Segment_enuDisplayNumber+0x7e6>
    48f4:	44 0f       	add	r20, r20
    48f6:	55 1f       	adc	r21, r21
    48f8:	8a 95       	dec	r24
    48fa:	e2 f7       	brpl	.-8      	; 0x48f4 <Seven_Segment_enuDisplayNumber+0x7e2>
    48fc:	ca 01       	movw	r24, r20
    48fe:	9c 01       	movw	r18, r24
    4900:	44 27       	eor	r20, r20
    4902:	37 fd       	sbrc	r19, 7
    4904:	40 95       	com	r20
    4906:	54 2f       	mov	r21, r20
    4908:	89 81       	ldd	r24, Y+1	; 0x01
    490a:	9a 81       	ldd	r25, Y+2	; 0x02
    490c:	ab 81       	ldd	r26, Y+3	; 0x03
    490e:	bc 81       	ldd	r27, Y+4	; 0x04
    4910:	82 2b       	or	r24, r18
    4912:	93 2b       	or	r25, r19
    4914:	a4 2b       	or	r26, r20
    4916:	b5 2b       	or	r27, r21
    4918:	89 83       	std	Y+1, r24	; 0x01
    491a:	9a 83       	std	Y+2, r25	; 0x02
    491c:	ab 83       	std	Y+3, r26	; 0x03
    491e:	bc 83       	std	Y+4, r27	; 0x04
			Local_u32CheckError |= (DIO_enuSetPinVal(SEV_SEG_AstrSEGConfig[Copy_SEG_ID].SEG_DPORT, SEV_SEG_AstrSEGConfig[Copy_SEG_ID].SEG_DPIN, ((SEGCth_Numbers[Copy_u8Number] >> DPIN_POS) & MASK_BIT)) << (Local_u8Iterator_Error += ERROR_STATE_SIZE));
    4920:	8f 81       	ldd	r24, Y+7	; 0x07
    4922:	48 2f       	mov	r20, r24
    4924:	50 e0       	ldi	r21, 0x00	; 0
    4926:	ca 01       	movw	r24, r20
    4928:	88 0f       	add	r24, r24
    492a:	99 1f       	adc	r25, r25
    492c:	9c 01       	movw	r18, r24
    492e:	22 0f       	add	r18, r18
    4930:	33 1f       	adc	r19, r19
    4932:	22 0f       	add	r18, r18
    4934:	33 1f       	adc	r19, r19
    4936:	22 0f       	add	r18, r18
    4938:	33 1f       	adc	r19, r19
    493a:	82 0f       	add	r24, r18
    493c:	93 1f       	adc	r25, r19
    493e:	84 0f       	add	r24, r20
    4940:	95 1f       	adc	r25, r21
    4942:	fc 01       	movw	r30, r24
    4944:	e6 57       	subi	r30, 0x76	; 118
    4946:	fe 4f       	sbci	r31, 0xFE	; 254
    4948:	60 81       	ld	r22, Z
    494a:	8f 81       	ldd	r24, Y+7	; 0x07
    494c:	48 2f       	mov	r20, r24
    494e:	50 e0       	ldi	r21, 0x00	; 0
    4950:	ca 01       	movw	r24, r20
    4952:	88 0f       	add	r24, r24
    4954:	99 1f       	adc	r25, r25
    4956:	9c 01       	movw	r18, r24
    4958:	22 0f       	add	r18, r18
    495a:	33 1f       	adc	r19, r19
    495c:	22 0f       	add	r18, r18
    495e:	33 1f       	adc	r19, r19
    4960:	22 0f       	add	r18, r18
    4962:	33 1f       	adc	r19, r19
    4964:	82 0f       	add	r24, r18
    4966:	93 1f       	adc	r25, r19
    4968:	84 0f       	add	r24, r20
    496a:	95 1f       	adc	r25, r21
    496c:	fc 01       	movw	r30, r24
    496e:	e5 57       	subi	r30, 0x75	; 117
    4970:	fe 4f       	sbci	r31, 0xFE	; 254
    4972:	20 81       	ld	r18, Z
    4974:	88 85       	ldd	r24, Y+8	; 0x08
    4976:	88 2f       	mov	r24, r24
    4978:	90 e0       	ldi	r25, 0x00	; 0
    497a:	fc 01       	movw	r30, r24
    497c:	e6 55       	subi	r30, 0x56	; 86
    497e:	fe 4f       	sbci	r31, 0xFE	; 254
    4980:	80 81       	ld	r24, Z
    4982:	86 95       	lsr	r24
    4984:	86 95       	lsr	r24
    4986:	86 95       	lsr	r24
    4988:	98 2f       	mov	r25, r24
    498a:	91 70       	andi	r25, 0x01	; 1
    498c:	86 2f       	mov	r24, r22
    498e:	62 2f       	mov	r22, r18
    4990:	49 2f       	mov	r20, r25
    4992:	0e 94 18 17 	call	0x2e30	; 0x2e30 <DIO_enuSetPinVal>
    4996:	28 2f       	mov	r18, r24
    4998:	30 e0       	ldi	r19, 0x00	; 0
    499a:	8d 81       	ldd	r24, Y+5	; 0x05
    499c:	8d 5f       	subi	r24, 0xFD	; 253
    499e:	8d 83       	std	Y+5, r24	; 0x05
    49a0:	8d 81       	ldd	r24, Y+5	; 0x05
    49a2:	88 2f       	mov	r24, r24
    49a4:	90 e0       	ldi	r25, 0x00	; 0
    49a6:	a9 01       	movw	r20, r18
    49a8:	02 c0       	rjmp	.+4      	; 0x49ae <Seven_Segment_enuDisplayNumber+0x89c>
    49aa:	44 0f       	add	r20, r20
    49ac:	55 1f       	adc	r21, r21
    49ae:	8a 95       	dec	r24
    49b0:	e2 f7       	brpl	.-8      	; 0x49aa <Seven_Segment_enuDisplayNumber+0x898>
    49b2:	ca 01       	movw	r24, r20
    49b4:	9c 01       	movw	r18, r24
    49b6:	44 27       	eor	r20, r20
    49b8:	37 fd       	sbrc	r19, 7
    49ba:	40 95       	com	r20
    49bc:	54 2f       	mov	r21, r20
    49be:	89 81       	ldd	r24, Y+1	; 0x01
    49c0:	9a 81       	ldd	r25, Y+2	; 0x02
    49c2:	ab 81       	ldd	r26, Y+3	; 0x03
    49c4:	bc 81       	ldd	r27, Y+4	; 0x04
    49c6:	82 2b       	or	r24, r18
    49c8:	93 2b       	or	r25, r19
    49ca:	a4 2b       	or	r26, r20
    49cc:	b5 2b       	or	r27, r21
    49ce:	89 83       	std	Y+1, r24	; 0x01
    49d0:	9a 83       	std	Y+2, r25	; 0x02
    49d2:	ab 83       	std	Y+3, r26	; 0x03
    49d4:	bc 83       	std	Y+4, r27	; 0x04
			Local_u32CheckError |= (DIO_enuSetPinVal(SEV_SEG_AstrSEGConfig[Copy_SEG_ID].SEG_EPORT, SEV_SEG_AstrSEGConfig[Copy_SEG_ID].SEG_EPIN, ((SEGCth_Numbers[Copy_u8Number] >> EPIN_POS) & MASK_BIT)) << (Local_u8Iterator_Error += ERROR_STATE_SIZE));
    49d6:	8f 81       	ldd	r24, Y+7	; 0x07
    49d8:	48 2f       	mov	r20, r24
    49da:	50 e0       	ldi	r21, 0x00	; 0
    49dc:	ca 01       	movw	r24, r20
    49de:	88 0f       	add	r24, r24
    49e0:	99 1f       	adc	r25, r25
    49e2:	9c 01       	movw	r18, r24
    49e4:	22 0f       	add	r18, r18
    49e6:	33 1f       	adc	r19, r19
    49e8:	22 0f       	add	r18, r18
    49ea:	33 1f       	adc	r19, r19
    49ec:	22 0f       	add	r18, r18
    49ee:	33 1f       	adc	r19, r19
    49f0:	82 0f       	add	r24, r18
    49f2:	93 1f       	adc	r25, r19
    49f4:	84 0f       	add	r24, r20
    49f6:	95 1f       	adc	r25, r21
    49f8:	fc 01       	movw	r30, r24
    49fa:	e4 57       	subi	r30, 0x74	; 116
    49fc:	fe 4f       	sbci	r31, 0xFE	; 254
    49fe:	60 81       	ld	r22, Z
    4a00:	8f 81       	ldd	r24, Y+7	; 0x07
    4a02:	48 2f       	mov	r20, r24
    4a04:	50 e0       	ldi	r21, 0x00	; 0
    4a06:	ca 01       	movw	r24, r20
    4a08:	88 0f       	add	r24, r24
    4a0a:	99 1f       	adc	r25, r25
    4a0c:	9c 01       	movw	r18, r24
    4a0e:	22 0f       	add	r18, r18
    4a10:	33 1f       	adc	r19, r19
    4a12:	22 0f       	add	r18, r18
    4a14:	33 1f       	adc	r19, r19
    4a16:	22 0f       	add	r18, r18
    4a18:	33 1f       	adc	r19, r19
    4a1a:	82 0f       	add	r24, r18
    4a1c:	93 1f       	adc	r25, r19
    4a1e:	84 0f       	add	r24, r20
    4a20:	95 1f       	adc	r25, r21
    4a22:	fc 01       	movw	r30, r24
    4a24:	e3 57       	subi	r30, 0x73	; 115
    4a26:	fe 4f       	sbci	r31, 0xFE	; 254
    4a28:	20 81       	ld	r18, Z
    4a2a:	88 85       	ldd	r24, Y+8	; 0x08
    4a2c:	88 2f       	mov	r24, r24
    4a2e:	90 e0       	ldi	r25, 0x00	; 0
    4a30:	fc 01       	movw	r30, r24
    4a32:	e6 55       	subi	r30, 0x56	; 86
    4a34:	fe 4f       	sbci	r31, 0xFE	; 254
    4a36:	80 81       	ld	r24, Z
    4a38:	82 95       	swap	r24
    4a3a:	8f 70       	andi	r24, 0x0F	; 15
    4a3c:	98 2f       	mov	r25, r24
    4a3e:	91 70       	andi	r25, 0x01	; 1
    4a40:	86 2f       	mov	r24, r22
    4a42:	62 2f       	mov	r22, r18
    4a44:	49 2f       	mov	r20, r25
    4a46:	0e 94 18 17 	call	0x2e30	; 0x2e30 <DIO_enuSetPinVal>
    4a4a:	28 2f       	mov	r18, r24
    4a4c:	30 e0       	ldi	r19, 0x00	; 0
    4a4e:	8d 81       	ldd	r24, Y+5	; 0x05
    4a50:	8d 5f       	subi	r24, 0xFD	; 253
    4a52:	8d 83       	std	Y+5, r24	; 0x05
    4a54:	8d 81       	ldd	r24, Y+5	; 0x05
    4a56:	88 2f       	mov	r24, r24
    4a58:	90 e0       	ldi	r25, 0x00	; 0
    4a5a:	a9 01       	movw	r20, r18
    4a5c:	02 c0       	rjmp	.+4      	; 0x4a62 <Seven_Segment_enuDisplayNumber+0x950>
    4a5e:	44 0f       	add	r20, r20
    4a60:	55 1f       	adc	r21, r21
    4a62:	8a 95       	dec	r24
    4a64:	e2 f7       	brpl	.-8      	; 0x4a5e <Seven_Segment_enuDisplayNumber+0x94c>
    4a66:	ca 01       	movw	r24, r20
    4a68:	9c 01       	movw	r18, r24
    4a6a:	44 27       	eor	r20, r20
    4a6c:	37 fd       	sbrc	r19, 7
    4a6e:	40 95       	com	r20
    4a70:	54 2f       	mov	r21, r20
    4a72:	89 81       	ldd	r24, Y+1	; 0x01
    4a74:	9a 81       	ldd	r25, Y+2	; 0x02
    4a76:	ab 81       	ldd	r26, Y+3	; 0x03
    4a78:	bc 81       	ldd	r27, Y+4	; 0x04
    4a7a:	82 2b       	or	r24, r18
    4a7c:	93 2b       	or	r25, r19
    4a7e:	a4 2b       	or	r26, r20
    4a80:	b5 2b       	or	r27, r21
    4a82:	89 83       	std	Y+1, r24	; 0x01
    4a84:	9a 83       	std	Y+2, r25	; 0x02
    4a86:	ab 83       	std	Y+3, r26	; 0x03
    4a88:	bc 83       	std	Y+4, r27	; 0x04
			Local_u32CheckError |= (DIO_enuSetPinVal(SEV_SEG_AstrSEGConfig[Copy_SEG_ID].SEG_FPORT, SEV_SEG_AstrSEGConfig[Copy_SEG_ID].SEG_FPIN, ((SEGCth_Numbers[Copy_u8Number] >> FPIN_POS) & MASK_BIT)) << (Local_u8Iterator_Error += ERROR_STATE_SIZE));
    4a8a:	8f 81       	ldd	r24, Y+7	; 0x07
    4a8c:	48 2f       	mov	r20, r24
    4a8e:	50 e0       	ldi	r21, 0x00	; 0
    4a90:	ca 01       	movw	r24, r20
    4a92:	88 0f       	add	r24, r24
    4a94:	99 1f       	adc	r25, r25
    4a96:	9c 01       	movw	r18, r24
    4a98:	22 0f       	add	r18, r18
    4a9a:	33 1f       	adc	r19, r19
    4a9c:	22 0f       	add	r18, r18
    4a9e:	33 1f       	adc	r19, r19
    4aa0:	22 0f       	add	r18, r18
    4aa2:	33 1f       	adc	r19, r19
    4aa4:	82 0f       	add	r24, r18
    4aa6:	93 1f       	adc	r25, r19
    4aa8:	84 0f       	add	r24, r20
    4aaa:	95 1f       	adc	r25, r21
    4aac:	fc 01       	movw	r30, r24
    4aae:	e2 57       	subi	r30, 0x72	; 114
    4ab0:	fe 4f       	sbci	r31, 0xFE	; 254
    4ab2:	60 81       	ld	r22, Z
    4ab4:	8f 81       	ldd	r24, Y+7	; 0x07
    4ab6:	48 2f       	mov	r20, r24
    4ab8:	50 e0       	ldi	r21, 0x00	; 0
    4aba:	ca 01       	movw	r24, r20
    4abc:	88 0f       	add	r24, r24
    4abe:	99 1f       	adc	r25, r25
    4ac0:	9c 01       	movw	r18, r24
    4ac2:	22 0f       	add	r18, r18
    4ac4:	33 1f       	adc	r19, r19
    4ac6:	22 0f       	add	r18, r18
    4ac8:	33 1f       	adc	r19, r19
    4aca:	22 0f       	add	r18, r18
    4acc:	33 1f       	adc	r19, r19
    4ace:	82 0f       	add	r24, r18
    4ad0:	93 1f       	adc	r25, r19
    4ad2:	84 0f       	add	r24, r20
    4ad4:	95 1f       	adc	r25, r21
    4ad6:	fc 01       	movw	r30, r24
    4ad8:	e1 57       	subi	r30, 0x71	; 113
    4ada:	fe 4f       	sbci	r31, 0xFE	; 254
    4adc:	20 81       	ld	r18, Z
    4ade:	88 85       	ldd	r24, Y+8	; 0x08
    4ae0:	88 2f       	mov	r24, r24
    4ae2:	90 e0       	ldi	r25, 0x00	; 0
    4ae4:	fc 01       	movw	r30, r24
    4ae6:	e6 55       	subi	r30, 0x56	; 86
    4ae8:	fe 4f       	sbci	r31, 0xFE	; 254
    4aea:	80 81       	ld	r24, Z
    4aec:	82 95       	swap	r24
    4aee:	86 95       	lsr	r24
    4af0:	87 70       	andi	r24, 0x07	; 7
    4af2:	98 2f       	mov	r25, r24
    4af4:	91 70       	andi	r25, 0x01	; 1
    4af6:	86 2f       	mov	r24, r22
    4af8:	62 2f       	mov	r22, r18
    4afa:	49 2f       	mov	r20, r25
    4afc:	0e 94 18 17 	call	0x2e30	; 0x2e30 <DIO_enuSetPinVal>
    4b00:	28 2f       	mov	r18, r24
    4b02:	30 e0       	ldi	r19, 0x00	; 0
    4b04:	8d 81       	ldd	r24, Y+5	; 0x05
    4b06:	8d 5f       	subi	r24, 0xFD	; 253
    4b08:	8d 83       	std	Y+5, r24	; 0x05
    4b0a:	8d 81       	ldd	r24, Y+5	; 0x05
    4b0c:	88 2f       	mov	r24, r24
    4b0e:	90 e0       	ldi	r25, 0x00	; 0
    4b10:	a9 01       	movw	r20, r18
    4b12:	02 c0       	rjmp	.+4      	; 0x4b18 <Seven_Segment_enuDisplayNumber+0xa06>
    4b14:	44 0f       	add	r20, r20
    4b16:	55 1f       	adc	r21, r21
    4b18:	8a 95       	dec	r24
    4b1a:	e2 f7       	brpl	.-8      	; 0x4b14 <Seven_Segment_enuDisplayNumber+0xa02>
    4b1c:	ca 01       	movw	r24, r20
    4b1e:	9c 01       	movw	r18, r24
    4b20:	44 27       	eor	r20, r20
    4b22:	37 fd       	sbrc	r19, 7
    4b24:	40 95       	com	r20
    4b26:	54 2f       	mov	r21, r20
    4b28:	89 81       	ldd	r24, Y+1	; 0x01
    4b2a:	9a 81       	ldd	r25, Y+2	; 0x02
    4b2c:	ab 81       	ldd	r26, Y+3	; 0x03
    4b2e:	bc 81       	ldd	r27, Y+4	; 0x04
    4b30:	82 2b       	or	r24, r18
    4b32:	93 2b       	or	r25, r19
    4b34:	a4 2b       	or	r26, r20
    4b36:	b5 2b       	or	r27, r21
    4b38:	89 83       	std	Y+1, r24	; 0x01
    4b3a:	9a 83       	std	Y+2, r25	; 0x02
    4b3c:	ab 83       	std	Y+3, r26	; 0x03
    4b3e:	bc 83       	std	Y+4, r27	; 0x04
			Local_u32CheckError |= (DIO_enuSetPinVal(SEV_SEG_AstrSEGConfig[Copy_SEG_ID].SEG_GPORT, SEV_SEG_AstrSEGConfig[Copy_SEG_ID].SEG_GPIN, ((SEGCth_Numbers[Copy_u8Number] >> GPIN_POS) & MASK_BIT)) << (Local_u8Iterator_Error += ERROR_STATE_SIZE));
    4b40:	8f 81       	ldd	r24, Y+7	; 0x07
    4b42:	48 2f       	mov	r20, r24
    4b44:	50 e0       	ldi	r21, 0x00	; 0
    4b46:	ca 01       	movw	r24, r20
    4b48:	88 0f       	add	r24, r24
    4b4a:	99 1f       	adc	r25, r25
    4b4c:	9c 01       	movw	r18, r24
    4b4e:	22 0f       	add	r18, r18
    4b50:	33 1f       	adc	r19, r19
    4b52:	22 0f       	add	r18, r18
    4b54:	33 1f       	adc	r19, r19
    4b56:	22 0f       	add	r18, r18
    4b58:	33 1f       	adc	r19, r19
    4b5a:	82 0f       	add	r24, r18
    4b5c:	93 1f       	adc	r25, r19
    4b5e:	84 0f       	add	r24, r20
    4b60:	95 1f       	adc	r25, r21
    4b62:	fc 01       	movw	r30, r24
    4b64:	e0 57       	subi	r30, 0x70	; 112
    4b66:	fe 4f       	sbci	r31, 0xFE	; 254
    4b68:	60 81       	ld	r22, Z
    4b6a:	8f 81       	ldd	r24, Y+7	; 0x07
    4b6c:	48 2f       	mov	r20, r24
    4b6e:	50 e0       	ldi	r21, 0x00	; 0
    4b70:	ca 01       	movw	r24, r20
    4b72:	88 0f       	add	r24, r24
    4b74:	99 1f       	adc	r25, r25
    4b76:	9c 01       	movw	r18, r24
    4b78:	22 0f       	add	r18, r18
    4b7a:	33 1f       	adc	r19, r19
    4b7c:	22 0f       	add	r18, r18
    4b7e:	33 1f       	adc	r19, r19
    4b80:	22 0f       	add	r18, r18
    4b82:	33 1f       	adc	r19, r19
    4b84:	82 0f       	add	r24, r18
    4b86:	93 1f       	adc	r25, r19
    4b88:	84 0f       	add	r24, r20
    4b8a:	95 1f       	adc	r25, r21
    4b8c:	fc 01       	movw	r30, r24
    4b8e:	ef 56       	subi	r30, 0x6F	; 111
    4b90:	fe 4f       	sbci	r31, 0xFE	; 254
    4b92:	20 81       	ld	r18, Z
    4b94:	88 85       	ldd	r24, Y+8	; 0x08
    4b96:	88 2f       	mov	r24, r24
    4b98:	90 e0       	ldi	r25, 0x00	; 0
    4b9a:	fc 01       	movw	r30, r24
    4b9c:	e6 55       	subi	r30, 0x56	; 86
    4b9e:	fe 4f       	sbci	r31, 0xFE	; 254
    4ba0:	80 81       	ld	r24, Z
    4ba2:	82 95       	swap	r24
    4ba4:	86 95       	lsr	r24
    4ba6:	86 95       	lsr	r24
    4ba8:	83 70       	andi	r24, 0x03	; 3
    4baa:	98 2f       	mov	r25, r24
    4bac:	91 70       	andi	r25, 0x01	; 1
    4bae:	86 2f       	mov	r24, r22
    4bb0:	62 2f       	mov	r22, r18
    4bb2:	49 2f       	mov	r20, r25
    4bb4:	0e 94 18 17 	call	0x2e30	; 0x2e30 <DIO_enuSetPinVal>
    4bb8:	28 2f       	mov	r18, r24
    4bba:	30 e0       	ldi	r19, 0x00	; 0
    4bbc:	8d 81       	ldd	r24, Y+5	; 0x05
    4bbe:	8d 5f       	subi	r24, 0xFD	; 253
    4bc0:	8d 83       	std	Y+5, r24	; 0x05
    4bc2:	8d 81       	ldd	r24, Y+5	; 0x05
    4bc4:	88 2f       	mov	r24, r24
    4bc6:	90 e0       	ldi	r25, 0x00	; 0
    4bc8:	a9 01       	movw	r20, r18
    4bca:	02 c0       	rjmp	.+4      	; 0x4bd0 <Seven_Segment_enuDisplayNumber+0xabe>
    4bcc:	44 0f       	add	r20, r20
    4bce:	55 1f       	adc	r21, r21
    4bd0:	8a 95       	dec	r24
    4bd2:	e2 f7       	brpl	.-8      	; 0x4bcc <Seven_Segment_enuDisplayNumber+0xaba>
    4bd4:	ca 01       	movw	r24, r20
    4bd6:	9c 01       	movw	r18, r24
    4bd8:	44 27       	eor	r20, r20
    4bda:	37 fd       	sbrc	r19, 7
    4bdc:	40 95       	com	r20
    4bde:	54 2f       	mov	r21, r20
    4be0:	89 81       	ldd	r24, Y+1	; 0x01
    4be2:	9a 81       	ldd	r25, Y+2	; 0x02
    4be4:	ab 81       	ldd	r26, Y+3	; 0x03
    4be6:	bc 81       	ldd	r27, Y+4	; 0x04
    4be8:	82 2b       	or	r24, r18
    4bea:	93 2b       	or	r25, r19
    4bec:	a4 2b       	or	r26, r20
    4bee:	b5 2b       	or	r27, r21
    4bf0:	89 83       	std	Y+1, r24	; 0x01
    4bf2:	9a 83       	std	Y+2, r25	; 0x02
    4bf4:	ab 83       	std	Y+3, r26	; 0x03
    4bf6:	bc 83       	std	Y+4, r27	; 0x04
		}
		
		for(Local_u8Iterator_Error = 0; Local_u8Iterator_Error < sizeof(Local_u32CheckError)*8; Local_u8Iterator_Error += ERROR_STATE_SIZE)
    4bf8:	1d 82       	std	Y+5, r1	; 0x05
    4bfa:	1d c0       	rjmp	.+58     	; 0x4c36 <Seven_Segment_enuDisplayNumber+0xb24>
		{
			if(((Local_u32CheckError >> Local_u8Iterator_Error) & ERROR_STATE_MASK) != ES_OK)
    4bfc:	8d 81       	ldd	r24, Y+5	; 0x05
    4bfe:	28 2f       	mov	r18, r24
    4c00:	30 e0       	ldi	r19, 0x00	; 0
    4c02:	89 81       	ldd	r24, Y+1	; 0x01
    4c04:	9a 81       	ldd	r25, Y+2	; 0x02
    4c06:	ab 81       	ldd	r26, Y+3	; 0x03
    4c08:	bc 81       	ldd	r27, Y+4	; 0x04
    4c0a:	02 2e       	mov	r0, r18
    4c0c:	04 c0       	rjmp	.+8      	; 0x4c16 <Seven_Segment_enuDisplayNumber+0xb04>
    4c0e:	b6 95       	lsr	r27
    4c10:	a7 95       	ror	r26
    4c12:	97 95       	ror	r25
    4c14:	87 95       	ror	r24
    4c16:	0a 94       	dec	r0
    4c18:	d2 f7       	brpl	.-12     	; 0x4c0e <Seven_Segment_enuDisplayNumber+0xafc>
    4c1a:	87 70       	andi	r24, 0x07	; 7
    4c1c:	90 70       	andi	r25, 0x00	; 0
    4c1e:	a0 70       	andi	r26, 0x00	; 0
    4c20:	b0 70       	andi	r27, 0x00	; 0
    4c22:	00 97       	sbiw	r24, 0x00	; 0
    4c24:	a1 05       	cpc	r26, r1
    4c26:	b1 05       	cpc	r27, r1
    4c28:	19 f0       	breq	.+6      	; 0x4c30 <Seven_Segment_enuDisplayNumber+0xb1e>
			{
				return ES_NOK;
    4c2a:	51 e0       	ldi	r21, 0x01	; 1
    4c2c:	59 87       	std	Y+9, r21	; 0x09
    4c2e:	0c c0       	rjmp	.+24     	; 0x4c48 <Seven_Segment_enuDisplayNumber+0xb36>
			Local_u32CheckError |= (DIO_enuSetPinVal(SEV_SEG_AstrSEGConfig[Copy_SEG_ID].SEG_EPORT, SEV_SEG_AstrSEGConfig[Copy_SEG_ID].SEG_EPIN, ((SEGCth_Numbers[Copy_u8Number] >> EPIN_POS) & MASK_BIT)) << (Local_u8Iterator_Error += ERROR_STATE_SIZE));
			Local_u32CheckError |= (DIO_enuSetPinVal(SEV_SEG_AstrSEGConfig[Copy_SEG_ID].SEG_FPORT, SEV_SEG_AstrSEGConfig[Copy_SEG_ID].SEG_FPIN, ((SEGCth_Numbers[Copy_u8Number] >> FPIN_POS) & MASK_BIT)) << (Local_u8Iterator_Error += ERROR_STATE_SIZE));
			Local_u32CheckError |= (DIO_enuSetPinVal(SEV_SEG_AstrSEGConfig[Copy_SEG_ID].SEG_GPORT, SEV_SEG_AstrSEGConfig[Copy_SEG_ID].SEG_GPIN, ((SEGCth_Numbers[Copy_u8Number] >> GPIN_POS) & MASK_BIT)) << (Local_u8Iterator_Error += ERROR_STATE_SIZE));
		}
		
		for(Local_u8Iterator_Error = 0; Local_u8Iterator_Error < sizeof(Local_u32CheckError)*8; Local_u8Iterator_Error += ERROR_STATE_SIZE)
    4c30:	8d 81       	ldd	r24, Y+5	; 0x05
    4c32:	8d 5f       	subi	r24, 0xFD	; 253
    4c34:	8d 83       	std	Y+5, r24	; 0x05
    4c36:	8d 81       	ldd	r24, Y+5	; 0x05
    4c38:	80 32       	cpi	r24, 0x20	; 32
    4c3a:	00 f3       	brcs	.-64     	; 0x4bfc <Seven_Segment_enuDisplayNumber+0xaea>
			if(((Local_u32CheckError >> Local_u8Iterator_Error) & ERROR_STATE_MASK) != ES_OK)
			{
				return ES_NOK;
			}
		}
		Local_enuErrorState = ES_OK;
    4c3c:	1e 82       	std	Y+6, r1	; 0x06
    4c3e:	02 c0       	rjmp	.+4      	; 0x4c44 <Seven_Segment_enuDisplayNumber+0xb32>
	}
	else
	{
		Local_enuErrorState = ES_OUT_OF_RANGE;
    4c40:	83 e0       	ldi	r24, 0x03	; 3
    4c42:	8e 83       	std	Y+6, r24	; 0x06
	}
	
	return Local_enuErrorState;
    4c44:	8e 81       	ldd	r24, Y+6	; 0x06
    4c46:	89 87       	std	Y+9, r24	; 0x09
    4c48:	89 85       	ldd	r24, Y+9	; 0x09
}
    4c4a:	6e 96       	adiw	r28, 0x1e	; 30
    4c4c:	0f b6       	in	r0, 0x3f	; 63
    4c4e:	f8 94       	cli
    4c50:	de bf       	out	0x3e, r29	; 62
    4c52:	0f be       	out	0x3f, r0	; 63
    4c54:	cd bf       	out	0x3d, r28	; 61
    4c56:	cf 91       	pop	r28
    4c58:	df 91       	pop	r29
    4c5a:	08 95       	ret

00004c5c <Seven_Segment_enuEnableCommon>:

ES_t Seven_Segment_enuEnableCommon(u8 Copy_SEG_ID)
{
    4c5c:	df 93       	push	r29
    4c5e:	cf 93       	push	r28
    4c60:	00 d0       	rcall	.+0      	; 0x4c62 <Seven_Segment_enuEnableCommon+0x6>
    4c62:	cd b7       	in	r28, 0x3d	; 61
    4c64:	de b7       	in	r29, 0x3e	; 62
    4c66:	8a 83       	std	Y+2, r24	; 0x02
	ES_t Local_enuErrorState = ES_NOK;
    4c68:	81 e0       	ldi	r24, 0x01	; 1
    4c6a:	89 83       	std	Y+1, r24	; 0x01
	
	if(Copy_SEG_ID < SEG_NUM)
    4c6c:	8a 81       	ldd	r24, Y+2	; 0x02
    4c6e:	82 30       	cpi	r24, 0x02	; 2
    4c70:	08 f0       	brcs	.+2      	; 0x4c74 <Seven_Segment_enuEnableCommon+0x18>
    4c72:	90 c0       	rjmp	.+288    	; 0x4d94 <Seven_Segment_enuEnableCommon+0x138>
	{
		if(SEV_SEG_AstrSEGConfig[Copy_SEG_ID].SEG_TYPE == COMMON_ANODE)
    4c74:	8a 81       	ldd	r24, Y+2	; 0x02
    4c76:	48 2f       	mov	r20, r24
    4c78:	50 e0       	ldi	r21, 0x00	; 0
    4c7a:	ca 01       	movw	r24, r20
    4c7c:	88 0f       	add	r24, r24
    4c7e:	99 1f       	adc	r25, r25
    4c80:	9c 01       	movw	r18, r24
    4c82:	22 0f       	add	r18, r18
    4c84:	33 1f       	adc	r19, r19
    4c86:	22 0f       	add	r18, r18
    4c88:	33 1f       	adc	r19, r19
    4c8a:	22 0f       	add	r18, r18
    4c8c:	33 1f       	adc	r19, r19
    4c8e:	82 0f       	add	r24, r18
    4c90:	93 1f       	adc	r25, r19
    4c92:	84 0f       	add	r24, r20
    4c94:	95 1f       	adc	r25, r21
    4c96:	fc 01       	movw	r30, r24
    4c98:	ea 56       	subi	r30, 0x6A	; 106
    4c9a:	fe 4f       	sbci	r31, 0xFE	; 254
    4c9c:	80 81       	ld	r24, Z
    4c9e:	85 30       	cpi	r24, 0x05	; 5
    4ca0:	89 f5       	brne	.+98     	; 0x4d04 <Seven_Segment_enuEnableCommon+0xa8>
		{
			Local_enuErrorState = DIO_enuSetPinVal(SEV_SEG_AstrSEGConfig[Copy_SEG_ID].SEG_CMN_PORT, SEV_SEG_AstrSEGConfig[Copy_SEG_ID].SEG_CMN_PIN, DIO_u8HIGH);
    4ca2:	8a 81       	ldd	r24, Y+2	; 0x02
    4ca4:	48 2f       	mov	r20, r24
    4ca6:	50 e0       	ldi	r21, 0x00	; 0
    4ca8:	ca 01       	movw	r24, r20
    4caa:	88 0f       	add	r24, r24
    4cac:	99 1f       	adc	r25, r25
    4cae:	9c 01       	movw	r18, r24
    4cb0:	22 0f       	add	r18, r18
    4cb2:	33 1f       	adc	r19, r19
    4cb4:	22 0f       	add	r18, r18
    4cb6:	33 1f       	adc	r19, r19
    4cb8:	22 0f       	add	r18, r18
    4cba:	33 1f       	adc	r19, r19
    4cbc:	82 0f       	add	r24, r18
    4cbe:	93 1f       	adc	r25, r19
    4cc0:	84 0f       	add	r24, r20
    4cc2:	95 1f       	adc	r25, r21
    4cc4:	fc 01       	movw	r30, r24
    4cc6:	ee 56       	subi	r30, 0x6E	; 110
    4cc8:	fe 4f       	sbci	r31, 0xFE	; 254
    4cca:	60 81       	ld	r22, Z
    4ccc:	8a 81       	ldd	r24, Y+2	; 0x02
    4cce:	48 2f       	mov	r20, r24
    4cd0:	50 e0       	ldi	r21, 0x00	; 0
    4cd2:	ca 01       	movw	r24, r20
    4cd4:	88 0f       	add	r24, r24
    4cd6:	99 1f       	adc	r25, r25
    4cd8:	9c 01       	movw	r18, r24
    4cda:	22 0f       	add	r18, r18
    4cdc:	33 1f       	adc	r19, r19
    4cde:	22 0f       	add	r18, r18
    4ce0:	33 1f       	adc	r19, r19
    4ce2:	22 0f       	add	r18, r18
    4ce4:	33 1f       	adc	r19, r19
    4ce6:	82 0f       	add	r24, r18
    4ce8:	93 1f       	adc	r25, r19
    4cea:	84 0f       	add	r24, r20
    4cec:	95 1f       	adc	r25, r21
    4cee:	fc 01       	movw	r30, r24
    4cf0:	ed 56       	subi	r30, 0x6D	; 109
    4cf2:	fe 4f       	sbci	r31, 0xFE	; 254
    4cf4:	90 81       	ld	r25, Z
    4cf6:	86 2f       	mov	r24, r22
    4cf8:	69 2f       	mov	r22, r25
    4cfa:	41 e0       	ldi	r20, 0x01	; 1
    4cfc:	0e 94 18 17 	call	0x2e30	; 0x2e30 <DIO_enuSetPinVal>
    4d00:	89 83       	std	Y+1, r24	; 0x01
    4d02:	4a c0       	rjmp	.+148    	; 0x4d98 <Seven_Segment_enuEnableCommon+0x13c>
		}
		else if(SEV_SEG_AstrSEGConfig[Copy_SEG_ID].SEG_TYPE == COMMON_CATHODE)
    4d04:	8a 81       	ldd	r24, Y+2	; 0x02
    4d06:	48 2f       	mov	r20, r24
    4d08:	50 e0       	ldi	r21, 0x00	; 0
    4d0a:	ca 01       	movw	r24, r20
    4d0c:	88 0f       	add	r24, r24
    4d0e:	99 1f       	adc	r25, r25
    4d10:	9c 01       	movw	r18, r24
    4d12:	22 0f       	add	r18, r18
    4d14:	33 1f       	adc	r19, r19
    4d16:	22 0f       	add	r18, r18
    4d18:	33 1f       	adc	r19, r19
    4d1a:	22 0f       	add	r18, r18
    4d1c:	33 1f       	adc	r19, r19
    4d1e:	82 0f       	add	r24, r18
    4d20:	93 1f       	adc	r25, r19
    4d22:	84 0f       	add	r24, r20
    4d24:	95 1f       	adc	r25, r21
    4d26:	fc 01       	movw	r30, r24
    4d28:	ea 56       	subi	r30, 0x6A	; 106
    4d2a:	fe 4f       	sbci	r31, 0xFE	; 254
    4d2c:	80 81       	ld	r24, Z
    4d2e:	86 30       	cpi	r24, 0x06	; 6
    4d30:	99 f5       	brne	.+102    	; 0x4d98 <Seven_Segment_enuEnableCommon+0x13c>
		{
			Local_enuErrorState = DIO_enuSetPinVal(SEV_SEG_AstrSEGConfig[Copy_SEG_ID].SEG_CMN_PORT, SEV_SEG_AstrSEGConfig[Copy_SEG_ID].SEG_CMN_PIN, DIO_u8LOW);
    4d32:	8a 81       	ldd	r24, Y+2	; 0x02
    4d34:	48 2f       	mov	r20, r24
    4d36:	50 e0       	ldi	r21, 0x00	; 0
    4d38:	ca 01       	movw	r24, r20
    4d3a:	88 0f       	add	r24, r24
    4d3c:	99 1f       	adc	r25, r25
    4d3e:	9c 01       	movw	r18, r24
    4d40:	22 0f       	add	r18, r18
    4d42:	33 1f       	adc	r19, r19
    4d44:	22 0f       	add	r18, r18
    4d46:	33 1f       	adc	r19, r19
    4d48:	22 0f       	add	r18, r18
    4d4a:	33 1f       	adc	r19, r19
    4d4c:	82 0f       	add	r24, r18
    4d4e:	93 1f       	adc	r25, r19
    4d50:	84 0f       	add	r24, r20
    4d52:	95 1f       	adc	r25, r21
    4d54:	fc 01       	movw	r30, r24
    4d56:	ee 56       	subi	r30, 0x6E	; 110
    4d58:	fe 4f       	sbci	r31, 0xFE	; 254
    4d5a:	60 81       	ld	r22, Z
    4d5c:	8a 81       	ldd	r24, Y+2	; 0x02
    4d5e:	48 2f       	mov	r20, r24
    4d60:	50 e0       	ldi	r21, 0x00	; 0
    4d62:	ca 01       	movw	r24, r20
    4d64:	88 0f       	add	r24, r24
    4d66:	99 1f       	adc	r25, r25
    4d68:	9c 01       	movw	r18, r24
    4d6a:	22 0f       	add	r18, r18
    4d6c:	33 1f       	adc	r19, r19
    4d6e:	22 0f       	add	r18, r18
    4d70:	33 1f       	adc	r19, r19
    4d72:	22 0f       	add	r18, r18
    4d74:	33 1f       	adc	r19, r19
    4d76:	82 0f       	add	r24, r18
    4d78:	93 1f       	adc	r25, r19
    4d7a:	84 0f       	add	r24, r20
    4d7c:	95 1f       	adc	r25, r21
    4d7e:	fc 01       	movw	r30, r24
    4d80:	ed 56       	subi	r30, 0x6D	; 109
    4d82:	fe 4f       	sbci	r31, 0xFE	; 254
    4d84:	90 81       	ld	r25, Z
    4d86:	86 2f       	mov	r24, r22
    4d88:	69 2f       	mov	r22, r25
    4d8a:	40 e0       	ldi	r20, 0x00	; 0
    4d8c:	0e 94 18 17 	call	0x2e30	; 0x2e30 <DIO_enuSetPinVal>
    4d90:	89 83       	std	Y+1, r24	; 0x01
    4d92:	02 c0       	rjmp	.+4      	; 0x4d98 <Seven_Segment_enuEnableCommon+0x13c>
		}
	}
	else
	{
		Local_enuErrorState = ES_OUT_OF_RANGE;
    4d94:	83 e0       	ldi	r24, 0x03	; 3
    4d96:	89 83       	std	Y+1, r24	; 0x01
	}
	
	return Local_enuErrorState;
    4d98:	89 81       	ldd	r24, Y+1	; 0x01
}
    4d9a:	0f 90       	pop	r0
    4d9c:	0f 90       	pop	r0
    4d9e:	cf 91       	pop	r28
    4da0:	df 91       	pop	r29
    4da2:	08 95       	ret

00004da4 <Seven_Segment_enuDisableCommon>:

ES_t Seven_Segment_enuDisableCommon(u8 Copy_SEG_ID)
{
    4da4:	df 93       	push	r29
    4da6:	cf 93       	push	r28
    4da8:	00 d0       	rcall	.+0      	; 0x4daa <Seven_Segment_enuDisableCommon+0x6>
    4daa:	cd b7       	in	r28, 0x3d	; 61
    4dac:	de b7       	in	r29, 0x3e	; 62
    4dae:	8a 83       	std	Y+2, r24	; 0x02
	ES_t Local_enuErrorState = ES_NOK;
    4db0:	81 e0       	ldi	r24, 0x01	; 1
    4db2:	89 83       	std	Y+1, r24	; 0x01
	
	if(Copy_SEG_ID < SEG_NUM)
    4db4:	8a 81       	ldd	r24, Y+2	; 0x02
    4db6:	82 30       	cpi	r24, 0x02	; 2
    4db8:	08 f0       	brcs	.+2      	; 0x4dbc <Seven_Segment_enuDisableCommon+0x18>
    4dba:	90 c0       	rjmp	.+288    	; 0x4edc <Seven_Segment_enuDisableCommon+0x138>
	{
		if(SEV_SEG_AstrSEGConfig[Copy_SEG_ID].SEG_TYPE == COMMON_ANODE)
    4dbc:	8a 81       	ldd	r24, Y+2	; 0x02
    4dbe:	48 2f       	mov	r20, r24
    4dc0:	50 e0       	ldi	r21, 0x00	; 0
    4dc2:	ca 01       	movw	r24, r20
    4dc4:	88 0f       	add	r24, r24
    4dc6:	99 1f       	adc	r25, r25
    4dc8:	9c 01       	movw	r18, r24
    4dca:	22 0f       	add	r18, r18
    4dcc:	33 1f       	adc	r19, r19
    4dce:	22 0f       	add	r18, r18
    4dd0:	33 1f       	adc	r19, r19
    4dd2:	22 0f       	add	r18, r18
    4dd4:	33 1f       	adc	r19, r19
    4dd6:	82 0f       	add	r24, r18
    4dd8:	93 1f       	adc	r25, r19
    4dda:	84 0f       	add	r24, r20
    4ddc:	95 1f       	adc	r25, r21
    4dde:	fc 01       	movw	r30, r24
    4de0:	ea 56       	subi	r30, 0x6A	; 106
    4de2:	fe 4f       	sbci	r31, 0xFE	; 254
    4de4:	80 81       	ld	r24, Z
    4de6:	85 30       	cpi	r24, 0x05	; 5
    4de8:	89 f5       	brne	.+98     	; 0x4e4c <Seven_Segment_enuDisableCommon+0xa8>
		{
			Local_enuErrorState = DIO_enuSetPinVal(SEV_SEG_AstrSEGConfig[Copy_SEG_ID].SEG_CMN_PORT, SEV_SEG_AstrSEGConfig[Copy_SEG_ID].SEG_CMN_PIN, DIO_u8LOW);
    4dea:	8a 81       	ldd	r24, Y+2	; 0x02
    4dec:	48 2f       	mov	r20, r24
    4dee:	50 e0       	ldi	r21, 0x00	; 0
    4df0:	ca 01       	movw	r24, r20
    4df2:	88 0f       	add	r24, r24
    4df4:	99 1f       	adc	r25, r25
    4df6:	9c 01       	movw	r18, r24
    4df8:	22 0f       	add	r18, r18
    4dfa:	33 1f       	adc	r19, r19
    4dfc:	22 0f       	add	r18, r18
    4dfe:	33 1f       	adc	r19, r19
    4e00:	22 0f       	add	r18, r18
    4e02:	33 1f       	adc	r19, r19
    4e04:	82 0f       	add	r24, r18
    4e06:	93 1f       	adc	r25, r19
    4e08:	84 0f       	add	r24, r20
    4e0a:	95 1f       	adc	r25, r21
    4e0c:	fc 01       	movw	r30, r24
    4e0e:	ee 56       	subi	r30, 0x6E	; 110
    4e10:	fe 4f       	sbci	r31, 0xFE	; 254
    4e12:	60 81       	ld	r22, Z
    4e14:	8a 81       	ldd	r24, Y+2	; 0x02
    4e16:	48 2f       	mov	r20, r24
    4e18:	50 e0       	ldi	r21, 0x00	; 0
    4e1a:	ca 01       	movw	r24, r20
    4e1c:	88 0f       	add	r24, r24
    4e1e:	99 1f       	adc	r25, r25
    4e20:	9c 01       	movw	r18, r24
    4e22:	22 0f       	add	r18, r18
    4e24:	33 1f       	adc	r19, r19
    4e26:	22 0f       	add	r18, r18
    4e28:	33 1f       	adc	r19, r19
    4e2a:	22 0f       	add	r18, r18
    4e2c:	33 1f       	adc	r19, r19
    4e2e:	82 0f       	add	r24, r18
    4e30:	93 1f       	adc	r25, r19
    4e32:	84 0f       	add	r24, r20
    4e34:	95 1f       	adc	r25, r21
    4e36:	fc 01       	movw	r30, r24
    4e38:	ed 56       	subi	r30, 0x6D	; 109
    4e3a:	fe 4f       	sbci	r31, 0xFE	; 254
    4e3c:	90 81       	ld	r25, Z
    4e3e:	86 2f       	mov	r24, r22
    4e40:	69 2f       	mov	r22, r25
    4e42:	40 e0       	ldi	r20, 0x00	; 0
    4e44:	0e 94 18 17 	call	0x2e30	; 0x2e30 <DIO_enuSetPinVal>
    4e48:	89 83       	std	Y+1, r24	; 0x01
    4e4a:	4a c0       	rjmp	.+148    	; 0x4ee0 <Seven_Segment_enuDisableCommon+0x13c>
		}
		else if(SEV_SEG_AstrSEGConfig[Copy_SEG_ID].SEG_TYPE == COMMON_CATHODE)
    4e4c:	8a 81       	ldd	r24, Y+2	; 0x02
    4e4e:	48 2f       	mov	r20, r24
    4e50:	50 e0       	ldi	r21, 0x00	; 0
    4e52:	ca 01       	movw	r24, r20
    4e54:	88 0f       	add	r24, r24
    4e56:	99 1f       	adc	r25, r25
    4e58:	9c 01       	movw	r18, r24
    4e5a:	22 0f       	add	r18, r18
    4e5c:	33 1f       	adc	r19, r19
    4e5e:	22 0f       	add	r18, r18
    4e60:	33 1f       	adc	r19, r19
    4e62:	22 0f       	add	r18, r18
    4e64:	33 1f       	adc	r19, r19
    4e66:	82 0f       	add	r24, r18
    4e68:	93 1f       	adc	r25, r19
    4e6a:	84 0f       	add	r24, r20
    4e6c:	95 1f       	adc	r25, r21
    4e6e:	fc 01       	movw	r30, r24
    4e70:	ea 56       	subi	r30, 0x6A	; 106
    4e72:	fe 4f       	sbci	r31, 0xFE	; 254
    4e74:	80 81       	ld	r24, Z
    4e76:	86 30       	cpi	r24, 0x06	; 6
    4e78:	99 f5       	brne	.+102    	; 0x4ee0 <Seven_Segment_enuDisableCommon+0x13c>
		{
			Local_enuErrorState = DIO_enuSetPinVal(SEV_SEG_AstrSEGConfig[Copy_SEG_ID].SEG_CMN_PORT, SEV_SEG_AstrSEGConfig[Copy_SEG_ID].SEG_CMN_PIN, DIO_u8HIGH);
    4e7a:	8a 81       	ldd	r24, Y+2	; 0x02
    4e7c:	48 2f       	mov	r20, r24
    4e7e:	50 e0       	ldi	r21, 0x00	; 0
    4e80:	ca 01       	movw	r24, r20
    4e82:	88 0f       	add	r24, r24
    4e84:	99 1f       	adc	r25, r25
    4e86:	9c 01       	movw	r18, r24
    4e88:	22 0f       	add	r18, r18
    4e8a:	33 1f       	adc	r19, r19
    4e8c:	22 0f       	add	r18, r18
    4e8e:	33 1f       	adc	r19, r19
    4e90:	22 0f       	add	r18, r18
    4e92:	33 1f       	adc	r19, r19
    4e94:	82 0f       	add	r24, r18
    4e96:	93 1f       	adc	r25, r19
    4e98:	84 0f       	add	r24, r20
    4e9a:	95 1f       	adc	r25, r21
    4e9c:	fc 01       	movw	r30, r24
    4e9e:	ee 56       	subi	r30, 0x6E	; 110
    4ea0:	fe 4f       	sbci	r31, 0xFE	; 254
    4ea2:	60 81       	ld	r22, Z
    4ea4:	8a 81       	ldd	r24, Y+2	; 0x02
    4ea6:	48 2f       	mov	r20, r24
    4ea8:	50 e0       	ldi	r21, 0x00	; 0
    4eaa:	ca 01       	movw	r24, r20
    4eac:	88 0f       	add	r24, r24
    4eae:	99 1f       	adc	r25, r25
    4eb0:	9c 01       	movw	r18, r24
    4eb2:	22 0f       	add	r18, r18
    4eb4:	33 1f       	adc	r19, r19
    4eb6:	22 0f       	add	r18, r18
    4eb8:	33 1f       	adc	r19, r19
    4eba:	22 0f       	add	r18, r18
    4ebc:	33 1f       	adc	r19, r19
    4ebe:	82 0f       	add	r24, r18
    4ec0:	93 1f       	adc	r25, r19
    4ec2:	84 0f       	add	r24, r20
    4ec4:	95 1f       	adc	r25, r21
    4ec6:	fc 01       	movw	r30, r24
    4ec8:	ed 56       	subi	r30, 0x6D	; 109
    4eca:	fe 4f       	sbci	r31, 0xFE	; 254
    4ecc:	90 81       	ld	r25, Z
    4ece:	86 2f       	mov	r24, r22
    4ed0:	69 2f       	mov	r22, r25
    4ed2:	41 e0       	ldi	r20, 0x01	; 1
    4ed4:	0e 94 18 17 	call	0x2e30	; 0x2e30 <DIO_enuSetPinVal>
    4ed8:	89 83       	std	Y+1, r24	; 0x01
    4eda:	02 c0       	rjmp	.+4      	; 0x4ee0 <Seven_Segment_enuDisableCommon+0x13c>
		}
	}
	else
	{
		Local_enuErrorState = ES_OUT_OF_RANGE;
    4edc:	83 e0       	ldi	r24, 0x03	; 3
    4ede:	89 83       	std	Y+1, r24	; 0x01
	}
	
	return Local_enuErrorState;
    4ee0:	89 81       	ldd	r24, Y+1	; 0x01
}
    4ee2:	0f 90       	pop	r0
    4ee4:	0f 90       	pop	r0
    4ee6:	cf 91       	pop	r28
    4ee8:	df 91       	pop	r29
    4eea:	08 95       	ret

00004eec <Seven_Segment_enuEnableDot>:

ES_t Seven_Segment_enuEnableDot(u8 Copy_SEG_ID)
{
    4eec:	df 93       	push	r29
    4eee:	cf 93       	push	r28
    4ef0:	00 d0       	rcall	.+0      	; 0x4ef2 <Seven_Segment_enuEnableDot+0x6>
    4ef2:	cd b7       	in	r28, 0x3d	; 61
    4ef4:	de b7       	in	r29, 0x3e	; 62
    4ef6:	8a 83       	std	Y+2, r24	; 0x02
	ES_t Local_enuErrorState = ES_NOK;
    4ef8:	81 e0       	ldi	r24, 0x01	; 1
    4efa:	89 83       	std	Y+1, r24	; 0x01
	
	if(Copy_SEG_ID < SEG_NUM)
    4efc:	8a 81       	ldd	r24, Y+2	; 0x02
    4efe:	82 30       	cpi	r24, 0x02	; 2
    4f00:	08 f0       	brcs	.+2      	; 0x4f04 <Seven_Segment_enuEnableDot+0x18>
    4f02:	90 c0       	rjmp	.+288    	; 0x5024 <Seven_Segment_enuEnableDot+0x138>
	{
		if(SEV_SEG_AstrSEGConfig[Copy_SEG_ID].SEG_TYPE == COMMON_ANODE)
    4f04:	8a 81       	ldd	r24, Y+2	; 0x02
    4f06:	48 2f       	mov	r20, r24
    4f08:	50 e0       	ldi	r21, 0x00	; 0
    4f0a:	ca 01       	movw	r24, r20
    4f0c:	88 0f       	add	r24, r24
    4f0e:	99 1f       	adc	r25, r25
    4f10:	9c 01       	movw	r18, r24
    4f12:	22 0f       	add	r18, r18
    4f14:	33 1f       	adc	r19, r19
    4f16:	22 0f       	add	r18, r18
    4f18:	33 1f       	adc	r19, r19
    4f1a:	22 0f       	add	r18, r18
    4f1c:	33 1f       	adc	r19, r19
    4f1e:	82 0f       	add	r24, r18
    4f20:	93 1f       	adc	r25, r19
    4f22:	84 0f       	add	r24, r20
    4f24:	95 1f       	adc	r25, r21
    4f26:	fc 01       	movw	r30, r24
    4f28:	ea 56       	subi	r30, 0x6A	; 106
    4f2a:	fe 4f       	sbci	r31, 0xFE	; 254
    4f2c:	80 81       	ld	r24, Z
    4f2e:	85 30       	cpi	r24, 0x05	; 5
    4f30:	89 f5       	brne	.+98     	; 0x4f94 <Seven_Segment_enuEnableDot+0xa8>
		{
			Local_enuErrorState = DIO_enuSetPinVal(SEV_SEG_AstrSEGConfig[Copy_SEG_ID].SEG_DOT_PORT, SEV_SEG_AstrSEGConfig[Copy_SEG_ID].SEG_DOT_PIN, DIO_u8LOW);
    4f32:	8a 81       	ldd	r24, Y+2	; 0x02
    4f34:	48 2f       	mov	r20, r24
    4f36:	50 e0       	ldi	r21, 0x00	; 0
    4f38:	ca 01       	movw	r24, r20
    4f3a:	88 0f       	add	r24, r24
    4f3c:	99 1f       	adc	r25, r25
    4f3e:	9c 01       	movw	r18, r24
    4f40:	22 0f       	add	r18, r18
    4f42:	33 1f       	adc	r19, r19
    4f44:	22 0f       	add	r18, r18
    4f46:	33 1f       	adc	r19, r19
    4f48:	22 0f       	add	r18, r18
    4f4a:	33 1f       	adc	r19, r19
    4f4c:	82 0f       	add	r24, r18
    4f4e:	93 1f       	adc	r25, r19
    4f50:	84 0f       	add	r24, r20
    4f52:	95 1f       	adc	r25, r21
    4f54:	fc 01       	movw	r30, r24
    4f56:	ec 56       	subi	r30, 0x6C	; 108
    4f58:	fe 4f       	sbci	r31, 0xFE	; 254
    4f5a:	60 81       	ld	r22, Z
    4f5c:	8a 81       	ldd	r24, Y+2	; 0x02
    4f5e:	48 2f       	mov	r20, r24
    4f60:	50 e0       	ldi	r21, 0x00	; 0
    4f62:	ca 01       	movw	r24, r20
    4f64:	88 0f       	add	r24, r24
    4f66:	99 1f       	adc	r25, r25
    4f68:	9c 01       	movw	r18, r24
    4f6a:	22 0f       	add	r18, r18
    4f6c:	33 1f       	adc	r19, r19
    4f6e:	22 0f       	add	r18, r18
    4f70:	33 1f       	adc	r19, r19
    4f72:	22 0f       	add	r18, r18
    4f74:	33 1f       	adc	r19, r19
    4f76:	82 0f       	add	r24, r18
    4f78:	93 1f       	adc	r25, r19
    4f7a:	84 0f       	add	r24, r20
    4f7c:	95 1f       	adc	r25, r21
    4f7e:	fc 01       	movw	r30, r24
    4f80:	eb 56       	subi	r30, 0x6B	; 107
    4f82:	fe 4f       	sbci	r31, 0xFE	; 254
    4f84:	90 81       	ld	r25, Z
    4f86:	86 2f       	mov	r24, r22
    4f88:	69 2f       	mov	r22, r25
    4f8a:	40 e0       	ldi	r20, 0x00	; 0
    4f8c:	0e 94 18 17 	call	0x2e30	; 0x2e30 <DIO_enuSetPinVal>
    4f90:	89 83       	std	Y+1, r24	; 0x01
    4f92:	4a c0       	rjmp	.+148    	; 0x5028 <Seven_Segment_enuEnableDot+0x13c>
		}
		else if(SEV_SEG_AstrSEGConfig[Copy_SEG_ID].SEG_TYPE == COMMON_CATHODE)
    4f94:	8a 81       	ldd	r24, Y+2	; 0x02
    4f96:	48 2f       	mov	r20, r24
    4f98:	50 e0       	ldi	r21, 0x00	; 0
    4f9a:	ca 01       	movw	r24, r20
    4f9c:	88 0f       	add	r24, r24
    4f9e:	99 1f       	adc	r25, r25
    4fa0:	9c 01       	movw	r18, r24
    4fa2:	22 0f       	add	r18, r18
    4fa4:	33 1f       	adc	r19, r19
    4fa6:	22 0f       	add	r18, r18
    4fa8:	33 1f       	adc	r19, r19
    4faa:	22 0f       	add	r18, r18
    4fac:	33 1f       	adc	r19, r19
    4fae:	82 0f       	add	r24, r18
    4fb0:	93 1f       	adc	r25, r19
    4fb2:	84 0f       	add	r24, r20
    4fb4:	95 1f       	adc	r25, r21
    4fb6:	fc 01       	movw	r30, r24
    4fb8:	ea 56       	subi	r30, 0x6A	; 106
    4fba:	fe 4f       	sbci	r31, 0xFE	; 254
    4fbc:	80 81       	ld	r24, Z
    4fbe:	86 30       	cpi	r24, 0x06	; 6
    4fc0:	99 f5       	brne	.+102    	; 0x5028 <Seven_Segment_enuEnableDot+0x13c>
		{
			Local_enuErrorState = DIO_enuSetPinVal(SEV_SEG_AstrSEGConfig[Copy_SEG_ID].SEG_DOT_PORT, SEV_SEG_AstrSEGConfig[Copy_SEG_ID].SEG_DOT_PIN, DIO_u8HIGH);
    4fc2:	8a 81       	ldd	r24, Y+2	; 0x02
    4fc4:	48 2f       	mov	r20, r24
    4fc6:	50 e0       	ldi	r21, 0x00	; 0
    4fc8:	ca 01       	movw	r24, r20
    4fca:	88 0f       	add	r24, r24
    4fcc:	99 1f       	adc	r25, r25
    4fce:	9c 01       	movw	r18, r24
    4fd0:	22 0f       	add	r18, r18
    4fd2:	33 1f       	adc	r19, r19
    4fd4:	22 0f       	add	r18, r18
    4fd6:	33 1f       	adc	r19, r19
    4fd8:	22 0f       	add	r18, r18
    4fda:	33 1f       	adc	r19, r19
    4fdc:	82 0f       	add	r24, r18
    4fde:	93 1f       	adc	r25, r19
    4fe0:	84 0f       	add	r24, r20
    4fe2:	95 1f       	adc	r25, r21
    4fe4:	fc 01       	movw	r30, r24
    4fe6:	ec 56       	subi	r30, 0x6C	; 108
    4fe8:	fe 4f       	sbci	r31, 0xFE	; 254
    4fea:	60 81       	ld	r22, Z
    4fec:	8a 81       	ldd	r24, Y+2	; 0x02
    4fee:	48 2f       	mov	r20, r24
    4ff0:	50 e0       	ldi	r21, 0x00	; 0
    4ff2:	ca 01       	movw	r24, r20
    4ff4:	88 0f       	add	r24, r24
    4ff6:	99 1f       	adc	r25, r25
    4ff8:	9c 01       	movw	r18, r24
    4ffa:	22 0f       	add	r18, r18
    4ffc:	33 1f       	adc	r19, r19
    4ffe:	22 0f       	add	r18, r18
    5000:	33 1f       	adc	r19, r19
    5002:	22 0f       	add	r18, r18
    5004:	33 1f       	adc	r19, r19
    5006:	82 0f       	add	r24, r18
    5008:	93 1f       	adc	r25, r19
    500a:	84 0f       	add	r24, r20
    500c:	95 1f       	adc	r25, r21
    500e:	fc 01       	movw	r30, r24
    5010:	eb 56       	subi	r30, 0x6B	; 107
    5012:	fe 4f       	sbci	r31, 0xFE	; 254
    5014:	90 81       	ld	r25, Z
    5016:	86 2f       	mov	r24, r22
    5018:	69 2f       	mov	r22, r25
    501a:	41 e0       	ldi	r20, 0x01	; 1
    501c:	0e 94 18 17 	call	0x2e30	; 0x2e30 <DIO_enuSetPinVal>
    5020:	89 83       	std	Y+1, r24	; 0x01
    5022:	02 c0       	rjmp	.+4      	; 0x5028 <Seven_Segment_enuEnableDot+0x13c>
		}
	}
	else
	{
		Local_enuErrorState = ES_OUT_OF_RANGE;
    5024:	83 e0       	ldi	r24, 0x03	; 3
    5026:	89 83       	std	Y+1, r24	; 0x01
	}
	
	return Local_enuErrorState;
    5028:	89 81       	ldd	r24, Y+1	; 0x01
}
    502a:	0f 90       	pop	r0
    502c:	0f 90       	pop	r0
    502e:	cf 91       	pop	r28
    5030:	df 91       	pop	r29
    5032:	08 95       	ret

00005034 <Seven_Segment_enuDisableDot>:

ES_t Seven_Segment_enuDisableDot(u8 Copy_SEG_ID)
{
    5034:	df 93       	push	r29
    5036:	cf 93       	push	r28
    5038:	00 d0       	rcall	.+0      	; 0x503a <Seven_Segment_enuDisableDot+0x6>
    503a:	cd b7       	in	r28, 0x3d	; 61
    503c:	de b7       	in	r29, 0x3e	; 62
    503e:	8a 83       	std	Y+2, r24	; 0x02
	ES_t Local_enuErrorState = ES_NOK;
    5040:	81 e0       	ldi	r24, 0x01	; 1
    5042:	89 83       	std	Y+1, r24	; 0x01
	
	if(Copy_SEG_ID < SEG_NUM)
    5044:	8a 81       	ldd	r24, Y+2	; 0x02
    5046:	82 30       	cpi	r24, 0x02	; 2
    5048:	08 f0       	brcs	.+2      	; 0x504c <Seven_Segment_enuDisableDot+0x18>
    504a:	90 c0       	rjmp	.+288    	; 0x516c <Seven_Segment_enuDisableDot+0x138>
	{
		if(SEV_SEG_AstrSEGConfig[Copy_SEG_ID].SEG_TYPE == COMMON_ANODE)
    504c:	8a 81       	ldd	r24, Y+2	; 0x02
    504e:	48 2f       	mov	r20, r24
    5050:	50 e0       	ldi	r21, 0x00	; 0
    5052:	ca 01       	movw	r24, r20
    5054:	88 0f       	add	r24, r24
    5056:	99 1f       	adc	r25, r25
    5058:	9c 01       	movw	r18, r24
    505a:	22 0f       	add	r18, r18
    505c:	33 1f       	adc	r19, r19
    505e:	22 0f       	add	r18, r18
    5060:	33 1f       	adc	r19, r19
    5062:	22 0f       	add	r18, r18
    5064:	33 1f       	adc	r19, r19
    5066:	82 0f       	add	r24, r18
    5068:	93 1f       	adc	r25, r19
    506a:	84 0f       	add	r24, r20
    506c:	95 1f       	adc	r25, r21
    506e:	fc 01       	movw	r30, r24
    5070:	ea 56       	subi	r30, 0x6A	; 106
    5072:	fe 4f       	sbci	r31, 0xFE	; 254
    5074:	80 81       	ld	r24, Z
    5076:	85 30       	cpi	r24, 0x05	; 5
    5078:	89 f5       	brne	.+98     	; 0x50dc <Seven_Segment_enuDisableDot+0xa8>
		{
			Local_enuErrorState = DIO_enuSetPinVal(SEV_SEG_AstrSEGConfig[Copy_SEG_ID].SEG_DOT_PORT, SEV_SEG_AstrSEGConfig[Copy_SEG_ID].SEG_DOT_PIN, DIO_u8HIGH);
    507a:	8a 81       	ldd	r24, Y+2	; 0x02
    507c:	48 2f       	mov	r20, r24
    507e:	50 e0       	ldi	r21, 0x00	; 0
    5080:	ca 01       	movw	r24, r20
    5082:	88 0f       	add	r24, r24
    5084:	99 1f       	adc	r25, r25
    5086:	9c 01       	movw	r18, r24
    5088:	22 0f       	add	r18, r18
    508a:	33 1f       	adc	r19, r19
    508c:	22 0f       	add	r18, r18
    508e:	33 1f       	adc	r19, r19
    5090:	22 0f       	add	r18, r18
    5092:	33 1f       	adc	r19, r19
    5094:	82 0f       	add	r24, r18
    5096:	93 1f       	adc	r25, r19
    5098:	84 0f       	add	r24, r20
    509a:	95 1f       	adc	r25, r21
    509c:	fc 01       	movw	r30, r24
    509e:	ec 56       	subi	r30, 0x6C	; 108
    50a0:	fe 4f       	sbci	r31, 0xFE	; 254
    50a2:	60 81       	ld	r22, Z
    50a4:	8a 81       	ldd	r24, Y+2	; 0x02
    50a6:	48 2f       	mov	r20, r24
    50a8:	50 e0       	ldi	r21, 0x00	; 0
    50aa:	ca 01       	movw	r24, r20
    50ac:	88 0f       	add	r24, r24
    50ae:	99 1f       	adc	r25, r25
    50b0:	9c 01       	movw	r18, r24
    50b2:	22 0f       	add	r18, r18
    50b4:	33 1f       	adc	r19, r19
    50b6:	22 0f       	add	r18, r18
    50b8:	33 1f       	adc	r19, r19
    50ba:	22 0f       	add	r18, r18
    50bc:	33 1f       	adc	r19, r19
    50be:	82 0f       	add	r24, r18
    50c0:	93 1f       	adc	r25, r19
    50c2:	84 0f       	add	r24, r20
    50c4:	95 1f       	adc	r25, r21
    50c6:	fc 01       	movw	r30, r24
    50c8:	eb 56       	subi	r30, 0x6B	; 107
    50ca:	fe 4f       	sbci	r31, 0xFE	; 254
    50cc:	90 81       	ld	r25, Z
    50ce:	86 2f       	mov	r24, r22
    50d0:	69 2f       	mov	r22, r25
    50d2:	41 e0       	ldi	r20, 0x01	; 1
    50d4:	0e 94 18 17 	call	0x2e30	; 0x2e30 <DIO_enuSetPinVal>
    50d8:	89 83       	std	Y+1, r24	; 0x01
    50da:	4a c0       	rjmp	.+148    	; 0x5170 <Seven_Segment_enuDisableDot+0x13c>
		}
		else if(SEV_SEG_AstrSEGConfig[Copy_SEG_ID].SEG_TYPE == COMMON_CATHODE)
    50dc:	8a 81       	ldd	r24, Y+2	; 0x02
    50de:	48 2f       	mov	r20, r24
    50e0:	50 e0       	ldi	r21, 0x00	; 0
    50e2:	ca 01       	movw	r24, r20
    50e4:	88 0f       	add	r24, r24
    50e6:	99 1f       	adc	r25, r25
    50e8:	9c 01       	movw	r18, r24
    50ea:	22 0f       	add	r18, r18
    50ec:	33 1f       	adc	r19, r19
    50ee:	22 0f       	add	r18, r18
    50f0:	33 1f       	adc	r19, r19
    50f2:	22 0f       	add	r18, r18
    50f4:	33 1f       	adc	r19, r19
    50f6:	82 0f       	add	r24, r18
    50f8:	93 1f       	adc	r25, r19
    50fa:	84 0f       	add	r24, r20
    50fc:	95 1f       	adc	r25, r21
    50fe:	fc 01       	movw	r30, r24
    5100:	ea 56       	subi	r30, 0x6A	; 106
    5102:	fe 4f       	sbci	r31, 0xFE	; 254
    5104:	80 81       	ld	r24, Z
    5106:	86 30       	cpi	r24, 0x06	; 6
    5108:	99 f5       	brne	.+102    	; 0x5170 <Seven_Segment_enuDisableDot+0x13c>
		{
			Local_enuErrorState = DIO_enuSetPinVal(SEV_SEG_AstrSEGConfig[Copy_SEG_ID].SEG_DOT_PORT, SEV_SEG_AstrSEGConfig[Copy_SEG_ID].SEG_DOT_PIN, DIO_u8LOW);
    510a:	8a 81       	ldd	r24, Y+2	; 0x02
    510c:	48 2f       	mov	r20, r24
    510e:	50 e0       	ldi	r21, 0x00	; 0
    5110:	ca 01       	movw	r24, r20
    5112:	88 0f       	add	r24, r24
    5114:	99 1f       	adc	r25, r25
    5116:	9c 01       	movw	r18, r24
    5118:	22 0f       	add	r18, r18
    511a:	33 1f       	adc	r19, r19
    511c:	22 0f       	add	r18, r18
    511e:	33 1f       	adc	r19, r19
    5120:	22 0f       	add	r18, r18
    5122:	33 1f       	adc	r19, r19
    5124:	82 0f       	add	r24, r18
    5126:	93 1f       	adc	r25, r19
    5128:	84 0f       	add	r24, r20
    512a:	95 1f       	adc	r25, r21
    512c:	fc 01       	movw	r30, r24
    512e:	ec 56       	subi	r30, 0x6C	; 108
    5130:	fe 4f       	sbci	r31, 0xFE	; 254
    5132:	60 81       	ld	r22, Z
    5134:	8a 81       	ldd	r24, Y+2	; 0x02
    5136:	48 2f       	mov	r20, r24
    5138:	50 e0       	ldi	r21, 0x00	; 0
    513a:	ca 01       	movw	r24, r20
    513c:	88 0f       	add	r24, r24
    513e:	99 1f       	adc	r25, r25
    5140:	9c 01       	movw	r18, r24
    5142:	22 0f       	add	r18, r18
    5144:	33 1f       	adc	r19, r19
    5146:	22 0f       	add	r18, r18
    5148:	33 1f       	adc	r19, r19
    514a:	22 0f       	add	r18, r18
    514c:	33 1f       	adc	r19, r19
    514e:	82 0f       	add	r24, r18
    5150:	93 1f       	adc	r25, r19
    5152:	84 0f       	add	r24, r20
    5154:	95 1f       	adc	r25, r21
    5156:	fc 01       	movw	r30, r24
    5158:	eb 56       	subi	r30, 0x6B	; 107
    515a:	fe 4f       	sbci	r31, 0xFE	; 254
    515c:	90 81       	ld	r25, Z
    515e:	86 2f       	mov	r24, r22
    5160:	69 2f       	mov	r22, r25
    5162:	40 e0       	ldi	r20, 0x00	; 0
    5164:	0e 94 18 17 	call	0x2e30	; 0x2e30 <DIO_enuSetPinVal>
    5168:	89 83       	std	Y+1, r24	; 0x01
    516a:	02 c0       	rjmp	.+4      	; 0x5170 <Seven_Segment_enuDisableDot+0x13c>
		}
	}
	else
	{
		Local_enuErrorState = ES_OUT_OF_RANGE;
    516c:	83 e0       	ldi	r24, 0x03	; 3
    516e:	89 83       	std	Y+1, r24	; 0x01
	}
		
	return Local_enuErrorState;
    5170:	89 81       	ldd	r24, Y+1	; 0x01
}
    5172:	0f 90       	pop	r0
    5174:	0f 90       	pop	r0
    5176:	cf 91       	pop	r28
    5178:	df 91       	pop	r29
    517a:	08 95       	ret

0000517c <Seven_Sement_enuTurnOFF>:

ES_t Seven_Sement_enuTurnOFF(u8 Copy_SEG_ID)
{
    517c:	df 93       	push	r29
    517e:	cf 93       	push	r28
    5180:	cd b7       	in	r28, 0x3d	; 61
    5182:	de b7       	in	r29, 0x3e	; 62
    5184:	28 97       	sbiw	r28, 0x08	; 8
    5186:	0f b6       	in	r0, 0x3f	; 63
    5188:	f8 94       	cli
    518a:	de bf       	out	0x3e, r29	; 62
    518c:	0f be       	out	0x3f, r0	; 63
    518e:	cd bf       	out	0x3d, r28	; 61
    5190:	8f 83       	std	Y+7, r24	; 0x07
	ES_t Local_enuErrorState = ES_NOK;
    5192:	81 e0       	ldi	r24, 0x01	; 1
    5194:	8e 83       	std	Y+6, r24	; 0x06
	
	u8 Local_u8Iterator_Error = 0;
    5196:	1d 82       	std	Y+5, r1	; 0x05
	u32 Local_u32CheckError = 0;
    5198:	19 82       	std	Y+1, r1	; 0x01
    519a:	1a 82       	std	Y+2, r1	; 0x02
    519c:	1b 82       	std	Y+3, r1	; 0x03
    519e:	1c 82       	std	Y+4, r1	; 0x04
	
	if(Copy_SEG_ID < SEG_NUM)
    51a0:	8f 81       	ldd	r24, Y+7	; 0x07
    51a2:	82 30       	cpi	r24, 0x02	; 2
    51a4:	08 f0       	brcs	.+2      	; 0x51a8 <Seven_Sement_enuTurnOFF+0x2c>
    51a6:	9f c5       	rjmp	.+2878   	; 0x5ce6 <Seven_Sement_enuTurnOFF+0xb6a>
	{
		if(SEV_SEG_AstrSEGConfig[Copy_SEG_ID].SEG_TYPE == COMMON_ANODE)
    51a8:	8f 81       	ldd	r24, Y+7	; 0x07
    51aa:	48 2f       	mov	r20, r24
    51ac:	50 e0       	ldi	r21, 0x00	; 0
    51ae:	ca 01       	movw	r24, r20
    51b0:	88 0f       	add	r24, r24
    51b2:	99 1f       	adc	r25, r25
    51b4:	9c 01       	movw	r18, r24
    51b6:	22 0f       	add	r18, r18
    51b8:	33 1f       	adc	r19, r19
    51ba:	22 0f       	add	r18, r18
    51bc:	33 1f       	adc	r19, r19
    51be:	22 0f       	add	r18, r18
    51c0:	33 1f       	adc	r19, r19
    51c2:	82 0f       	add	r24, r18
    51c4:	93 1f       	adc	r25, r19
    51c6:	84 0f       	add	r24, r20
    51c8:	95 1f       	adc	r25, r21
    51ca:	fc 01       	movw	r30, r24
    51cc:	ea 56       	subi	r30, 0x6A	; 106
    51ce:	fe 4f       	sbci	r31, 0xFE	; 254
    51d0:	80 81       	ld	r24, Z
    51d2:	85 30       	cpi	r24, 0x05	; 5
    51d4:	09 f0       	breq	.+2      	; 0x51d8 <Seven_Sement_enuTurnOFF+0x5c>
    51d6:	a6 c2       	rjmp	.+1356   	; 0x5724 <Seven_Sement_enuTurnOFF+0x5a8>
		{
			Local_u32CheckError |= (DIO_enuSetPinVal(SEV_SEG_AstrSEGConfig[Copy_SEG_ID].SEG_APORT, SEV_SEG_AstrSEGConfig[Copy_SEG_ID].SEG_APIN, DIO_u8HIGH) << Local_u8Iterator_Error);
    51d8:	8f 81       	ldd	r24, Y+7	; 0x07
    51da:	48 2f       	mov	r20, r24
    51dc:	50 e0       	ldi	r21, 0x00	; 0
    51de:	ca 01       	movw	r24, r20
    51e0:	88 0f       	add	r24, r24
    51e2:	99 1f       	adc	r25, r25
    51e4:	9c 01       	movw	r18, r24
    51e6:	22 0f       	add	r18, r18
    51e8:	33 1f       	adc	r19, r19
    51ea:	22 0f       	add	r18, r18
    51ec:	33 1f       	adc	r19, r19
    51ee:	22 0f       	add	r18, r18
    51f0:	33 1f       	adc	r19, r19
    51f2:	82 0f       	add	r24, r18
    51f4:	93 1f       	adc	r25, r19
    51f6:	84 0f       	add	r24, r20
    51f8:	95 1f       	adc	r25, r21
    51fa:	fc 01       	movw	r30, r24
    51fc:	ec 57       	subi	r30, 0x7C	; 124
    51fe:	fe 4f       	sbci	r31, 0xFE	; 254
    5200:	60 81       	ld	r22, Z
    5202:	8f 81       	ldd	r24, Y+7	; 0x07
    5204:	48 2f       	mov	r20, r24
    5206:	50 e0       	ldi	r21, 0x00	; 0
    5208:	ca 01       	movw	r24, r20
    520a:	88 0f       	add	r24, r24
    520c:	99 1f       	adc	r25, r25
    520e:	9c 01       	movw	r18, r24
    5210:	22 0f       	add	r18, r18
    5212:	33 1f       	adc	r19, r19
    5214:	22 0f       	add	r18, r18
    5216:	33 1f       	adc	r19, r19
    5218:	22 0f       	add	r18, r18
    521a:	33 1f       	adc	r19, r19
    521c:	82 0f       	add	r24, r18
    521e:	93 1f       	adc	r25, r19
    5220:	84 0f       	add	r24, r20
    5222:	95 1f       	adc	r25, r21
    5224:	fc 01       	movw	r30, r24
    5226:	eb 57       	subi	r30, 0x7B	; 123
    5228:	fe 4f       	sbci	r31, 0xFE	; 254
    522a:	90 81       	ld	r25, Z
    522c:	86 2f       	mov	r24, r22
    522e:	69 2f       	mov	r22, r25
    5230:	41 e0       	ldi	r20, 0x01	; 1
    5232:	0e 94 18 17 	call	0x2e30	; 0x2e30 <DIO_enuSetPinVal>
    5236:	28 2f       	mov	r18, r24
    5238:	30 e0       	ldi	r19, 0x00	; 0
    523a:	8d 81       	ldd	r24, Y+5	; 0x05
    523c:	88 2f       	mov	r24, r24
    523e:	90 e0       	ldi	r25, 0x00	; 0
    5240:	a9 01       	movw	r20, r18
    5242:	02 c0       	rjmp	.+4      	; 0x5248 <Seven_Sement_enuTurnOFF+0xcc>
    5244:	44 0f       	add	r20, r20
    5246:	55 1f       	adc	r21, r21
    5248:	8a 95       	dec	r24
    524a:	e2 f7       	brpl	.-8      	; 0x5244 <Seven_Sement_enuTurnOFF+0xc8>
    524c:	ca 01       	movw	r24, r20
    524e:	9c 01       	movw	r18, r24
    5250:	44 27       	eor	r20, r20
    5252:	37 fd       	sbrc	r19, 7
    5254:	40 95       	com	r20
    5256:	54 2f       	mov	r21, r20
    5258:	89 81       	ldd	r24, Y+1	; 0x01
    525a:	9a 81       	ldd	r25, Y+2	; 0x02
    525c:	ab 81       	ldd	r26, Y+3	; 0x03
    525e:	bc 81       	ldd	r27, Y+4	; 0x04
    5260:	82 2b       	or	r24, r18
    5262:	93 2b       	or	r25, r19
    5264:	a4 2b       	or	r26, r20
    5266:	b5 2b       	or	r27, r21
    5268:	89 83       	std	Y+1, r24	; 0x01
    526a:	9a 83       	std	Y+2, r25	; 0x02
    526c:	ab 83       	std	Y+3, r26	; 0x03
    526e:	bc 83       	std	Y+4, r27	; 0x04
			Local_u32CheckError |= (DIO_enuSetPinVal(SEV_SEG_AstrSEGConfig[Copy_SEG_ID].SEG_BPORT, SEV_SEG_AstrSEGConfig[Copy_SEG_ID].SEG_BPIN, DIO_u8HIGH) << (Local_u8Iterator_Error += ERROR_STATE_SIZE));
    5270:	8f 81       	ldd	r24, Y+7	; 0x07
    5272:	48 2f       	mov	r20, r24
    5274:	50 e0       	ldi	r21, 0x00	; 0
    5276:	ca 01       	movw	r24, r20
    5278:	88 0f       	add	r24, r24
    527a:	99 1f       	adc	r25, r25
    527c:	9c 01       	movw	r18, r24
    527e:	22 0f       	add	r18, r18
    5280:	33 1f       	adc	r19, r19
    5282:	22 0f       	add	r18, r18
    5284:	33 1f       	adc	r19, r19
    5286:	22 0f       	add	r18, r18
    5288:	33 1f       	adc	r19, r19
    528a:	82 0f       	add	r24, r18
    528c:	93 1f       	adc	r25, r19
    528e:	84 0f       	add	r24, r20
    5290:	95 1f       	adc	r25, r21
    5292:	fc 01       	movw	r30, r24
    5294:	ea 57       	subi	r30, 0x7A	; 122
    5296:	fe 4f       	sbci	r31, 0xFE	; 254
    5298:	60 81       	ld	r22, Z
    529a:	8f 81       	ldd	r24, Y+7	; 0x07
    529c:	48 2f       	mov	r20, r24
    529e:	50 e0       	ldi	r21, 0x00	; 0
    52a0:	ca 01       	movw	r24, r20
    52a2:	88 0f       	add	r24, r24
    52a4:	99 1f       	adc	r25, r25
    52a6:	9c 01       	movw	r18, r24
    52a8:	22 0f       	add	r18, r18
    52aa:	33 1f       	adc	r19, r19
    52ac:	22 0f       	add	r18, r18
    52ae:	33 1f       	adc	r19, r19
    52b0:	22 0f       	add	r18, r18
    52b2:	33 1f       	adc	r19, r19
    52b4:	82 0f       	add	r24, r18
    52b6:	93 1f       	adc	r25, r19
    52b8:	84 0f       	add	r24, r20
    52ba:	95 1f       	adc	r25, r21
    52bc:	fc 01       	movw	r30, r24
    52be:	e9 57       	subi	r30, 0x79	; 121
    52c0:	fe 4f       	sbci	r31, 0xFE	; 254
    52c2:	90 81       	ld	r25, Z
    52c4:	86 2f       	mov	r24, r22
    52c6:	69 2f       	mov	r22, r25
    52c8:	41 e0       	ldi	r20, 0x01	; 1
    52ca:	0e 94 18 17 	call	0x2e30	; 0x2e30 <DIO_enuSetPinVal>
    52ce:	28 2f       	mov	r18, r24
    52d0:	30 e0       	ldi	r19, 0x00	; 0
    52d2:	8d 81       	ldd	r24, Y+5	; 0x05
    52d4:	8d 5f       	subi	r24, 0xFD	; 253
    52d6:	8d 83       	std	Y+5, r24	; 0x05
    52d8:	8d 81       	ldd	r24, Y+5	; 0x05
    52da:	88 2f       	mov	r24, r24
    52dc:	90 e0       	ldi	r25, 0x00	; 0
    52de:	a9 01       	movw	r20, r18
    52e0:	02 c0       	rjmp	.+4      	; 0x52e6 <Seven_Sement_enuTurnOFF+0x16a>
    52e2:	44 0f       	add	r20, r20
    52e4:	55 1f       	adc	r21, r21
    52e6:	8a 95       	dec	r24
    52e8:	e2 f7       	brpl	.-8      	; 0x52e2 <Seven_Sement_enuTurnOFF+0x166>
    52ea:	ca 01       	movw	r24, r20
    52ec:	9c 01       	movw	r18, r24
    52ee:	44 27       	eor	r20, r20
    52f0:	37 fd       	sbrc	r19, 7
    52f2:	40 95       	com	r20
    52f4:	54 2f       	mov	r21, r20
    52f6:	89 81       	ldd	r24, Y+1	; 0x01
    52f8:	9a 81       	ldd	r25, Y+2	; 0x02
    52fa:	ab 81       	ldd	r26, Y+3	; 0x03
    52fc:	bc 81       	ldd	r27, Y+4	; 0x04
    52fe:	82 2b       	or	r24, r18
    5300:	93 2b       	or	r25, r19
    5302:	a4 2b       	or	r26, r20
    5304:	b5 2b       	or	r27, r21
    5306:	89 83       	std	Y+1, r24	; 0x01
    5308:	9a 83       	std	Y+2, r25	; 0x02
    530a:	ab 83       	std	Y+3, r26	; 0x03
    530c:	bc 83       	std	Y+4, r27	; 0x04
			Local_u32CheckError |= (DIO_enuSetPinVal(SEV_SEG_AstrSEGConfig[Copy_SEG_ID].SEG_CPORT, SEV_SEG_AstrSEGConfig[Copy_SEG_ID].SEG_CPIN, DIO_u8HIGH) << (Local_u8Iterator_Error += ERROR_STATE_SIZE));
    530e:	8f 81       	ldd	r24, Y+7	; 0x07
    5310:	48 2f       	mov	r20, r24
    5312:	50 e0       	ldi	r21, 0x00	; 0
    5314:	ca 01       	movw	r24, r20
    5316:	88 0f       	add	r24, r24
    5318:	99 1f       	adc	r25, r25
    531a:	9c 01       	movw	r18, r24
    531c:	22 0f       	add	r18, r18
    531e:	33 1f       	adc	r19, r19
    5320:	22 0f       	add	r18, r18
    5322:	33 1f       	adc	r19, r19
    5324:	22 0f       	add	r18, r18
    5326:	33 1f       	adc	r19, r19
    5328:	82 0f       	add	r24, r18
    532a:	93 1f       	adc	r25, r19
    532c:	84 0f       	add	r24, r20
    532e:	95 1f       	adc	r25, r21
    5330:	fc 01       	movw	r30, r24
    5332:	e8 57       	subi	r30, 0x78	; 120
    5334:	fe 4f       	sbci	r31, 0xFE	; 254
    5336:	60 81       	ld	r22, Z
    5338:	8f 81       	ldd	r24, Y+7	; 0x07
    533a:	48 2f       	mov	r20, r24
    533c:	50 e0       	ldi	r21, 0x00	; 0
    533e:	ca 01       	movw	r24, r20
    5340:	88 0f       	add	r24, r24
    5342:	99 1f       	adc	r25, r25
    5344:	9c 01       	movw	r18, r24
    5346:	22 0f       	add	r18, r18
    5348:	33 1f       	adc	r19, r19
    534a:	22 0f       	add	r18, r18
    534c:	33 1f       	adc	r19, r19
    534e:	22 0f       	add	r18, r18
    5350:	33 1f       	adc	r19, r19
    5352:	82 0f       	add	r24, r18
    5354:	93 1f       	adc	r25, r19
    5356:	84 0f       	add	r24, r20
    5358:	95 1f       	adc	r25, r21
    535a:	fc 01       	movw	r30, r24
    535c:	e7 57       	subi	r30, 0x77	; 119
    535e:	fe 4f       	sbci	r31, 0xFE	; 254
    5360:	90 81       	ld	r25, Z
    5362:	86 2f       	mov	r24, r22
    5364:	69 2f       	mov	r22, r25
    5366:	41 e0       	ldi	r20, 0x01	; 1
    5368:	0e 94 18 17 	call	0x2e30	; 0x2e30 <DIO_enuSetPinVal>
    536c:	28 2f       	mov	r18, r24
    536e:	30 e0       	ldi	r19, 0x00	; 0
    5370:	8d 81       	ldd	r24, Y+5	; 0x05
    5372:	8d 5f       	subi	r24, 0xFD	; 253
    5374:	8d 83       	std	Y+5, r24	; 0x05
    5376:	8d 81       	ldd	r24, Y+5	; 0x05
    5378:	88 2f       	mov	r24, r24
    537a:	90 e0       	ldi	r25, 0x00	; 0
    537c:	a9 01       	movw	r20, r18
    537e:	02 c0       	rjmp	.+4      	; 0x5384 <Seven_Sement_enuTurnOFF+0x208>
    5380:	44 0f       	add	r20, r20
    5382:	55 1f       	adc	r21, r21
    5384:	8a 95       	dec	r24
    5386:	e2 f7       	brpl	.-8      	; 0x5380 <Seven_Sement_enuTurnOFF+0x204>
    5388:	ca 01       	movw	r24, r20
    538a:	9c 01       	movw	r18, r24
    538c:	44 27       	eor	r20, r20
    538e:	37 fd       	sbrc	r19, 7
    5390:	40 95       	com	r20
    5392:	54 2f       	mov	r21, r20
    5394:	89 81       	ldd	r24, Y+1	; 0x01
    5396:	9a 81       	ldd	r25, Y+2	; 0x02
    5398:	ab 81       	ldd	r26, Y+3	; 0x03
    539a:	bc 81       	ldd	r27, Y+4	; 0x04
    539c:	82 2b       	or	r24, r18
    539e:	93 2b       	or	r25, r19
    53a0:	a4 2b       	or	r26, r20
    53a2:	b5 2b       	or	r27, r21
    53a4:	89 83       	std	Y+1, r24	; 0x01
    53a6:	9a 83       	std	Y+2, r25	; 0x02
    53a8:	ab 83       	std	Y+3, r26	; 0x03
    53aa:	bc 83       	std	Y+4, r27	; 0x04
			Local_u32CheckError |= (DIO_enuSetPinVal(SEV_SEG_AstrSEGConfig[Copy_SEG_ID].SEG_DPORT, SEV_SEG_AstrSEGConfig[Copy_SEG_ID].SEG_DPIN, DIO_u8HIGH) << (Local_u8Iterator_Error += ERROR_STATE_SIZE));
    53ac:	8f 81       	ldd	r24, Y+7	; 0x07
    53ae:	48 2f       	mov	r20, r24
    53b0:	50 e0       	ldi	r21, 0x00	; 0
    53b2:	ca 01       	movw	r24, r20
    53b4:	88 0f       	add	r24, r24
    53b6:	99 1f       	adc	r25, r25
    53b8:	9c 01       	movw	r18, r24
    53ba:	22 0f       	add	r18, r18
    53bc:	33 1f       	adc	r19, r19
    53be:	22 0f       	add	r18, r18
    53c0:	33 1f       	adc	r19, r19
    53c2:	22 0f       	add	r18, r18
    53c4:	33 1f       	adc	r19, r19
    53c6:	82 0f       	add	r24, r18
    53c8:	93 1f       	adc	r25, r19
    53ca:	84 0f       	add	r24, r20
    53cc:	95 1f       	adc	r25, r21
    53ce:	fc 01       	movw	r30, r24
    53d0:	e6 57       	subi	r30, 0x76	; 118
    53d2:	fe 4f       	sbci	r31, 0xFE	; 254
    53d4:	60 81       	ld	r22, Z
    53d6:	8f 81       	ldd	r24, Y+7	; 0x07
    53d8:	48 2f       	mov	r20, r24
    53da:	50 e0       	ldi	r21, 0x00	; 0
    53dc:	ca 01       	movw	r24, r20
    53de:	88 0f       	add	r24, r24
    53e0:	99 1f       	adc	r25, r25
    53e2:	9c 01       	movw	r18, r24
    53e4:	22 0f       	add	r18, r18
    53e6:	33 1f       	adc	r19, r19
    53e8:	22 0f       	add	r18, r18
    53ea:	33 1f       	adc	r19, r19
    53ec:	22 0f       	add	r18, r18
    53ee:	33 1f       	adc	r19, r19
    53f0:	82 0f       	add	r24, r18
    53f2:	93 1f       	adc	r25, r19
    53f4:	84 0f       	add	r24, r20
    53f6:	95 1f       	adc	r25, r21
    53f8:	fc 01       	movw	r30, r24
    53fa:	e5 57       	subi	r30, 0x75	; 117
    53fc:	fe 4f       	sbci	r31, 0xFE	; 254
    53fe:	90 81       	ld	r25, Z
    5400:	86 2f       	mov	r24, r22
    5402:	69 2f       	mov	r22, r25
    5404:	41 e0       	ldi	r20, 0x01	; 1
    5406:	0e 94 18 17 	call	0x2e30	; 0x2e30 <DIO_enuSetPinVal>
    540a:	28 2f       	mov	r18, r24
    540c:	30 e0       	ldi	r19, 0x00	; 0
    540e:	8d 81       	ldd	r24, Y+5	; 0x05
    5410:	8d 5f       	subi	r24, 0xFD	; 253
    5412:	8d 83       	std	Y+5, r24	; 0x05
    5414:	8d 81       	ldd	r24, Y+5	; 0x05
    5416:	88 2f       	mov	r24, r24
    5418:	90 e0       	ldi	r25, 0x00	; 0
    541a:	a9 01       	movw	r20, r18
    541c:	02 c0       	rjmp	.+4      	; 0x5422 <Seven_Sement_enuTurnOFF+0x2a6>
    541e:	44 0f       	add	r20, r20
    5420:	55 1f       	adc	r21, r21
    5422:	8a 95       	dec	r24
    5424:	e2 f7       	brpl	.-8      	; 0x541e <Seven_Sement_enuTurnOFF+0x2a2>
    5426:	ca 01       	movw	r24, r20
    5428:	9c 01       	movw	r18, r24
    542a:	44 27       	eor	r20, r20
    542c:	37 fd       	sbrc	r19, 7
    542e:	40 95       	com	r20
    5430:	54 2f       	mov	r21, r20
    5432:	89 81       	ldd	r24, Y+1	; 0x01
    5434:	9a 81       	ldd	r25, Y+2	; 0x02
    5436:	ab 81       	ldd	r26, Y+3	; 0x03
    5438:	bc 81       	ldd	r27, Y+4	; 0x04
    543a:	82 2b       	or	r24, r18
    543c:	93 2b       	or	r25, r19
    543e:	a4 2b       	or	r26, r20
    5440:	b5 2b       	or	r27, r21
    5442:	89 83       	std	Y+1, r24	; 0x01
    5444:	9a 83       	std	Y+2, r25	; 0x02
    5446:	ab 83       	std	Y+3, r26	; 0x03
    5448:	bc 83       	std	Y+4, r27	; 0x04
			Local_u32CheckError |= (DIO_enuSetPinVal(SEV_SEG_AstrSEGConfig[Copy_SEG_ID].SEG_EPORT, SEV_SEG_AstrSEGConfig[Copy_SEG_ID].SEG_EPIN, DIO_u8HIGH) << (Local_u8Iterator_Error += ERROR_STATE_SIZE));
    544a:	8f 81       	ldd	r24, Y+7	; 0x07
    544c:	48 2f       	mov	r20, r24
    544e:	50 e0       	ldi	r21, 0x00	; 0
    5450:	ca 01       	movw	r24, r20
    5452:	88 0f       	add	r24, r24
    5454:	99 1f       	adc	r25, r25
    5456:	9c 01       	movw	r18, r24
    5458:	22 0f       	add	r18, r18
    545a:	33 1f       	adc	r19, r19
    545c:	22 0f       	add	r18, r18
    545e:	33 1f       	adc	r19, r19
    5460:	22 0f       	add	r18, r18
    5462:	33 1f       	adc	r19, r19
    5464:	82 0f       	add	r24, r18
    5466:	93 1f       	adc	r25, r19
    5468:	84 0f       	add	r24, r20
    546a:	95 1f       	adc	r25, r21
    546c:	fc 01       	movw	r30, r24
    546e:	e4 57       	subi	r30, 0x74	; 116
    5470:	fe 4f       	sbci	r31, 0xFE	; 254
    5472:	60 81       	ld	r22, Z
    5474:	8f 81       	ldd	r24, Y+7	; 0x07
    5476:	48 2f       	mov	r20, r24
    5478:	50 e0       	ldi	r21, 0x00	; 0
    547a:	ca 01       	movw	r24, r20
    547c:	88 0f       	add	r24, r24
    547e:	99 1f       	adc	r25, r25
    5480:	9c 01       	movw	r18, r24
    5482:	22 0f       	add	r18, r18
    5484:	33 1f       	adc	r19, r19
    5486:	22 0f       	add	r18, r18
    5488:	33 1f       	adc	r19, r19
    548a:	22 0f       	add	r18, r18
    548c:	33 1f       	adc	r19, r19
    548e:	82 0f       	add	r24, r18
    5490:	93 1f       	adc	r25, r19
    5492:	84 0f       	add	r24, r20
    5494:	95 1f       	adc	r25, r21
    5496:	fc 01       	movw	r30, r24
    5498:	e3 57       	subi	r30, 0x73	; 115
    549a:	fe 4f       	sbci	r31, 0xFE	; 254
    549c:	90 81       	ld	r25, Z
    549e:	86 2f       	mov	r24, r22
    54a0:	69 2f       	mov	r22, r25
    54a2:	41 e0       	ldi	r20, 0x01	; 1
    54a4:	0e 94 18 17 	call	0x2e30	; 0x2e30 <DIO_enuSetPinVal>
    54a8:	28 2f       	mov	r18, r24
    54aa:	30 e0       	ldi	r19, 0x00	; 0
    54ac:	8d 81       	ldd	r24, Y+5	; 0x05
    54ae:	8d 5f       	subi	r24, 0xFD	; 253
    54b0:	8d 83       	std	Y+5, r24	; 0x05
    54b2:	8d 81       	ldd	r24, Y+5	; 0x05
    54b4:	88 2f       	mov	r24, r24
    54b6:	90 e0       	ldi	r25, 0x00	; 0
    54b8:	a9 01       	movw	r20, r18
    54ba:	02 c0       	rjmp	.+4      	; 0x54c0 <Seven_Sement_enuTurnOFF+0x344>
    54bc:	44 0f       	add	r20, r20
    54be:	55 1f       	adc	r21, r21
    54c0:	8a 95       	dec	r24
    54c2:	e2 f7       	brpl	.-8      	; 0x54bc <Seven_Sement_enuTurnOFF+0x340>
    54c4:	ca 01       	movw	r24, r20
    54c6:	9c 01       	movw	r18, r24
    54c8:	44 27       	eor	r20, r20
    54ca:	37 fd       	sbrc	r19, 7
    54cc:	40 95       	com	r20
    54ce:	54 2f       	mov	r21, r20
    54d0:	89 81       	ldd	r24, Y+1	; 0x01
    54d2:	9a 81       	ldd	r25, Y+2	; 0x02
    54d4:	ab 81       	ldd	r26, Y+3	; 0x03
    54d6:	bc 81       	ldd	r27, Y+4	; 0x04
    54d8:	82 2b       	or	r24, r18
    54da:	93 2b       	or	r25, r19
    54dc:	a4 2b       	or	r26, r20
    54de:	b5 2b       	or	r27, r21
    54e0:	89 83       	std	Y+1, r24	; 0x01
    54e2:	9a 83       	std	Y+2, r25	; 0x02
    54e4:	ab 83       	std	Y+3, r26	; 0x03
    54e6:	bc 83       	std	Y+4, r27	; 0x04
			Local_u32CheckError |= (DIO_enuSetPinVal(SEV_SEG_AstrSEGConfig[Copy_SEG_ID].SEG_FPORT, SEV_SEG_AstrSEGConfig[Copy_SEG_ID].SEG_FPIN, DIO_u8HIGH) << (Local_u8Iterator_Error += ERROR_STATE_SIZE));
    54e8:	8f 81       	ldd	r24, Y+7	; 0x07
    54ea:	48 2f       	mov	r20, r24
    54ec:	50 e0       	ldi	r21, 0x00	; 0
    54ee:	ca 01       	movw	r24, r20
    54f0:	88 0f       	add	r24, r24
    54f2:	99 1f       	adc	r25, r25
    54f4:	9c 01       	movw	r18, r24
    54f6:	22 0f       	add	r18, r18
    54f8:	33 1f       	adc	r19, r19
    54fa:	22 0f       	add	r18, r18
    54fc:	33 1f       	adc	r19, r19
    54fe:	22 0f       	add	r18, r18
    5500:	33 1f       	adc	r19, r19
    5502:	82 0f       	add	r24, r18
    5504:	93 1f       	adc	r25, r19
    5506:	84 0f       	add	r24, r20
    5508:	95 1f       	adc	r25, r21
    550a:	fc 01       	movw	r30, r24
    550c:	e2 57       	subi	r30, 0x72	; 114
    550e:	fe 4f       	sbci	r31, 0xFE	; 254
    5510:	60 81       	ld	r22, Z
    5512:	8f 81       	ldd	r24, Y+7	; 0x07
    5514:	48 2f       	mov	r20, r24
    5516:	50 e0       	ldi	r21, 0x00	; 0
    5518:	ca 01       	movw	r24, r20
    551a:	88 0f       	add	r24, r24
    551c:	99 1f       	adc	r25, r25
    551e:	9c 01       	movw	r18, r24
    5520:	22 0f       	add	r18, r18
    5522:	33 1f       	adc	r19, r19
    5524:	22 0f       	add	r18, r18
    5526:	33 1f       	adc	r19, r19
    5528:	22 0f       	add	r18, r18
    552a:	33 1f       	adc	r19, r19
    552c:	82 0f       	add	r24, r18
    552e:	93 1f       	adc	r25, r19
    5530:	84 0f       	add	r24, r20
    5532:	95 1f       	adc	r25, r21
    5534:	fc 01       	movw	r30, r24
    5536:	e1 57       	subi	r30, 0x71	; 113
    5538:	fe 4f       	sbci	r31, 0xFE	; 254
    553a:	90 81       	ld	r25, Z
    553c:	86 2f       	mov	r24, r22
    553e:	69 2f       	mov	r22, r25
    5540:	41 e0       	ldi	r20, 0x01	; 1
    5542:	0e 94 18 17 	call	0x2e30	; 0x2e30 <DIO_enuSetPinVal>
    5546:	28 2f       	mov	r18, r24
    5548:	30 e0       	ldi	r19, 0x00	; 0
    554a:	8d 81       	ldd	r24, Y+5	; 0x05
    554c:	8d 5f       	subi	r24, 0xFD	; 253
    554e:	8d 83       	std	Y+5, r24	; 0x05
    5550:	8d 81       	ldd	r24, Y+5	; 0x05
    5552:	88 2f       	mov	r24, r24
    5554:	90 e0       	ldi	r25, 0x00	; 0
    5556:	a9 01       	movw	r20, r18
    5558:	02 c0       	rjmp	.+4      	; 0x555e <Seven_Sement_enuTurnOFF+0x3e2>
    555a:	44 0f       	add	r20, r20
    555c:	55 1f       	adc	r21, r21
    555e:	8a 95       	dec	r24
    5560:	e2 f7       	brpl	.-8      	; 0x555a <Seven_Sement_enuTurnOFF+0x3de>
    5562:	ca 01       	movw	r24, r20
    5564:	9c 01       	movw	r18, r24
    5566:	44 27       	eor	r20, r20
    5568:	37 fd       	sbrc	r19, 7
    556a:	40 95       	com	r20
    556c:	54 2f       	mov	r21, r20
    556e:	89 81       	ldd	r24, Y+1	; 0x01
    5570:	9a 81       	ldd	r25, Y+2	; 0x02
    5572:	ab 81       	ldd	r26, Y+3	; 0x03
    5574:	bc 81       	ldd	r27, Y+4	; 0x04
    5576:	82 2b       	or	r24, r18
    5578:	93 2b       	or	r25, r19
    557a:	a4 2b       	or	r26, r20
    557c:	b5 2b       	or	r27, r21
    557e:	89 83       	std	Y+1, r24	; 0x01
    5580:	9a 83       	std	Y+2, r25	; 0x02
    5582:	ab 83       	std	Y+3, r26	; 0x03
    5584:	bc 83       	std	Y+4, r27	; 0x04
			Local_u32CheckError |= (DIO_enuSetPinVal(SEV_SEG_AstrSEGConfig[Copy_SEG_ID].SEG_GPORT, SEV_SEG_AstrSEGConfig[Copy_SEG_ID].SEG_GPIN, DIO_u8HIGH) << (Local_u8Iterator_Error += ERROR_STATE_SIZE));
    5586:	8f 81       	ldd	r24, Y+7	; 0x07
    5588:	48 2f       	mov	r20, r24
    558a:	50 e0       	ldi	r21, 0x00	; 0
    558c:	ca 01       	movw	r24, r20
    558e:	88 0f       	add	r24, r24
    5590:	99 1f       	adc	r25, r25
    5592:	9c 01       	movw	r18, r24
    5594:	22 0f       	add	r18, r18
    5596:	33 1f       	adc	r19, r19
    5598:	22 0f       	add	r18, r18
    559a:	33 1f       	adc	r19, r19
    559c:	22 0f       	add	r18, r18
    559e:	33 1f       	adc	r19, r19
    55a0:	82 0f       	add	r24, r18
    55a2:	93 1f       	adc	r25, r19
    55a4:	84 0f       	add	r24, r20
    55a6:	95 1f       	adc	r25, r21
    55a8:	fc 01       	movw	r30, r24
    55aa:	e0 57       	subi	r30, 0x70	; 112
    55ac:	fe 4f       	sbci	r31, 0xFE	; 254
    55ae:	60 81       	ld	r22, Z
    55b0:	8f 81       	ldd	r24, Y+7	; 0x07
    55b2:	48 2f       	mov	r20, r24
    55b4:	50 e0       	ldi	r21, 0x00	; 0
    55b6:	ca 01       	movw	r24, r20
    55b8:	88 0f       	add	r24, r24
    55ba:	99 1f       	adc	r25, r25
    55bc:	9c 01       	movw	r18, r24
    55be:	22 0f       	add	r18, r18
    55c0:	33 1f       	adc	r19, r19
    55c2:	22 0f       	add	r18, r18
    55c4:	33 1f       	adc	r19, r19
    55c6:	22 0f       	add	r18, r18
    55c8:	33 1f       	adc	r19, r19
    55ca:	82 0f       	add	r24, r18
    55cc:	93 1f       	adc	r25, r19
    55ce:	84 0f       	add	r24, r20
    55d0:	95 1f       	adc	r25, r21
    55d2:	fc 01       	movw	r30, r24
    55d4:	ef 56       	subi	r30, 0x6F	; 111
    55d6:	fe 4f       	sbci	r31, 0xFE	; 254
    55d8:	90 81       	ld	r25, Z
    55da:	86 2f       	mov	r24, r22
    55dc:	69 2f       	mov	r22, r25
    55de:	41 e0       	ldi	r20, 0x01	; 1
    55e0:	0e 94 18 17 	call	0x2e30	; 0x2e30 <DIO_enuSetPinVal>
    55e4:	28 2f       	mov	r18, r24
    55e6:	30 e0       	ldi	r19, 0x00	; 0
    55e8:	8d 81       	ldd	r24, Y+5	; 0x05
    55ea:	8d 5f       	subi	r24, 0xFD	; 253
    55ec:	8d 83       	std	Y+5, r24	; 0x05
    55ee:	8d 81       	ldd	r24, Y+5	; 0x05
    55f0:	88 2f       	mov	r24, r24
    55f2:	90 e0       	ldi	r25, 0x00	; 0
    55f4:	a9 01       	movw	r20, r18
    55f6:	02 c0       	rjmp	.+4      	; 0x55fc <Seven_Sement_enuTurnOFF+0x480>
    55f8:	44 0f       	add	r20, r20
    55fa:	55 1f       	adc	r21, r21
    55fc:	8a 95       	dec	r24
    55fe:	e2 f7       	brpl	.-8      	; 0x55f8 <Seven_Sement_enuTurnOFF+0x47c>
    5600:	ca 01       	movw	r24, r20
    5602:	9c 01       	movw	r18, r24
    5604:	44 27       	eor	r20, r20
    5606:	37 fd       	sbrc	r19, 7
    5608:	40 95       	com	r20
    560a:	54 2f       	mov	r21, r20
    560c:	89 81       	ldd	r24, Y+1	; 0x01
    560e:	9a 81       	ldd	r25, Y+2	; 0x02
    5610:	ab 81       	ldd	r26, Y+3	; 0x03
    5612:	bc 81       	ldd	r27, Y+4	; 0x04
    5614:	82 2b       	or	r24, r18
    5616:	93 2b       	or	r25, r19
    5618:	a4 2b       	or	r26, r20
    561a:	b5 2b       	or	r27, r21
    561c:	89 83       	std	Y+1, r24	; 0x01
    561e:	9a 83       	std	Y+2, r25	; 0x02
    5620:	ab 83       	std	Y+3, r26	; 0x03
    5622:	bc 83       	std	Y+4, r27	; 0x04
			
			if(SEV_SEG_AstrSEGConfig[Copy_SEG_ID].SEG_DOT_PORT != NOT_CONNECTED && SEV_SEG_AstrSEGConfig[Copy_SEG_ID].SEG_DOT_PIN != NOT_CONNECTED)
    5624:	8f 81       	ldd	r24, Y+7	; 0x07
    5626:	48 2f       	mov	r20, r24
    5628:	50 e0       	ldi	r21, 0x00	; 0
    562a:	ca 01       	movw	r24, r20
    562c:	88 0f       	add	r24, r24
    562e:	99 1f       	adc	r25, r25
    5630:	9c 01       	movw	r18, r24
    5632:	22 0f       	add	r18, r18
    5634:	33 1f       	adc	r19, r19
    5636:	22 0f       	add	r18, r18
    5638:	33 1f       	adc	r19, r19
    563a:	22 0f       	add	r18, r18
    563c:	33 1f       	adc	r19, r19
    563e:	82 0f       	add	r24, r18
    5640:	93 1f       	adc	r25, r19
    5642:	84 0f       	add	r24, r20
    5644:	95 1f       	adc	r25, r21
    5646:	fc 01       	movw	r30, r24
    5648:	ec 56       	subi	r30, 0x6C	; 108
    564a:	fe 4f       	sbci	r31, 0xFE	; 254
    564c:	80 81       	ld	r24, Z
    564e:	8a 30       	cpi	r24, 0x0A	; 10
    5650:	09 f4       	brne	.+2      	; 0x5654 <Seven_Sement_enuTurnOFF+0x4d8>
    5652:	25 c3       	rjmp	.+1610   	; 0x5c9e <Seven_Sement_enuTurnOFF+0xb22>
    5654:	8f 81       	ldd	r24, Y+7	; 0x07
    5656:	48 2f       	mov	r20, r24
    5658:	50 e0       	ldi	r21, 0x00	; 0
    565a:	ca 01       	movw	r24, r20
    565c:	88 0f       	add	r24, r24
    565e:	99 1f       	adc	r25, r25
    5660:	9c 01       	movw	r18, r24
    5662:	22 0f       	add	r18, r18
    5664:	33 1f       	adc	r19, r19
    5666:	22 0f       	add	r18, r18
    5668:	33 1f       	adc	r19, r19
    566a:	22 0f       	add	r18, r18
    566c:	33 1f       	adc	r19, r19
    566e:	82 0f       	add	r24, r18
    5670:	93 1f       	adc	r25, r19
    5672:	84 0f       	add	r24, r20
    5674:	95 1f       	adc	r25, r21
    5676:	fc 01       	movw	r30, r24
    5678:	eb 56       	subi	r30, 0x6B	; 107
    567a:	fe 4f       	sbci	r31, 0xFE	; 254
    567c:	80 81       	ld	r24, Z
    567e:	8a 30       	cpi	r24, 0x0A	; 10
    5680:	09 f4       	brne	.+2      	; 0x5684 <Seven_Sement_enuTurnOFF+0x508>
    5682:	0d c3       	rjmp	.+1562   	; 0x5c9e <Seven_Sement_enuTurnOFF+0xb22>
			{
				Local_u32CheckError |= (DIO_enuSetPinVal(SEV_SEG_AstrSEGConfig[Copy_SEG_ID].SEG_DOT_PORT, SEV_SEG_AstrSEGConfig[Copy_SEG_ID].SEG_DOT_PIN, DIO_u8HIGH) << (Local_u8Iterator_Error += ERROR_STATE_SIZE));
    5684:	8f 81       	ldd	r24, Y+7	; 0x07
    5686:	48 2f       	mov	r20, r24
    5688:	50 e0       	ldi	r21, 0x00	; 0
    568a:	ca 01       	movw	r24, r20
    568c:	88 0f       	add	r24, r24
    568e:	99 1f       	adc	r25, r25
    5690:	9c 01       	movw	r18, r24
    5692:	22 0f       	add	r18, r18
    5694:	33 1f       	adc	r19, r19
    5696:	22 0f       	add	r18, r18
    5698:	33 1f       	adc	r19, r19
    569a:	22 0f       	add	r18, r18
    569c:	33 1f       	adc	r19, r19
    569e:	82 0f       	add	r24, r18
    56a0:	93 1f       	adc	r25, r19
    56a2:	84 0f       	add	r24, r20
    56a4:	95 1f       	adc	r25, r21
    56a6:	fc 01       	movw	r30, r24
    56a8:	ec 56       	subi	r30, 0x6C	; 108
    56aa:	fe 4f       	sbci	r31, 0xFE	; 254
    56ac:	60 81       	ld	r22, Z
    56ae:	8f 81       	ldd	r24, Y+7	; 0x07
    56b0:	48 2f       	mov	r20, r24
    56b2:	50 e0       	ldi	r21, 0x00	; 0
    56b4:	ca 01       	movw	r24, r20
    56b6:	88 0f       	add	r24, r24
    56b8:	99 1f       	adc	r25, r25
    56ba:	9c 01       	movw	r18, r24
    56bc:	22 0f       	add	r18, r18
    56be:	33 1f       	adc	r19, r19
    56c0:	22 0f       	add	r18, r18
    56c2:	33 1f       	adc	r19, r19
    56c4:	22 0f       	add	r18, r18
    56c6:	33 1f       	adc	r19, r19
    56c8:	82 0f       	add	r24, r18
    56ca:	93 1f       	adc	r25, r19
    56cc:	84 0f       	add	r24, r20
    56ce:	95 1f       	adc	r25, r21
    56d0:	fc 01       	movw	r30, r24
    56d2:	eb 56       	subi	r30, 0x6B	; 107
    56d4:	fe 4f       	sbci	r31, 0xFE	; 254
    56d6:	90 81       	ld	r25, Z
    56d8:	86 2f       	mov	r24, r22
    56da:	69 2f       	mov	r22, r25
    56dc:	41 e0       	ldi	r20, 0x01	; 1
    56de:	0e 94 18 17 	call	0x2e30	; 0x2e30 <DIO_enuSetPinVal>
    56e2:	28 2f       	mov	r18, r24
    56e4:	30 e0       	ldi	r19, 0x00	; 0
    56e6:	8d 81       	ldd	r24, Y+5	; 0x05
    56e8:	8d 5f       	subi	r24, 0xFD	; 253
    56ea:	8d 83       	std	Y+5, r24	; 0x05
    56ec:	8d 81       	ldd	r24, Y+5	; 0x05
    56ee:	88 2f       	mov	r24, r24
    56f0:	90 e0       	ldi	r25, 0x00	; 0
    56f2:	a9 01       	movw	r20, r18
    56f4:	02 c0       	rjmp	.+4      	; 0x56fa <Seven_Sement_enuTurnOFF+0x57e>
    56f6:	44 0f       	add	r20, r20
    56f8:	55 1f       	adc	r21, r21
    56fa:	8a 95       	dec	r24
    56fc:	e2 f7       	brpl	.-8      	; 0x56f6 <Seven_Sement_enuTurnOFF+0x57a>
    56fe:	ca 01       	movw	r24, r20
    5700:	9c 01       	movw	r18, r24
    5702:	44 27       	eor	r20, r20
    5704:	37 fd       	sbrc	r19, 7
    5706:	40 95       	com	r20
    5708:	54 2f       	mov	r21, r20
    570a:	89 81       	ldd	r24, Y+1	; 0x01
    570c:	9a 81       	ldd	r25, Y+2	; 0x02
    570e:	ab 81       	ldd	r26, Y+3	; 0x03
    5710:	bc 81       	ldd	r27, Y+4	; 0x04
    5712:	82 2b       	or	r24, r18
    5714:	93 2b       	or	r25, r19
    5716:	a4 2b       	or	r26, r20
    5718:	b5 2b       	or	r27, r21
    571a:	89 83       	std	Y+1, r24	; 0x01
    571c:	9a 83       	std	Y+2, r25	; 0x02
    571e:	ab 83       	std	Y+3, r26	; 0x03
    5720:	bc 83       	std	Y+4, r27	; 0x04
    5722:	bd c2       	rjmp	.+1402   	; 0x5c9e <Seven_Sement_enuTurnOFF+0xb22>
			}
		}
		else if(SEV_SEG_AstrSEGConfig[Copy_SEG_ID].SEG_TYPE == COMMON_CATHODE)
    5724:	8f 81       	ldd	r24, Y+7	; 0x07
    5726:	48 2f       	mov	r20, r24
    5728:	50 e0       	ldi	r21, 0x00	; 0
    572a:	ca 01       	movw	r24, r20
    572c:	88 0f       	add	r24, r24
    572e:	99 1f       	adc	r25, r25
    5730:	9c 01       	movw	r18, r24
    5732:	22 0f       	add	r18, r18
    5734:	33 1f       	adc	r19, r19
    5736:	22 0f       	add	r18, r18
    5738:	33 1f       	adc	r19, r19
    573a:	22 0f       	add	r18, r18
    573c:	33 1f       	adc	r19, r19
    573e:	82 0f       	add	r24, r18
    5740:	93 1f       	adc	r25, r19
    5742:	84 0f       	add	r24, r20
    5744:	95 1f       	adc	r25, r21
    5746:	fc 01       	movw	r30, r24
    5748:	ea 56       	subi	r30, 0x6A	; 106
    574a:	fe 4f       	sbci	r31, 0xFE	; 254
    574c:	80 81       	ld	r24, Z
    574e:	86 30       	cpi	r24, 0x06	; 6
    5750:	09 f0       	breq	.+2      	; 0x5754 <Seven_Sement_enuTurnOFF+0x5d8>
    5752:	a5 c2       	rjmp	.+1354   	; 0x5c9e <Seven_Sement_enuTurnOFF+0xb22>
		{
			Local_u32CheckError |= (DIO_enuSetPinVal(SEV_SEG_AstrSEGConfig[Copy_SEG_ID].SEG_APORT, SEV_SEG_AstrSEGConfig[Copy_SEG_ID].SEG_APIN, DIO_u8LOW) << Local_u8Iterator_Error);
    5754:	8f 81       	ldd	r24, Y+7	; 0x07
    5756:	48 2f       	mov	r20, r24
    5758:	50 e0       	ldi	r21, 0x00	; 0
    575a:	ca 01       	movw	r24, r20
    575c:	88 0f       	add	r24, r24
    575e:	99 1f       	adc	r25, r25
    5760:	9c 01       	movw	r18, r24
    5762:	22 0f       	add	r18, r18
    5764:	33 1f       	adc	r19, r19
    5766:	22 0f       	add	r18, r18
    5768:	33 1f       	adc	r19, r19
    576a:	22 0f       	add	r18, r18
    576c:	33 1f       	adc	r19, r19
    576e:	82 0f       	add	r24, r18
    5770:	93 1f       	adc	r25, r19
    5772:	84 0f       	add	r24, r20
    5774:	95 1f       	adc	r25, r21
    5776:	fc 01       	movw	r30, r24
    5778:	ec 57       	subi	r30, 0x7C	; 124
    577a:	fe 4f       	sbci	r31, 0xFE	; 254
    577c:	60 81       	ld	r22, Z
    577e:	8f 81       	ldd	r24, Y+7	; 0x07
    5780:	48 2f       	mov	r20, r24
    5782:	50 e0       	ldi	r21, 0x00	; 0
    5784:	ca 01       	movw	r24, r20
    5786:	88 0f       	add	r24, r24
    5788:	99 1f       	adc	r25, r25
    578a:	9c 01       	movw	r18, r24
    578c:	22 0f       	add	r18, r18
    578e:	33 1f       	adc	r19, r19
    5790:	22 0f       	add	r18, r18
    5792:	33 1f       	adc	r19, r19
    5794:	22 0f       	add	r18, r18
    5796:	33 1f       	adc	r19, r19
    5798:	82 0f       	add	r24, r18
    579a:	93 1f       	adc	r25, r19
    579c:	84 0f       	add	r24, r20
    579e:	95 1f       	adc	r25, r21
    57a0:	fc 01       	movw	r30, r24
    57a2:	eb 57       	subi	r30, 0x7B	; 123
    57a4:	fe 4f       	sbci	r31, 0xFE	; 254
    57a6:	90 81       	ld	r25, Z
    57a8:	86 2f       	mov	r24, r22
    57aa:	69 2f       	mov	r22, r25
    57ac:	40 e0       	ldi	r20, 0x00	; 0
    57ae:	0e 94 18 17 	call	0x2e30	; 0x2e30 <DIO_enuSetPinVal>
    57b2:	28 2f       	mov	r18, r24
    57b4:	30 e0       	ldi	r19, 0x00	; 0
    57b6:	8d 81       	ldd	r24, Y+5	; 0x05
    57b8:	88 2f       	mov	r24, r24
    57ba:	90 e0       	ldi	r25, 0x00	; 0
    57bc:	a9 01       	movw	r20, r18
    57be:	02 c0       	rjmp	.+4      	; 0x57c4 <Seven_Sement_enuTurnOFF+0x648>
    57c0:	44 0f       	add	r20, r20
    57c2:	55 1f       	adc	r21, r21
    57c4:	8a 95       	dec	r24
    57c6:	e2 f7       	brpl	.-8      	; 0x57c0 <Seven_Sement_enuTurnOFF+0x644>
    57c8:	ca 01       	movw	r24, r20
    57ca:	9c 01       	movw	r18, r24
    57cc:	44 27       	eor	r20, r20
    57ce:	37 fd       	sbrc	r19, 7
    57d0:	40 95       	com	r20
    57d2:	54 2f       	mov	r21, r20
    57d4:	89 81       	ldd	r24, Y+1	; 0x01
    57d6:	9a 81       	ldd	r25, Y+2	; 0x02
    57d8:	ab 81       	ldd	r26, Y+3	; 0x03
    57da:	bc 81       	ldd	r27, Y+4	; 0x04
    57dc:	82 2b       	or	r24, r18
    57de:	93 2b       	or	r25, r19
    57e0:	a4 2b       	or	r26, r20
    57e2:	b5 2b       	or	r27, r21
    57e4:	89 83       	std	Y+1, r24	; 0x01
    57e6:	9a 83       	std	Y+2, r25	; 0x02
    57e8:	ab 83       	std	Y+3, r26	; 0x03
    57ea:	bc 83       	std	Y+4, r27	; 0x04
			Local_u32CheckError |= (DIO_enuSetPinVal(SEV_SEG_AstrSEGConfig[Copy_SEG_ID].SEG_BPORT, SEV_SEG_AstrSEGConfig[Copy_SEG_ID].SEG_BPIN, DIO_u8LOW) << (Local_u8Iterator_Error += ERROR_STATE_SIZE));
    57ec:	8f 81       	ldd	r24, Y+7	; 0x07
    57ee:	48 2f       	mov	r20, r24
    57f0:	50 e0       	ldi	r21, 0x00	; 0
    57f2:	ca 01       	movw	r24, r20
    57f4:	88 0f       	add	r24, r24
    57f6:	99 1f       	adc	r25, r25
    57f8:	9c 01       	movw	r18, r24
    57fa:	22 0f       	add	r18, r18
    57fc:	33 1f       	adc	r19, r19
    57fe:	22 0f       	add	r18, r18
    5800:	33 1f       	adc	r19, r19
    5802:	22 0f       	add	r18, r18
    5804:	33 1f       	adc	r19, r19
    5806:	82 0f       	add	r24, r18
    5808:	93 1f       	adc	r25, r19
    580a:	84 0f       	add	r24, r20
    580c:	95 1f       	adc	r25, r21
    580e:	fc 01       	movw	r30, r24
    5810:	ea 57       	subi	r30, 0x7A	; 122
    5812:	fe 4f       	sbci	r31, 0xFE	; 254
    5814:	60 81       	ld	r22, Z
    5816:	8f 81       	ldd	r24, Y+7	; 0x07
    5818:	48 2f       	mov	r20, r24
    581a:	50 e0       	ldi	r21, 0x00	; 0
    581c:	ca 01       	movw	r24, r20
    581e:	88 0f       	add	r24, r24
    5820:	99 1f       	adc	r25, r25
    5822:	9c 01       	movw	r18, r24
    5824:	22 0f       	add	r18, r18
    5826:	33 1f       	adc	r19, r19
    5828:	22 0f       	add	r18, r18
    582a:	33 1f       	adc	r19, r19
    582c:	22 0f       	add	r18, r18
    582e:	33 1f       	adc	r19, r19
    5830:	82 0f       	add	r24, r18
    5832:	93 1f       	adc	r25, r19
    5834:	84 0f       	add	r24, r20
    5836:	95 1f       	adc	r25, r21
    5838:	fc 01       	movw	r30, r24
    583a:	e9 57       	subi	r30, 0x79	; 121
    583c:	fe 4f       	sbci	r31, 0xFE	; 254
    583e:	90 81       	ld	r25, Z
    5840:	86 2f       	mov	r24, r22
    5842:	69 2f       	mov	r22, r25
    5844:	40 e0       	ldi	r20, 0x00	; 0
    5846:	0e 94 18 17 	call	0x2e30	; 0x2e30 <DIO_enuSetPinVal>
    584a:	28 2f       	mov	r18, r24
    584c:	30 e0       	ldi	r19, 0x00	; 0
    584e:	8d 81       	ldd	r24, Y+5	; 0x05
    5850:	8d 5f       	subi	r24, 0xFD	; 253
    5852:	8d 83       	std	Y+5, r24	; 0x05
    5854:	8d 81       	ldd	r24, Y+5	; 0x05
    5856:	88 2f       	mov	r24, r24
    5858:	90 e0       	ldi	r25, 0x00	; 0
    585a:	a9 01       	movw	r20, r18
    585c:	02 c0       	rjmp	.+4      	; 0x5862 <Seven_Sement_enuTurnOFF+0x6e6>
    585e:	44 0f       	add	r20, r20
    5860:	55 1f       	adc	r21, r21
    5862:	8a 95       	dec	r24
    5864:	e2 f7       	brpl	.-8      	; 0x585e <Seven_Sement_enuTurnOFF+0x6e2>
    5866:	ca 01       	movw	r24, r20
    5868:	9c 01       	movw	r18, r24
    586a:	44 27       	eor	r20, r20
    586c:	37 fd       	sbrc	r19, 7
    586e:	40 95       	com	r20
    5870:	54 2f       	mov	r21, r20
    5872:	89 81       	ldd	r24, Y+1	; 0x01
    5874:	9a 81       	ldd	r25, Y+2	; 0x02
    5876:	ab 81       	ldd	r26, Y+3	; 0x03
    5878:	bc 81       	ldd	r27, Y+4	; 0x04
    587a:	82 2b       	or	r24, r18
    587c:	93 2b       	or	r25, r19
    587e:	a4 2b       	or	r26, r20
    5880:	b5 2b       	or	r27, r21
    5882:	89 83       	std	Y+1, r24	; 0x01
    5884:	9a 83       	std	Y+2, r25	; 0x02
    5886:	ab 83       	std	Y+3, r26	; 0x03
    5888:	bc 83       	std	Y+4, r27	; 0x04
			Local_u32CheckError |= (DIO_enuSetPinVal(SEV_SEG_AstrSEGConfig[Copy_SEG_ID].SEG_CPORT, SEV_SEG_AstrSEGConfig[Copy_SEG_ID].SEG_CPIN, DIO_u8LOW) << (Local_u8Iterator_Error += ERROR_STATE_SIZE));
    588a:	8f 81       	ldd	r24, Y+7	; 0x07
    588c:	48 2f       	mov	r20, r24
    588e:	50 e0       	ldi	r21, 0x00	; 0
    5890:	ca 01       	movw	r24, r20
    5892:	88 0f       	add	r24, r24
    5894:	99 1f       	adc	r25, r25
    5896:	9c 01       	movw	r18, r24
    5898:	22 0f       	add	r18, r18
    589a:	33 1f       	adc	r19, r19
    589c:	22 0f       	add	r18, r18
    589e:	33 1f       	adc	r19, r19
    58a0:	22 0f       	add	r18, r18
    58a2:	33 1f       	adc	r19, r19
    58a4:	82 0f       	add	r24, r18
    58a6:	93 1f       	adc	r25, r19
    58a8:	84 0f       	add	r24, r20
    58aa:	95 1f       	adc	r25, r21
    58ac:	fc 01       	movw	r30, r24
    58ae:	e8 57       	subi	r30, 0x78	; 120
    58b0:	fe 4f       	sbci	r31, 0xFE	; 254
    58b2:	60 81       	ld	r22, Z
    58b4:	8f 81       	ldd	r24, Y+7	; 0x07
    58b6:	48 2f       	mov	r20, r24
    58b8:	50 e0       	ldi	r21, 0x00	; 0
    58ba:	ca 01       	movw	r24, r20
    58bc:	88 0f       	add	r24, r24
    58be:	99 1f       	adc	r25, r25
    58c0:	9c 01       	movw	r18, r24
    58c2:	22 0f       	add	r18, r18
    58c4:	33 1f       	adc	r19, r19
    58c6:	22 0f       	add	r18, r18
    58c8:	33 1f       	adc	r19, r19
    58ca:	22 0f       	add	r18, r18
    58cc:	33 1f       	adc	r19, r19
    58ce:	82 0f       	add	r24, r18
    58d0:	93 1f       	adc	r25, r19
    58d2:	84 0f       	add	r24, r20
    58d4:	95 1f       	adc	r25, r21
    58d6:	fc 01       	movw	r30, r24
    58d8:	e7 57       	subi	r30, 0x77	; 119
    58da:	fe 4f       	sbci	r31, 0xFE	; 254
    58dc:	90 81       	ld	r25, Z
    58de:	86 2f       	mov	r24, r22
    58e0:	69 2f       	mov	r22, r25
    58e2:	40 e0       	ldi	r20, 0x00	; 0
    58e4:	0e 94 18 17 	call	0x2e30	; 0x2e30 <DIO_enuSetPinVal>
    58e8:	28 2f       	mov	r18, r24
    58ea:	30 e0       	ldi	r19, 0x00	; 0
    58ec:	8d 81       	ldd	r24, Y+5	; 0x05
    58ee:	8d 5f       	subi	r24, 0xFD	; 253
    58f0:	8d 83       	std	Y+5, r24	; 0x05
    58f2:	8d 81       	ldd	r24, Y+5	; 0x05
    58f4:	88 2f       	mov	r24, r24
    58f6:	90 e0       	ldi	r25, 0x00	; 0
    58f8:	a9 01       	movw	r20, r18
    58fa:	02 c0       	rjmp	.+4      	; 0x5900 <Seven_Sement_enuTurnOFF+0x784>
    58fc:	44 0f       	add	r20, r20
    58fe:	55 1f       	adc	r21, r21
    5900:	8a 95       	dec	r24
    5902:	e2 f7       	brpl	.-8      	; 0x58fc <Seven_Sement_enuTurnOFF+0x780>
    5904:	ca 01       	movw	r24, r20
    5906:	9c 01       	movw	r18, r24
    5908:	44 27       	eor	r20, r20
    590a:	37 fd       	sbrc	r19, 7
    590c:	40 95       	com	r20
    590e:	54 2f       	mov	r21, r20
    5910:	89 81       	ldd	r24, Y+1	; 0x01
    5912:	9a 81       	ldd	r25, Y+2	; 0x02
    5914:	ab 81       	ldd	r26, Y+3	; 0x03
    5916:	bc 81       	ldd	r27, Y+4	; 0x04
    5918:	82 2b       	or	r24, r18
    591a:	93 2b       	or	r25, r19
    591c:	a4 2b       	or	r26, r20
    591e:	b5 2b       	or	r27, r21
    5920:	89 83       	std	Y+1, r24	; 0x01
    5922:	9a 83       	std	Y+2, r25	; 0x02
    5924:	ab 83       	std	Y+3, r26	; 0x03
    5926:	bc 83       	std	Y+4, r27	; 0x04
			Local_u32CheckError |= (DIO_enuSetPinVal(SEV_SEG_AstrSEGConfig[Copy_SEG_ID].SEG_DPORT, SEV_SEG_AstrSEGConfig[Copy_SEG_ID].SEG_DPIN, DIO_u8LOW) << (Local_u8Iterator_Error += ERROR_STATE_SIZE));
    5928:	8f 81       	ldd	r24, Y+7	; 0x07
    592a:	48 2f       	mov	r20, r24
    592c:	50 e0       	ldi	r21, 0x00	; 0
    592e:	ca 01       	movw	r24, r20
    5930:	88 0f       	add	r24, r24
    5932:	99 1f       	adc	r25, r25
    5934:	9c 01       	movw	r18, r24
    5936:	22 0f       	add	r18, r18
    5938:	33 1f       	adc	r19, r19
    593a:	22 0f       	add	r18, r18
    593c:	33 1f       	adc	r19, r19
    593e:	22 0f       	add	r18, r18
    5940:	33 1f       	adc	r19, r19
    5942:	82 0f       	add	r24, r18
    5944:	93 1f       	adc	r25, r19
    5946:	84 0f       	add	r24, r20
    5948:	95 1f       	adc	r25, r21
    594a:	fc 01       	movw	r30, r24
    594c:	e6 57       	subi	r30, 0x76	; 118
    594e:	fe 4f       	sbci	r31, 0xFE	; 254
    5950:	60 81       	ld	r22, Z
    5952:	8f 81       	ldd	r24, Y+7	; 0x07
    5954:	48 2f       	mov	r20, r24
    5956:	50 e0       	ldi	r21, 0x00	; 0
    5958:	ca 01       	movw	r24, r20
    595a:	88 0f       	add	r24, r24
    595c:	99 1f       	adc	r25, r25
    595e:	9c 01       	movw	r18, r24
    5960:	22 0f       	add	r18, r18
    5962:	33 1f       	adc	r19, r19
    5964:	22 0f       	add	r18, r18
    5966:	33 1f       	adc	r19, r19
    5968:	22 0f       	add	r18, r18
    596a:	33 1f       	adc	r19, r19
    596c:	82 0f       	add	r24, r18
    596e:	93 1f       	adc	r25, r19
    5970:	84 0f       	add	r24, r20
    5972:	95 1f       	adc	r25, r21
    5974:	fc 01       	movw	r30, r24
    5976:	e5 57       	subi	r30, 0x75	; 117
    5978:	fe 4f       	sbci	r31, 0xFE	; 254
    597a:	90 81       	ld	r25, Z
    597c:	86 2f       	mov	r24, r22
    597e:	69 2f       	mov	r22, r25
    5980:	40 e0       	ldi	r20, 0x00	; 0
    5982:	0e 94 18 17 	call	0x2e30	; 0x2e30 <DIO_enuSetPinVal>
    5986:	28 2f       	mov	r18, r24
    5988:	30 e0       	ldi	r19, 0x00	; 0
    598a:	8d 81       	ldd	r24, Y+5	; 0x05
    598c:	8d 5f       	subi	r24, 0xFD	; 253
    598e:	8d 83       	std	Y+5, r24	; 0x05
    5990:	8d 81       	ldd	r24, Y+5	; 0x05
    5992:	88 2f       	mov	r24, r24
    5994:	90 e0       	ldi	r25, 0x00	; 0
    5996:	a9 01       	movw	r20, r18
    5998:	02 c0       	rjmp	.+4      	; 0x599e <Seven_Sement_enuTurnOFF+0x822>
    599a:	44 0f       	add	r20, r20
    599c:	55 1f       	adc	r21, r21
    599e:	8a 95       	dec	r24
    59a0:	e2 f7       	brpl	.-8      	; 0x599a <Seven_Sement_enuTurnOFF+0x81e>
    59a2:	ca 01       	movw	r24, r20
    59a4:	9c 01       	movw	r18, r24
    59a6:	44 27       	eor	r20, r20
    59a8:	37 fd       	sbrc	r19, 7
    59aa:	40 95       	com	r20
    59ac:	54 2f       	mov	r21, r20
    59ae:	89 81       	ldd	r24, Y+1	; 0x01
    59b0:	9a 81       	ldd	r25, Y+2	; 0x02
    59b2:	ab 81       	ldd	r26, Y+3	; 0x03
    59b4:	bc 81       	ldd	r27, Y+4	; 0x04
    59b6:	82 2b       	or	r24, r18
    59b8:	93 2b       	or	r25, r19
    59ba:	a4 2b       	or	r26, r20
    59bc:	b5 2b       	or	r27, r21
    59be:	89 83       	std	Y+1, r24	; 0x01
    59c0:	9a 83       	std	Y+2, r25	; 0x02
    59c2:	ab 83       	std	Y+3, r26	; 0x03
    59c4:	bc 83       	std	Y+4, r27	; 0x04
			Local_u32CheckError |= (DIO_enuSetPinVal(SEV_SEG_AstrSEGConfig[Copy_SEG_ID].SEG_EPORT, SEV_SEG_AstrSEGConfig[Copy_SEG_ID].SEG_EPIN, DIO_u8LOW) << (Local_u8Iterator_Error += ERROR_STATE_SIZE));
    59c6:	8f 81       	ldd	r24, Y+7	; 0x07
    59c8:	48 2f       	mov	r20, r24
    59ca:	50 e0       	ldi	r21, 0x00	; 0
    59cc:	ca 01       	movw	r24, r20
    59ce:	88 0f       	add	r24, r24
    59d0:	99 1f       	adc	r25, r25
    59d2:	9c 01       	movw	r18, r24
    59d4:	22 0f       	add	r18, r18
    59d6:	33 1f       	adc	r19, r19
    59d8:	22 0f       	add	r18, r18
    59da:	33 1f       	adc	r19, r19
    59dc:	22 0f       	add	r18, r18
    59de:	33 1f       	adc	r19, r19
    59e0:	82 0f       	add	r24, r18
    59e2:	93 1f       	adc	r25, r19
    59e4:	84 0f       	add	r24, r20
    59e6:	95 1f       	adc	r25, r21
    59e8:	fc 01       	movw	r30, r24
    59ea:	e4 57       	subi	r30, 0x74	; 116
    59ec:	fe 4f       	sbci	r31, 0xFE	; 254
    59ee:	60 81       	ld	r22, Z
    59f0:	8f 81       	ldd	r24, Y+7	; 0x07
    59f2:	48 2f       	mov	r20, r24
    59f4:	50 e0       	ldi	r21, 0x00	; 0
    59f6:	ca 01       	movw	r24, r20
    59f8:	88 0f       	add	r24, r24
    59fa:	99 1f       	adc	r25, r25
    59fc:	9c 01       	movw	r18, r24
    59fe:	22 0f       	add	r18, r18
    5a00:	33 1f       	adc	r19, r19
    5a02:	22 0f       	add	r18, r18
    5a04:	33 1f       	adc	r19, r19
    5a06:	22 0f       	add	r18, r18
    5a08:	33 1f       	adc	r19, r19
    5a0a:	82 0f       	add	r24, r18
    5a0c:	93 1f       	adc	r25, r19
    5a0e:	84 0f       	add	r24, r20
    5a10:	95 1f       	adc	r25, r21
    5a12:	fc 01       	movw	r30, r24
    5a14:	e3 57       	subi	r30, 0x73	; 115
    5a16:	fe 4f       	sbci	r31, 0xFE	; 254
    5a18:	90 81       	ld	r25, Z
    5a1a:	86 2f       	mov	r24, r22
    5a1c:	69 2f       	mov	r22, r25
    5a1e:	40 e0       	ldi	r20, 0x00	; 0
    5a20:	0e 94 18 17 	call	0x2e30	; 0x2e30 <DIO_enuSetPinVal>
    5a24:	28 2f       	mov	r18, r24
    5a26:	30 e0       	ldi	r19, 0x00	; 0
    5a28:	8d 81       	ldd	r24, Y+5	; 0x05
    5a2a:	8d 5f       	subi	r24, 0xFD	; 253
    5a2c:	8d 83       	std	Y+5, r24	; 0x05
    5a2e:	8d 81       	ldd	r24, Y+5	; 0x05
    5a30:	88 2f       	mov	r24, r24
    5a32:	90 e0       	ldi	r25, 0x00	; 0
    5a34:	a9 01       	movw	r20, r18
    5a36:	02 c0       	rjmp	.+4      	; 0x5a3c <Seven_Sement_enuTurnOFF+0x8c0>
    5a38:	44 0f       	add	r20, r20
    5a3a:	55 1f       	adc	r21, r21
    5a3c:	8a 95       	dec	r24
    5a3e:	e2 f7       	brpl	.-8      	; 0x5a38 <Seven_Sement_enuTurnOFF+0x8bc>
    5a40:	ca 01       	movw	r24, r20
    5a42:	9c 01       	movw	r18, r24
    5a44:	44 27       	eor	r20, r20
    5a46:	37 fd       	sbrc	r19, 7
    5a48:	40 95       	com	r20
    5a4a:	54 2f       	mov	r21, r20
    5a4c:	89 81       	ldd	r24, Y+1	; 0x01
    5a4e:	9a 81       	ldd	r25, Y+2	; 0x02
    5a50:	ab 81       	ldd	r26, Y+3	; 0x03
    5a52:	bc 81       	ldd	r27, Y+4	; 0x04
    5a54:	82 2b       	or	r24, r18
    5a56:	93 2b       	or	r25, r19
    5a58:	a4 2b       	or	r26, r20
    5a5a:	b5 2b       	or	r27, r21
    5a5c:	89 83       	std	Y+1, r24	; 0x01
    5a5e:	9a 83       	std	Y+2, r25	; 0x02
    5a60:	ab 83       	std	Y+3, r26	; 0x03
    5a62:	bc 83       	std	Y+4, r27	; 0x04
			Local_u32CheckError |= (DIO_enuSetPinVal(SEV_SEG_AstrSEGConfig[Copy_SEG_ID].SEG_FPORT, SEV_SEG_AstrSEGConfig[Copy_SEG_ID].SEG_FPIN, DIO_u8LOW) << (Local_u8Iterator_Error += ERROR_STATE_SIZE));
    5a64:	8f 81       	ldd	r24, Y+7	; 0x07
    5a66:	48 2f       	mov	r20, r24
    5a68:	50 e0       	ldi	r21, 0x00	; 0
    5a6a:	ca 01       	movw	r24, r20
    5a6c:	88 0f       	add	r24, r24
    5a6e:	99 1f       	adc	r25, r25
    5a70:	9c 01       	movw	r18, r24
    5a72:	22 0f       	add	r18, r18
    5a74:	33 1f       	adc	r19, r19
    5a76:	22 0f       	add	r18, r18
    5a78:	33 1f       	adc	r19, r19
    5a7a:	22 0f       	add	r18, r18
    5a7c:	33 1f       	adc	r19, r19
    5a7e:	82 0f       	add	r24, r18
    5a80:	93 1f       	adc	r25, r19
    5a82:	84 0f       	add	r24, r20
    5a84:	95 1f       	adc	r25, r21
    5a86:	fc 01       	movw	r30, r24
    5a88:	e2 57       	subi	r30, 0x72	; 114
    5a8a:	fe 4f       	sbci	r31, 0xFE	; 254
    5a8c:	60 81       	ld	r22, Z
    5a8e:	8f 81       	ldd	r24, Y+7	; 0x07
    5a90:	48 2f       	mov	r20, r24
    5a92:	50 e0       	ldi	r21, 0x00	; 0
    5a94:	ca 01       	movw	r24, r20
    5a96:	88 0f       	add	r24, r24
    5a98:	99 1f       	adc	r25, r25
    5a9a:	9c 01       	movw	r18, r24
    5a9c:	22 0f       	add	r18, r18
    5a9e:	33 1f       	adc	r19, r19
    5aa0:	22 0f       	add	r18, r18
    5aa2:	33 1f       	adc	r19, r19
    5aa4:	22 0f       	add	r18, r18
    5aa6:	33 1f       	adc	r19, r19
    5aa8:	82 0f       	add	r24, r18
    5aaa:	93 1f       	adc	r25, r19
    5aac:	84 0f       	add	r24, r20
    5aae:	95 1f       	adc	r25, r21
    5ab0:	fc 01       	movw	r30, r24
    5ab2:	e1 57       	subi	r30, 0x71	; 113
    5ab4:	fe 4f       	sbci	r31, 0xFE	; 254
    5ab6:	90 81       	ld	r25, Z
    5ab8:	86 2f       	mov	r24, r22
    5aba:	69 2f       	mov	r22, r25
    5abc:	40 e0       	ldi	r20, 0x00	; 0
    5abe:	0e 94 18 17 	call	0x2e30	; 0x2e30 <DIO_enuSetPinVal>
    5ac2:	28 2f       	mov	r18, r24
    5ac4:	30 e0       	ldi	r19, 0x00	; 0
    5ac6:	8d 81       	ldd	r24, Y+5	; 0x05
    5ac8:	8d 5f       	subi	r24, 0xFD	; 253
    5aca:	8d 83       	std	Y+5, r24	; 0x05
    5acc:	8d 81       	ldd	r24, Y+5	; 0x05
    5ace:	88 2f       	mov	r24, r24
    5ad0:	90 e0       	ldi	r25, 0x00	; 0
    5ad2:	a9 01       	movw	r20, r18
    5ad4:	02 c0       	rjmp	.+4      	; 0x5ada <Seven_Sement_enuTurnOFF+0x95e>
    5ad6:	44 0f       	add	r20, r20
    5ad8:	55 1f       	adc	r21, r21
    5ada:	8a 95       	dec	r24
    5adc:	e2 f7       	brpl	.-8      	; 0x5ad6 <Seven_Sement_enuTurnOFF+0x95a>
    5ade:	ca 01       	movw	r24, r20
    5ae0:	9c 01       	movw	r18, r24
    5ae2:	44 27       	eor	r20, r20
    5ae4:	37 fd       	sbrc	r19, 7
    5ae6:	40 95       	com	r20
    5ae8:	54 2f       	mov	r21, r20
    5aea:	89 81       	ldd	r24, Y+1	; 0x01
    5aec:	9a 81       	ldd	r25, Y+2	; 0x02
    5aee:	ab 81       	ldd	r26, Y+3	; 0x03
    5af0:	bc 81       	ldd	r27, Y+4	; 0x04
    5af2:	82 2b       	or	r24, r18
    5af4:	93 2b       	or	r25, r19
    5af6:	a4 2b       	or	r26, r20
    5af8:	b5 2b       	or	r27, r21
    5afa:	89 83       	std	Y+1, r24	; 0x01
    5afc:	9a 83       	std	Y+2, r25	; 0x02
    5afe:	ab 83       	std	Y+3, r26	; 0x03
    5b00:	bc 83       	std	Y+4, r27	; 0x04
			Local_u32CheckError |= (DIO_enuSetPinVal(SEV_SEG_AstrSEGConfig[Copy_SEG_ID].SEG_GPORT, SEV_SEG_AstrSEGConfig[Copy_SEG_ID].SEG_GPIN, DIO_u8LOW) << (Local_u8Iterator_Error += ERROR_STATE_SIZE));
    5b02:	8f 81       	ldd	r24, Y+7	; 0x07
    5b04:	48 2f       	mov	r20, r24
    5b06:	50 e0       	ldi	r21, 0x00	; 0
    5b08:	ca 01       	movw	r24, r20
    5b0a:	88 0f       	add	r24, r24
    5b0c:	99 1f       	adc	r25, r25
    5b0e:	9c 01       	movw	r18, r24
    5b10:	22 0f       	add	r18, r18
    5b12:	33 1f       	adc	r19, r19
    5b14:	22 0f       	add	r18, r18
    5b16:	33 1f       	adc	r19, r19
    5b18:	22 0f       	add	r18, r18
    5b1a:	33 1f       	adc	r19, r19
    5b1c:	82 0f       	add	r24, r18
    5b1e:	93 1f       	adc	r25, r19
    5b20:	84 0f       	add	r24, r20
    5b22:	95 1f       	adc	r25, r21
    5b24:	fc 01       	movw	r30, r24
    5b26:	e0 57       	subi	r30, 0x70	; 112
    5b28:	fe 4f       	sbci	r31, 0xFE	; 254
    5b2a:	60 81       	ld	r22, Z
    5b2c:	8f 81       	ldd	r24, Y+7	; 0x07
    5b2e:	48 2f       	mov	r20, r24
    5b30:	50 e0       	ldi	r21, 0x00	; 0
    5b32:	ca 01       	movw	r24, r20
    5b34:	88 0f       	add	r24, r24
    5b36:	99 1f       	adc	r25, r25
    5b38:	9c 01       	movw	r18, r24
    5b3a:	22 0f       	add	r18, r18
    5b3c:	33 1f       	adc	r19, r19
    5b3e:	22 0f       	add	r18, r18
    5b40:	33 1f       	adc	r19, r19
    5b42:	22 0f       	add	r18, r18
    5b44:	33 1f       	adc	r19, r19
    5b46:	82 0f       	add	r24, r18
    5b48:	93 1f       	adc	r25, r19
    5b4a:	84 0f       	add	r24, r20
    5b4c:	95 1f       	adc	r25, r21
    5b4e:	fc 01       	movw	r30, r24
    5b50:	ef 56       	subi	r30, 0x6F	; 111
    5b52:	fe 4f       	sbci	r31, 0xFE	; 254
    5b54:	90 81       	ld	r25, Z
    5b56:	86 2f       	mov	r24, r22
    5b58:	69 2f       	mov	r22, r25
    5b5a:	40 e0       	ldi	r20, 0x00	; 0
    5b5c:	0e 94 18 17 	call	0x2e30	; 0x2e30 <DIO_enuSetPinVal>
    5b60:	28 2f       	mov	r18, r24
    5b62:	30 e0       	ldi	r19, 0x00	; 0
    5b64:	8d 81       	ldd	r24, Y+5	; 0x05
    5b66:	8d 5f       	subi	r24, 0xFD	; 253
    5b68:	8d 83       	std	Y+5, r24	; 0x05
    5b6a:	8d 81       	ldd	r24, Y+5	; 0x05
    5b6c:	88 2f       	mov	r24, r24
    5b6e:	90 e0       	ldi	r25, 0x00	; 0
    5b70:	a9 01       	movw	r20, r18
    5b72:	02 c0       	rjmp	.+4      	; 0x5b78 <Seven_Sement_enuTurnOFF+0x9fc>
    5b74:	44 0f       	add	r20, r20
    5b76:	55 1f       	adc	r21, r21
    5b78:	8a 95       	dec	r24
    5b7a:	e2 f7       	brpl	.-8      	; 0x5b74 <Seven_Sement_enuTurnOFF+0x9f8>
    5b7c:	ca 01       	movw	r24, r20
    5b7e:	9c 01       	movw	r18, r24
    5b80:	44 27       	eor	r20, r20
    5b82:	37 fd       	sbrc	r19, 7
    5b84:	40 95       	com	r20
    5b86:	54 2f       	mov	r21, r20
    5b88:	89 81       	ldd	r24, Y+1	; 0x01
    5b8a:	9a 81       	ldd	r25, Y+2	; 0x02
    5b8c:	ab 81       	ldd	r26, Y+3	; 0x03
    5b8e:	bc 81       	ldd	r27, Y+4	; 0x04
    5b90:	82 2b       	or	r24, r18
    5b92:	93 2b       	or	r25, r19
    5b94:	a4 2b       	or	r26, r20
    5b96:	b5 2b       	or	r27, r21
    5b98:	89 83       	std	Y+1, r24	; 0x01
    5b9a:	9a 83       	std	Y+2, r25	; 0x02
    5b9c:	ab 83       	std	Y+3, r26	; 0x03
    5b9e:	bc 83       	std	Y+4, r27	; 0x04
			
			if(SEV_SEG_AstrSEGConfig[Copy_SEG_ID].SEG_DOT_PORT != NOT_CONNECTED && SEV_SEG_AstrSEGConfig[Copy_SEG_ID].SEG_DOT_PIN != NOT_CONNECTED)
    5ba0:	8f 81       	ldd	r24, Y+7	; 0x07
    5ba2:	48 2f       	mov	r20, r24
    5ba4:	50 e0       	ldi	r21, 0x00	; 0
    5ba6:	ca 01       	movw	r24, r20
    5ba8:	88 0f       	add	r24, r24
    5baa:	99 1f       	adc	r25, r25
    5bac:	9c 01       	movw	r18, r24
    5bae:	22 0f       	add	r18, r18
    5bb0:	33 1f       	adc	r19, r19
    5bb2:	22 0f       	add	r18, r18
    5bb4:	33 1f       	adc	r19, r19
    5bb6:	22 0f       	add	r18, r18
    5bb8:	33 1f       	adc	r19, r19
    5bba:	82 0f       	add	r24, r18
    5bbc:	93 1f       	adc	r25, r19
    5bbe:	84 0f       	add	r24, r20
    5bc0:	95 1f       	adc	r25, r21
    5bc2:	fc 01       	movw	r30, r24
    5bc4:	ec 56       	subi	r30, 0x6C	; 108
    5bc6:	fe 4f       	sbci	r31, 0xFE	; 254
    5bc8:	80 81       	ld	r24, Z
    5bca:	8a 30       	cpi	r24, 0x0A	; 10
    5bcc:	09 f4       	brne	.+2      	; 0x5bd0 <Seven_Sement_enuTurnOFF+0xa54>
    5bce:	67 c0       	rjmp	.+206    	; 0x5c9e <Seven_Sement_enuTurnOFF+0xb22>
    5bd0:	8f 81       	ldd	r24, Y+7	; 0x07
    5bd2:	48 2f       	mov	r20, r24
    5bd4:	50 e0       	ldi	r21, 0x00	; 0
    5bd6:	ca 01       	movw	r24, r20
    5bd8:	88 0f       	add	r24, r24
    5bda:	99 1f       	adc	r25, r25
    5bdc:	9c 01       	movw	r18, r24
    5bde:	22 0f       	add	r18, r18
    5be0:	33 1f       	adc	r19, r19
    5be2:	22 0f       	add	r18, r18
    5be4:	33 1f       	adc	r19, r19
    5be6:	22 0f       	add	r18, r18
    5be8:	33 1f       	adc	r19, r19
    5bea:	82 0f       	add	r24, r18
    5bec:	93 1f       	adc	r25, r19
    5bee:	84 0f       	add	r24, r20
    5bf0:	95 1f       	adc	r25, r21
    5bf2:	fc 01       	movw	r30, r24
    5bf4:	eb 56       	subi	r30, 0x6B	; 107
    5bf6:	fe 4f       	sbci	r31, 0xFE	; 254
    5bf8:	80 81       	ld	r24, Z
    5bfa:	8a 30       	cpi	r24, 0x0A	; 10
    5bfc:	09 f4       	brne	.+2      	; 0x5c00 <Seven_Sement_enuTurnOFF+0xa84>
    5bfe:	4f c0       	rjmp	.+158    	; 0x5c9e <Seven_Sement_enuTurnOFF+0xb22>
			{
				Local_u32CheckError |= (DIO_enuSetPinVal(SEV_SEG_AstrSEGConfig[Copy_SEG_ID].SEG_DOT_PORT, SEV_SEG_AstrSEGConfig[Copy_SEG_ID].SEG_DOT_PIN, DIO_u8LOW) << (Local_u8Iterator_Error += ERROR_STATE_SIZE));
    5c00:	8f 81       	ldd	r24, Y+7	; 0x07
    5c02:	48 2f       	mov	r20, r24
    5c04:	50 e0       	ldi	r21, 0x00	; 0
    5c06:	ca 01       	movw	r24, r20
    5c08:	88 0f       	add	r24, r24
    5c0a:	99 1f       	adc	r25, r25
    5c0c:	9c 01       	movw	r18, r24
    5c0e:	22 0f       	add	r18, r18
    5c10:	33 1f       	adc	r19, r19
    5c12:	22 0f       	add	r18, r18
    5c14:	33 1f       	adc	r19, r19
    5c16:	22 0f       	add	r18, r18
    5c18:	33 1f       	adc	r19, r19
    5c1a:	82 0f       	add	r24, r18
    5c1c:	93 1f       	adc	r25, r19
    5c1e:	84 0f       	add	r24, r20
    5c20:	95 1f       	adc	r25, r21
    5c22:	fc 01       	movw	r30, r24
    5c24:	ec 56       	subi	r30, 0x6C	; 108
    5c26:	fe 4f       	sbci	r31, 0xFE	; 254
    5c28:	60 81       	ld	r22, Z
    5c2a:	8f 81       	ldd	r24, Y+7	; 0x07
    5c2c:	48 2f       	mov	r20, r24
    5c2e:	50 e0       	ldi	r21, 0x00	; 0
    5c30:	ca 01       	movw	r24, r20
    5c32:	88 0f       	add	r24, r24
    5c34:	99 1f       	adc	r25, r25
    5c36:	9c 01       	movw	r18, r24
    5c38:	22 0f       	add	r18, r18
    5c3a:	33 1f       	adc	r19, r19
    5c3c:	22 0f       	add	r18, r18
    5c3e:	33 1f       	adc	r19, r19
    5c40:	22 0f       	add	r18, r18
    5c42:	33 1f       	adc	r19, r19
    5c44:	82 0f       	add	r24, r18
    5c46:	93 1f       	adc	r25, r19
    5c48:	84 0f       	add	r24, r20
    5c4a:	95 1f       	adc	r25, r21
    5c4c:	fc 01       	movw	r30, r24
    5c4e:	eb 56       	subi	r30, 0x6B	; 107
    5c50:	fe 4f       	sbci	r31, 0xFE	; 254
    5c52:	90 81       	ld	r25, Z
    5c54:	86 2f       	mov	r24, r22
    5c56:	69 2f       	mov	r22, r25
    5c58:	40 e0       	ldi	r20, 0x00	; 0
    5c5a:	0e 94 18 17 	call	0x2e30	; 0x2e30 <DIO_enuSetPinVal>
    5c5e:	28 2f       	mov	r18, r24
    5c60:	30 e0       	ldi	r19, 0x00	; 0
    5c62:	8d 81       	ldd	r24, Y+5	; 0x05
    5c64:	8d 5f       	subi	r24, 0xFD	; 253
    5c66:	8d 83       	std	Y+5, r24	; 0x05
    5c68:	8d 81       	ldd	r24, Y+5	; 0x05
    5c6a:	88 2f       	mov	r24, r24
    5c6c:	90 e0       	ldi	r25, 0x00	; 0
    5c6e:	a9 01       	movw	r20, r18
    5c70:	02 c0       	rjmp	.+4      	; 0x5c76 <Seven_Sement_enuTurnOFF+0xafa>
    5c72:	44 0f       	add	r20, r20
    5c74:	55 1f       	adc	r21, r21
    5c76:	8a 95       	dec	r24
    5c78:	e2 f7       	brpl	.-8      	; 0x5c72 <Seven_Sement_enuTurnOFF+0xaf6>
    5c7a:	ca 01       	movw	r24, r20
    5c7c:	9c 01       	movw	r18, r24
    5c7e:	44 27       	eor	r20, r20
    5c80:	37 fd       	sbrc	r19, 7
    5c82:	40 95       	com	r20
    5c84:	54 2f       	mov	r21, r20
    5c86:	89 81       	ldd	r24, Y+1	; 0x01
    5c88:	9a 81       	ldd	r25, Y+2	; 0x02
    5c8a:	ab 81       	ldd	r26, Y+3	; 0x03
    5c8c:	bc 81       	ldd	r27, Y+4	; 0x04
    5c8e:	82 2b       	or	r24, r18
    5c90:	93 2b       	or	r25, r19
    5c92:	a4 2b       	or	r26, r20
    5c94:	b5 2b       	or	r27, r21
    5c96:	89 83       	std	Y+1, r24	; 0x01
    5c98:	9a 83       	std	Y+2, r25	; 0x02
    5c9a:	ab 83       	std	Y+3, r26	; 0x03
    5c9c:	bc 83       	std	Y+4, r27	; 0x04
			}
		}
		
		for(Local_u8Iterator_Error = 0; Local_u8Iterator_Error < sizeof(Local_u32CheckError)*8; Local_u8Iterator_Error += ERROR_STATE_SIZE)
    5c9e:	1d 82       	std	Y+5, r1	; 0x05
    5ca0:	1d c0       	rjmp	.+58     	; 0x5cdc <Seven_Sement_enuTurnOFF+0xb60>
		{
			if(((Local_u32CheckError >> Local_u8Iterator_Error) & ERROR_STATE_MASK) != ES_OK)
    5ca2:	8d 81       	ldd	r24, Y+5	; 0x05
    5ca4:	28 2f       	mov	r18, r24
    5ca6:	30 e0       	ldi	r19, 0x00	; 0
    5ca8:	89 81       	ldd	r24, Y+1	; 0x01
    5caa:	9a 81       	ldd	r25, Y+2	; 0x02
    5cac:	ab 81       	ldd	r26, Y+3	; 0x03
    5cae:	bc 81       	ldd	r27, Y+4	; 0x04
    5cb0:	02 2e       	mov	r0, r18
    5cb2:	04 c0       	rjmp	.+8      	; 0x5cbc <Seven_Sement_enuTurnOFF+0xb40>
    5cb4:	b6 95       	lsr	r27
    5cb6:	a7 95       	ror	r26
    5cb8:	97 95       	ror	r25
    5cba:	87 95       	ror	r24
    5cbc:	0a 94       	dec	r0
    5cbe:	d2 f7       	brpl	.-12     	; 0x5cb4 <Seven_Sement_enuTurnOFF+0xb38>
    5cc0:	87 70       	andi	r24, 0x07	; 7
    5cc2:	90 70       	andi	r25, 0x00	; 0
    5cc4:	a0 70       	andi	r26, 0x00	; 0
    5cc6:	b0 70       	andi	r27, 0x00	; 0
    5cc8:	00 97       	sbiw	r24, 0x00	; 0
    5cca:	a1 05       	cpc	r26, r1
    5ccc:	b1 05       	cpc	r27, r1
    5cce:	19 f0       	breq	.+6      	; 0x5cd6 <Seven_Sement_enuTurnOFF+0xb5a>
			{
				return ES_NOK;
    5cd0:	51 e0       	ldi	r21, 0x01	; 1
    5cd2:	58 87       	std	Y+8, r21	; 0x08
    5cd4:	0c c0       	rjmp	.+24     	; 0x5cee <Seven_Sement_enuTurnOFF+0xb72>
			{
				Local_u32CheckError |= (DIO_enuSetPinVal(SEV_SEG_AstrSEGConfig[Copy_SEG_ID].SEG_DOT_PORT, SEV_SEG_AstrSEGConfig[Copy_SEG_ID].SEG_DOT_PIN, DIO_u8LOW) << (Local_u8Iterator_Error += ERROR_STATE_SIZE));
			}
		}
		
		for(Local_u8Iterator_Error = 0; Local_u8Iterator_Error < sizeof(Local_u32CheckError)*8; Local_u8Iterator_Error += ERROR_STATE_SIZE)
    5cd6:	8d 81       	ldd	r24, Y+5	; 0x05
    5cd8:	8d 5f       	subi	r24, 0xFD	; 253
    5cda:	8d 83       	std	Y+5, r24	; 0x05
    5cdc:	8d 81       	ldd	r24, Y+5	; 0x05
    5cde:	80 32       	cpi	r24, 0x20	; 32
    5ce0:	00 f3       	brcs	.-64     	; 0x5ca2 <Seven_Sement_enuTurnOFF+0xb26>
			if(((Local_u32CheckError >> Local_u8Iterator_Error) & ERROR_STATE_MASK) != ES_OK)
			{
				return ES_NOK;
			}
		}
		Local_enuErrorState = ES_OK;
    5ce2:	1e 82       	std	Y+6, r1	; 0x06
    5ce4:	02 c0       	rjmp	.+4      	; 0x5cea <Seven_Sement_enuTurnOFF+0xb6e>
	}
	else
	{
		Local_enuErrorState = ES_OUT_OF_RANGE;
    5ce6:	83 e0       	ldi	r24, 0x03	; 3
    5ce8:	8e 83       	std	Y+6, r24	; 0x06
	}
	
	return Local_enuErrorState;
    5cea:	8e 81       	ldd	r24, Y+6	; 0x06
    5cec:	88 87       	std	Y+8, r24	; 0x08
    5cee:	88 85       	ldd	r24, Y+8	; 0x08
    5cf0:	28 96       	adiw	r28, 0x08	; 8
    5cf2:	0f b6       	in	r0, 0x3f	; 63
    5cf4:	f8 94       	cli
    5cf6:	de bf       	out	0x3e, r29	; 62
    5cf8:	0f be       	out	0x3f, r0	; 63
    5cfa:	cd bf       	out	0x3d, r28	; 61
    5cfc:	cf 91       	pop	r28
    5cfe:	df 91       	pop	r29
    5d00:	08 95       	ret

00005d02 <LED_enuINIT>:

#include "LED_priv.h"
#include "LED_config.h"

ES_t LED_enuINIT(LED_t *Copy_pAstrLedConfig)
{
    5d02:	df 93       	push	r29
    5d04:	cf 93       	push	r28
    5d06:	00 d0       	rcall	.+0      	; 0x5d08 <LED_enuINIT+0x6>
    5d08:	00 d0       	rcall	.+0      	; 0x5d0a <LED_enuINIT+0x8>
    5d0a:	cd b7       	in	r28, 0x3d	; 61
    5d0c:	de b7       	in	r29, 0x3e	; 62
    5d0e:	9c 83       	std	Y+4, r25	; 0x04
    5d10:	8b 83       	std	Y+3, r24	; 0x03
	ES_t Local_enuErrorState = ES_NOK;
    5d12:	81 e0       	ldi	r24, 0x01	; 1
    5d14:	8a 83       	std	Y+2, r24	; 0x02
	
	if(Copy_pAstrLedConfig != NULL)
    5d16:	8b 81       	ldd	r24, Y+3	; 0x03
    5d18:	9c 81       	ldd	r25, Y+4	; 0x04
    5d1a:	00 97       	sbiw	r24, 0x00	; 0
    5d1c:	09 f4       	brne	.+2      	; 0x5d20 <LED_enuINIT+0x1e>
    5d1e:	21 c1       	rjmp	.+578    	; 0x5f62 <LED_enuINIT+0x260>
	{
		u8 Local_u8Iterator;
		for(Local_u8Iterator = 0; Local_u8Iterator < LED_NUM; Local_u8Iterator++)
    5d20:	19 82       	std	Y+1, r1	; 0x01
    5d22:	1a c1       	rjmp	.+564    	; 0x5f58 <LED_enuINIT+0x256>
		{
			DIO_enuSetPinDirection(Copy_pAstrLedConfig[Local_u8Iterator].LED_u8PortID, Copy_pAstrLedConfig[Local_u8Iterator].LED_u8PinID, DIO_u8OUTPUT);
    5d24:	89 81       	ldd	r24, Y+1	; 0x01
    5d26:	88 2f       	mov	r24, r24
    5d28:	90 e0       	ldi	r25, 0x00	; 0
    5d2a:	9c 01       	movw	r18, r24
    5d2c:	22 0f       	add	r18, r18
    5d2e:	33 1f       	adc	r19, r19
    5d30:	22 0f       	add	r18, r18
    5d32:	33 1f       	adc	r19, r19
    5d34:	8b 81       	ldd	r24, Y+3	; 0x03
    5d36:	9c 81       	ldd	r25, Y+4	; 0x04
    5d38:	fc 01       	movw	r30, r24
    5d3a:	e2 0f       	add	r30, r18
    5d3c:	f3 1f       	adc	r31, r19
    5d3e:	40 81       	ld	r20, Z
    5d40:	89 81       	ldd	r24, Y+1	; 0x01
    5d42:	88 2f       	mov	r24, r24
    5d44:	90 e0       	ldi	r25, 0x00	; 0
    5d46:	9c 01       	movw	r18, r24
    5d48:	22 0f       	add	r18, r18
    5d4a:	33 1f       	adc	r19, r19
    5d4c:	22 0f       	add	r18, r18
    5d4e:	33 1f       	adc	r19, r19
    5d50:	8b 81       	ldd	r24, Y+3	; 0x03
    5d52:	9c 81       	ldd	r25, Y+4	; 0x04
    5d54:	fc 01       	movw	r30, r24
    5d56:	e2 0f       	add	r30, r18
    5d58:	f3 1f       	adc	r31, r19
    5d5a:	91 81       	ldd	r25, Z+1	; 0x01
    5d5c:	84 2f       	mov	r24, r20
    5d5e:	69 2f       	mov	r22, r25
    5d60:	41 e0       	ldi	r20, 0x01	; 1
    5d62:	0e 94 2c 16 	call	0x2c58	; 0x2c58 <DIO_enuSetPinDirection>
			if(Copy_pAstrLedConfig[Local_u8Iterator].LED_u8Connection == LED_u8SINK)
    5d66:	89 81       	ldd	r24, Y+1	; 0x01
    5d68:	88 2f       	mov	r24, r24
    5d6a:	90 e0       	ldi	r25, 0x00	; 0
    5d6c:	9c 01       	movw	r18, r24
    5d6e:	22 0f       	add	r18, r18
    5d70:	33 1f       	adc	r19, r19
    5d72:	22 0f       	add	r18, r18
    5d74:	33 1f       	adc	r19, r19
    5d76:	8b 81       	ldd	r24, Y+3	; 0x03
    5d78:	9c 81       	ldd	r25, Y+4	; 0x04
    5d7a:	fc 01       	movw	r30, r24
    5d7c:	e2 0f       	add	r30, r18
    5d7e:	f3 1f       	adc	r31, r19
    5d80:	82 81       	ldd	r24, Z+2	; 0x02
    5d82:	8c 30       	cpi	r24, 0x0C	; 12
    5d84:	09 f0       	breq	.+2      	; 0x5d88 <LED_enuINIT+0x86>
    5d86:	69 c0       	rjmp	.+210    	; 0x5e5a <LED_enuINIT+0x158>
			{
				if(Copy_pAstrLedConfig[Local_u8Iterator].LED_u8InitState == LED_u8ON)
    5d88:	89 81       	ldd	r24, Y+1	; 0x01
    5d8a:	88 2f       	mov	r24, r24
    5d8c:	90 e0       	ldi	r25, 0x00	; 0
    5d8e:	9c 01       	movw	r18, r24
    5d90:	22 0f       	add	r18, r18
    5d92:	33 1f       	adc	r19, r19
    5d94:	22 0f       	add	r18, r18
    5d96:	33 1f       	adc	r19, r19
    5d98:	8b 81       	ldd	r24, Y+3	; 0x03
    5d9a:	9c 81       	ldd	r25, Y+4	; 0x04
    5d9c:	fc 01       	movw	r30, r24
    5d9e:	e2 0f       	add	r30, r18
    5da0:	f3 1f       	adc	r31, r19
    5da2:	83 81       	ldd	r24, Z+3	; 0x03
    5da4:	8a 30       	cpi	r24, 0x0A	; 10
    5da6:	19 f5       	brne	.+70     	; 0x5dee <LED_enuINIT+0xec>
				{
					Local_enuErrorState = DIO_enuSetPinVal(Copy_pAstrLedConfig[Local_u8Iterator].LED_u8PortID, Copy_pAstrLedConfig[Local_u8Iterator].LED_u8PinID, DIO_u8LOW);
    5da8:	89 81       	ldd	r24, Y+1	; 0x01
    5daa:	88 2f       	mov	r24, r24
    5dac:	90 e0       	ldi	r25, 0x00	; 0
    5dae:	9c 01       	movw	r18, r24
    5db0:	22 0f       	add	r18, r18
    5db2:	33 1f       	adc	r19, r19
    5db4:	22 0f       	add	r18, r18
    5db6:	33 1f       	adc	r19, r19
    5db8:	8b 81       	ldd	r24, Y+3	; 0x03
    5dba:	9c 81       	ldd	r25, Y+4	; 0x04
    5dbc:	fc 01       	movw	r30, r24
    5dbe:	e2 0f       	add	r30, r18
    5dc0:	f3 1f       	adc	r31, r19
    5dc2:	40 81       	ld	r20, Z
    5dc4:	89 81       	ldd	r24, Y+1	; 0x01
    5dc6:	88 2f       	mov	r24, r24
    5dc8:	90 e0       	ldi	r25, 0x00	; 0
    5dca:	9c 01       	movw	r18, r24
    5dcc:	22 0f       	add	r18, r18
    5dce:	33 1f       	adc	r19, r19
    5dd0:	22 0f       	add	r18, r18
    5dd2:	33 1f       	adc	r19, r19
    5dd4:	8b 81       	ldd	r24, Y+3	; 0x03
    5dd6:	9c 81       	ldd	r25, Y+4	; 0x04
    5dd8:	fc 01       	movw	r30, r24
    5dda:	e2 0f       	add	r30, r18
    5ddc:	f3 1f       	adc	r31, r19
    5dde:	91 81       	ldd	r25, Z+1	; 0x01
    5de0:	84 2f       	mov	r24, r20
    5de2:	69 2f       	mov	r22, r25
    5de4:	40 e0       	ldi	r20, 0x00	; 0
    5de6:	0e 94 18 17 	call	0x2e30	; 0x2e30 <DIO_enuSetPinVal>
    5dea:	8a 83       	std	Y+2, r24	; 0x02
    5dec:	b2 c0       	rjmp	.+356    	; 0x5f52 <LED_enuINIT+0x250>
				}
				else if(Copy_pAstrLedConfig[Local_u8Iterator].LED_u8InitState == LED_u8OFF)
    5dee:	89 81       	ldd	r24, Y+1	; 0x01
    5df0:	88 2f       	mov	r24, r24
    5df2:	90 e0       	ldi	r25, 0x00	; 0
    5df4:	9c 01       	movw	r18, r24
    5df6:	22 0f       	add	r18, r18
    5df8:	33 1f       	adc	r19, r19
    5dfa:	22 0f       	add	r18, r18
    5dfc:	33 1f       	adc	r19, r19
    5dfe:	8b 81       	ldd	r24, Y+3	; 0x03
    5e00:	9c 81       	ldd	r25, Y+4	; 0x04
    5e02:	fc 01       	movw	r30, r24
    5e04:	e2 0f       	add	r30, r18
    5e06:	f3 1f       	adc	r31, r19
    5e08:	83 81       	ldd	r24, Z+3	; 0x03
    5e0a:	8b 30       	cpi	r24, 0x0B	; 11
    5e0c:	19 f5       	brne	.+70     	; 0x5e54 <LED_enuINIT+0x152>
				{
					Local_enuErrorState = DIO_enuSetPinVal(Copy_pAstrLedConfig[Local_u8Iterator].LED_u8PortID, Copy_pAstrLedConfig[Local_u8Iterator].LED_u8PinID, DIO_u8HIGH);
    5e0e:	89 81       	ldd	r24, Y+1	; 0x01
    5e10:	88 2f       	mov	r24, r24
    5e12:	90 e0       	ldi	r25, 0x00	; 0
    5e14:	9c 01       	movw	r18, r24
    5e16:	22 0f       	add	r18, r18
    5e18:	33 1f       	adc	r19, r19
    5e1a:	22 0f       	add	r18, r18
    5e1c:	33 1f       	adc	r19, r19
    5e1e:	8b 81       	ldd	r24, Y+3	; 0x03
    5e20:	9c 81       	ldd	r25, Y+4	; 0x04
    5e22:	fc 01       	movw	r30, r24
    5e24:	e2 0f       	add	r30, r18
    5e26:	f3 1f       	adc	r31, r19
    5e28:	40 81       	ld	r20, Z
    5e2a:	89 81       	ldd	r24, Y+1	; 0x01
    5e2c:	88 2f       	mov	r24, r24
    5e2e:	90 e0       	ldi	r25, 0x00	; 0
    5e30:	9c 01       	movw	r18, r24
    5e32:	22 0f       	add	r18, r18
    5e34:	33 1f       	adc	r19, r19
    5e36:	22 0f       	add	r18, r18
    5e38:	33 1f       	adc	r19, r19
    5e3a:	8b 81       	ldd	r24, Y+3	; 0x03
    5e3c:	9c 81       	ldd	r25, Y+4	; 0x04
    5e3e:	fc 01       	movw	r30, r24
    5e40:	e2 0f       	add	r30, r18
    5e42:	f3 1f       	adc	r31, r19
    5e44:	91 81       	ldd	r25, Z+1	; 0x01
    5e46:	84 2f       	mov	r24, r20
    5e48:	69 2f       	mov	r22, r25
    5e4a:	41 e0       	ldi	r20, 0x01	; 1
    5e4c:	0e 94 18 17 	call	0x2e30	; 0x2e30 <DIO_enuSetPinVal>
    5e50:	8a 83       	std	Y+2, r24	; 0x02
    5e52:	7f c0       	rjmp	.+254    	; 0x5f52 <LED_enuINIT+0x250>
				}
				else
				{
					Local_enuErrorState = ES_OUT_OF_RANGE;
    5e54:	83 e0       	ldi	r24, 0x03	; 3
    5e56:	8a 83       	std	Y+2, r24	; 0x02
    5e58:	7c c0       	rjmp	.+248    	; 0x5f52 <LED_enuINIT+0x250>
				}
			}
			else if(Copy_pAstrLedConfig[Local_u8Iterator].LED_u8Connection == LED_u8SOURCE)
    5e5a:	89 81       	ldd	r24, Y+1	; 0x01
    5e5c:	88 2f       	mov	r24, r24
    5e5e:	90 e0       	ldi	r25, 0x00	; 0
    5e60:	9c 01       	movw	r18, r24
    5e62:	22 0f       	add	r18, r18
    5e64:	33 1f       	adc	r19, r19
    5e66:	22 0f       	add	r18, r18
    5e68:	33 1f       	adc	r19, r19
    5e6a:	8b 81       	ldd	r24, Y+3	; 0x03
    5e6c:	9c 81       	ldd	r25, Y+4	; 0x04
    5e6e:	fc 01       	movw	r30, r24
    5e70:	e2 0f       	add	r30, r18
    5e72:	f3 1f       	adc	r31, r19
    5e74:	82 81       	ldd	r24, Z+2	; 0x02
    5e76:	8d 30       	cpi	r24, 0x0D	; 13
    5e78:	09 f0       	breq	.+2      	; 0x5e7c <LED_enuINIT+0x17a>
    5e7a:	69 c0       	rjmp	.+210    	; 0x5f4e <LED_enuINIT+0x24c>
			{
				if(Copy_pAstrLedConfig[Local_u8Iterator].LED_u8InitState == LED_u8ON)
    5e7c:	89 81       	ldd	r24, Y+1	; 0x01
    5e7e:	88 2f       	mov	r24, r24
    5e80:	90 e0       	ldi	r25, 0x00	; 0
    5e82:	9c 01       	movw	r18, r24
    5e84:	22 0f       	add	r18, r18
    5e86:	33 1f       	adc	r19, r19
    5e88:	22 0f       	add	r18, r18
    5e8a:	33 1f       	adc	r19, r19
    5e8c:	8b 81       	ldd	r24, Y+3	; 0x03
    5e8e:	9c 81       	ldd	r25, Y+4	; 0x04
    5e90:	fc 01       	movw	r30, r24
    5e92:	e2 0f       	add	r30, r18
    5e94:	f3 1f       	adc	r31, r19
    5e96:	83 81       	ldd	r24, Z+3	; 0x03
    5e98:	8a 30       	cpi	r24, 0x0A	; 10
    5e9a:	19 f5       	brne	.+70     	; 0x5ee2 <LED_enuINIT+0x1e0>
				{
					Local_enuErrorState = DIO_enuSetPinVal(Copy_pAstrLedConfig[Local_u8Iterator].LED_u8PortID, Copy_pAstrLedConfig[Local_u8Iterator].LED_u8PinID, DIO_u8HIGH);
    5e9c:	89 81       	ldd	r24, Y+1	; 0x01
    5e9e:	88 2f       	mov	r24, r24
    5ea0:	90 e0       	ldi	r25, 0x00	; 0
    5ea2:	9c 01       	movw	r18, r24
    5ea4:	22 0f       	add	r18, r18
    5ea6:	33 1f       	adc	r19, r19
    5ea8:	22 0f       	add	r18, r18
    5eaa:	33 1f       	adc	r19, r19
    5eac:	8b 81       	ldd	r24, Y+3	; 0x03
    5eae:	9c 81       	ldd	r25, Y+4	; 0x04
    5eb0:	fc 01       	movw	r30, r24
    5eb2:	e2 0f       	add	r30, r18
    5eb4:	f3 1f       	adc	r31, r19
    5eb6:	40 81       	ld	r20, Z
    5eb8:	89 81       	ldd	r24, Y+1	; 0x01
    5eba:	88 2f       	mov	r24, r24
    5ebc:	90 e0       	ldi	r25, 0x00	; 0
    5ebe:	9c 01       	movw	r18, r24
    5ec0:	22 0f       	add	r18, r18
    5ec2:	33 1f       	adc	r19, r19
    5ec4:	22 0f       	add	r18, r18
    5ec6:	33 1f       	adc	r19, r19
    5ec8:	8b 81       	ldd	r24, Y+3	; 0x03
    5eca:	9c 81       	ldd	r25, Y+4	; 0x04
    5ecc:	fc 01       	movw	r30, r24
    5ece:	e2 0f       	add	r30, r18
    5ed0:	f3 1f       	adc	r31, r19
    5ed2:	91 81       	ldd	r25, Z+1	; 0x01
    5ed4:	84 2f       	mov	r24, r20
    5ed6:	69 2f       	mov	r22, r25
    5ed8:	41 e0       	ldi	r20, 0x01	; 1
    5eda:	0e 94 18 17 	call	0x2e30	; 0x2e30 <DIO_enuSetPinVal>
    5ede:	8a 83       	std	Y+2, r24	; 0x02
    5ee0:	38 c0       	rjmp	.+112    	; 0x5f52 <LED_enuINIT+0x250>
				}
				else if(Copy_pAstrLedConfig[Local_u8Iterator].LED_u8InitState == LED_u8OFF)
    5ee2:	89 81       	ldd	r24, Y+1	; 0x01
    5ee4:	88 2f       	mov	r24, r24
    5ee6:	90 e0       	ldi	r25, 0x00	; 0
    5ee8:	9c 01       	movw	r18, r24
    5eea:	22 0f       	add	r18, r18
    5eec:	33 1f       	adc	r19, r19
    5eee:	22 0f       	add	r18, r18
    5ef0:	33 1f       	adc	r19, r19
    5ef2:	8b 81       	ldd	r24, Y+3	; 0x03
    5ef4:	9c 81       	ldd	r25, Y+4	; 0x04
    5ef6:	fc 01       	movw	r30, r24
    5ef8:	e2 0f       	add	r30, r18
    5efa:	f3 1f       	adc	r31, r19
    5efc:	83 81       	ldd	r24, Z+3	; 0x03
    5efe:	8b 30       	cpi	r24, 0x0B	; 11
    5f00:	19 f5       	brne	.+70     	; 0x5f48 <LED_enuINIT+0x246>
				{
					Local_enuErrorState = DIO_enuSetPinVal(Copy_pAstrLedConfig[Local_u8Iterator].LED_u8PortID, Copy_pAstrLedConfig[Local_u8Iterator].LED_u8PinID, DIO_u8LOW);
    5f02:	89 81       	ldd	r24, Y+1	; 0x01
    5f04:	88 2f       	mov	r24, r24
    5f06:	90 e0       	ldi	r25, 0x00	; 0
    5f08:	9c 01       	movw	r18, r24
    5f0a:	22 0f       	add	r18, r18
    5f0c:	33 1f       	adc	r19, r19
    5f0e:	22 0f       	add	r18, r18
    5f10:	33 1f       	adc	r19, r19
    5f12:	8b 81       	ldd	r24, Y+3	; 0x03
    5f14:	9c 81       	ldd	r25, Y+4	; 0x04
    5f16:	fc 01       	movw	r30, r24
    5f18:	e2 0f       	add	r30, r18
    5f1a:	f3 1f       	adc	r31, r19
    5f1c:	40 81       	ld	r20, Z
    5f1e:	89 81       	ldd	r24, Y+1	; 0x01
    5f20:	88 2f       	mov	r24, r24
    5f22:	90 e0       	ldi	r25, 0x00	; 0
    5f24:	9c 01       	movw	r18, r24
    5f26:	22 0f       	add	r18, r18
    5f28:	33 1f       	adc	r19, r19
    5f2a:	22 0f       	add	r18, r18
    5f2c:	33 1f       	adc	r19, r19
    5f2e:	8b 81       	ldd	r24, Y+3	; 0x03
    5f30:	9c 81       	ldd	r25, Y+4	; 0x04
    5f32:	fc 01       	movw	r30, r24
    5f34:	e2 0f       	add	r30, r18
    5f36:	f3 1f       	adc	r31, r19
    5f38:	91 81       	ldd	r25, Z+1	; 0x01
    5f3a:	84 2f       	mov	r24, r20
    5f3c:	69 2f       	mov	r22, r25
    5f3e:	40 e0       	ldi	r20, 0x00	; 0
    5f40:	0e 94 18 17 	call	0x2e30	; 0x2e30 <DIO_enuSetPinVal>
    5f44:	8a 83       	std	Y+2, r24	; 0x02
    5f46:	05 c0       	rjmp	.+10     	; 0x5f52 <LED_enuINIT+0x250>
				}
				else
				{
					Local_enuErrorState = ES_OUT_OF_RANGE;
    5f48:	83 e0       	ldi	r24, 0x03	; 3
    5f4a:	8a 83       	std	Y+2, r24	; 0x02
    5f4c:	02 c0       	rjmp	.+4      	; 0x5f52 <LED_enuINIT+0x250>
				}
			}
			else
			{
				Local_enuErrorState = ES_OUT_OF_RANGE;
    5f4e:	83 e0       	ldi	r24, 0x03	; 3
    5f50:	8a 83       	std	Y+2, r24	; 0x02
	ES_t Local_enuErrorState = ES_NOK;
	
	if(Copy_pAstrLedConfig != NULL)
	{
		u8 Local_u8Iterator;
		for(Local_u8Iterator = 0; Local_u8Iterator < LED_NUM; Local_u8Iterator++)
    5f52:	89 81       	ldd	r24, Y+1	; 0x01
    5f54:	8f 5f       	subi	r24, 0xFF	; 255
    5f56:	89 83       	std	Y+1, r24	; 0x01
    5f58:	89 81       	ldd	r24, Y+1	; 0x01
    5f5a:	88 30       	cpi	r24, 0x08	; 8
    5f5c:	08 f4       	brcc	.+2      	; 0x5f60 <LED_enuINIT+0x25e>
    5f5e:	e2 ce       	rjmp	.-572    	; 0x5d24 <LED_enuINIT+0x22>
    5f60:	02 c0       	rjmp	.+4      	; 0x5f66 <LED_enuINIT+0x264>
			}
		}
	}
	else
	{
		Local_enuErrorState = ES_NULL_POINTER;
    5f62:	82 e0       	ldi	r24, 0x02	; 2
    5f64:	8a 83       	std	Y+2, r24	; 0x02
	}
	
	return Local_enuErrorState;
    5f66:	8a 81       	ldd	r24, Y+2	; 0x02
}
    5f68:	0f 90       	pop	r0
    5f6a:	0f 90       	pop	r0
    5f6c:	0f 90       	pop	r0
    5f6e:	0f 90       	pop	r0
    5f70:	cf 91       	pop	r28
    5f72:	df 91       	pop	r29
    5f74:	08 95       	ret

00005f76 <LED_enuTurnON>:

ES_t LED_enuTurnON(LED_t *Copy_pstrLedID)
{
    5f76:	df 93       	push	r29
    5f78:	cf 93       	push	r28
    5f7a:	00 d0       	rcall	.+0      	; 0x5f7c <LED_enuTurnON+0x6>
    5f7c:	0f 92       	push	r0
    5f7e:	cd b7       	in	r28, 0x3d	; 61
    5f80:	de b7       	in	r29, 0x3e	; 62
    5f82:	9b 83       	std	Y+3, r25	; 0x03
    5f84:	8a 83       	std	Y+2, r24	; 0x02
	ES_t Local_enuErrorState = ES_NOK;
    5f86:	81 e0       	ldi	r24, 0x01	; 1
    5f88:	89 83       	std	Y+1, r24	; 0x01
	
	if(Copy_pstrLedID != NULL)
    5f8a:	8a 81       	ldd	r24, Y+2	; 0x02
    5f8c:	9b 81       	ldd	r25, Y+3	; 0x03
    5f8e:	00 97       	sbiw	r24, 0x00	; 0
    5f90:	79 f1       	breq	.+94     	; 0x5ff0 <LED_enuTurnON+0x7a>
	{
		DIO_enuSetPinDirection(Copy_pstrLedID->LED_u8PortID, Copy_pstrLedID->LED_u8PinID, DIO_u8OUTPUT);
    5f92:	ea 81       	ldd	r30, Y+2	; 0x02
    5f94:	fb 81       	ldd	r31, Y+3	; 0x03
    5f96:	80 81       	ld	r24, Z
    5f98:	ea 81       	ldd	r30, Y+2	; 0x02
    5f9a:	fb 81       	ldd	r31, Y+3	; 0x03
    5f9c:	91 81       	ldd	r25, Z+1	; 0x01
    5f9e:	69 2f       	mov	r22, r25
    5fa0:	41 e0       	ldi	r20, 0x01	; 1
    5fa2:	0e 94 2c 16 	call	0x2c58	; 0x2c58 <DIO_enuSetPinDirection>
		if(Copy_pstrLedID->LED_u8Connection == LED_u8SINK)
    5fa6:	ea 81       	ldd	r30, Y+2	; 0x02
    5fa8:	fb 81       	ldd	r31, Y+3	; 0x03
    5faa:	82 81       	ldd	r24, Z+2	; 0x02
    5fac:	8c 30       	cpi	r24, 0x0C	; 12
    5fae:	61 f4       	brne	.+24     	; 0x5fc8 <LED_enuTurnON+0x52>
		{
			Local_enuErrorState = DIO_enuSetPinVal(Copy_pstrLedID->LED_u8PortID, Copy_pstrLedID->LED_u8PinID, DIO_u8LOW);
    5fb0:	ea 81       	ldd	r30, Y+2	; 0x02
    5fb2:	fb 81       	ldd	r31, Y+3	; 0x03
    5fb4:	80 81       	ld	r24, Z
    5fb6:	ea 81       	ldd	r30, Y+2	; 0x02
    5fb8:	fb 81       	ldd	r31, Y+3	; 0x03
    5fba:	91 81       	ldd	r25, Z+1	; 0x01
    5fbc:	69 2f       	mov	r22, r25
    5fbe:	40 e0       	ldi	r20, 0x00	; 0
    5fc0:	0e 94 18 17 	call	0x2e30	; 0x2e30 <DIO_enuSetPinVal>
    5fc4:	89 83       	std	Y+1, r24	; 0x01
    5fc6:	16 c0       	rjmp	.+44     	; 0x5ff4 <LED_enuTurnON+0x7e>
		}
		else if(Copy_pstrLedID->LED_u8Connection == LED_u8SOURCE)
    5fc8:	ea 81       	ldd	r30, Y+2	; 0x02
    5fca:	fb 81       	ldd	r31, Y+3	; 0x03
    5fcc:	82 81       	ldd	r24, Z+2	; 0x02
    5fce:	8d 30       	cpi	r24, 0x0D	; 13
    5fd0:	61 f4       	brne	.+24     	; 0x5fea <LED_enuTurnON+0x74>
		{
			Local_enuErrorState = DIO_enuSetPinVal(Copy_pstrLedID->LED_u8PortID, Copy_pstrLedID->LED_u8PinID, DIO_u8HIGH);
    5fd2:	ea 81       	ldd	r30, Y+2	; 0x02
    5fd4:	fb 81       	ldd	r31, Y+3	; 0x03
    5fd6:	80 81       	ld	r24, Z
    5fd8:	ea 81       	ldd	r30, Y+2	; 0x02
    5fda:	fb 81       	ldd	r31, Y+3	; 0x03
    5fdc:	91 81       	ldd	r25, Z+1	; 0x01
    5fde:	69 2f       	mov	r22, r25
    5fe0:	41 e0       	ldi	r20, 0x01	; 1
    5fe2:	0e 94 18 17 	call	0x2e30	; 0x2e30 <DIO_enuSetPinVal>
    5fe6:	89 83       	std	Y+1, r24	; 0x01
    5fe8:	05 c0       	rjmp	.+10     	; 0x5ff4 <LED_enuTurnON+0x7e>
		}
		else
		{
			Local_enuErrorState = ES_OUT_OF_RANGE;
    5fea:	83 e0       	ldi	r24, 0x03	; 3
    5fec:	89 83       	std	Y+1, r24	; 0x01
    5fee:	02 c0       	rjmp	.+4      	; 0x5ff4 <LED_enuTurnON+0x7e>
		}
	}
	else
	{
		Local_enuErrorState = ES_NULL_POINTER;
    5ff0:	82 e0       	ldi	r24, 0x02	; 2
    5ff2:	89 83       	std	Y+1, r24	; 0x01
	}
	
	return Local_enuErrorState;
    5ff4:	89 81       	ldd	r24, Y+1	; 0x01
}
    5ff6:	0f 90       	pop	r0
    5ff8:	0f 90       	pop	r0
    5ffa:	0f 90       	pop	r0
    5ffc:	cf 91       	pop	r28
    5ffe:	df 91       	pop	r29
    6000:	08 95       	ret

00006002 <LED_enuTurnOFF>:

ES_t LED_enuTurnOFF(LED_t *Copy_pstrLedID)
{
    6002:	df 93       	push	r29
    6004:	cf 93       	push	r28
    6006:	00 d0       	rcall	.+0      	; 0x6008 <LED_enuTurnOFF+0x6>
    6008:	0f 92       	push	r0
    600a:	cd b7       	in	r28, 0x3d	; 61
    600c:	de b7       	in	r29, 0x3e	; 62
    600e:	9b 83       	std	Y+3, r25	; 0x03
    6010:	8a 83       	std	Y+2, r24	; 0x02
	ES_t Local_enuErrorState = ES_NOK;
    6012:	81 e0       	ldi	r24, 0x01	; 1
    6014:	89 83       	std	Y+1, r24	; 0x01
	
	if(Copy_pstrLedID != NULL)
    6016:	8a 81       	ldd	r24, Y+2	; 0x02
    6018:	9b 81       	ldd	r25, Y+3	; 0x03
    601a:	00 97       	sbiw	r24, 0x00	; 0
    601c:	79 f1       	breq	.+94     	; 0x607c <LED_enuTurnOFF+0x7a>
	{
		DIO_enuSetPinDirection(Copy_pstrLedID->LED_u8PortID, Copy_pstrLedID->LED_u8PinID, DIO_u8OUTPUT);
    601e:	ea 81       	ldd	r30, Y+2	; 0x02
    6020:	fb 81       	ldd	r31, Y+3	; 0x03
    6022:	80 81       	ld	r24, Z
    6024:	ea 81       	ldd	r30, Y+2	; 0x02
    6026:	fb 81       	ldd	r31, Y+3	; 0x03
    6028:	91 81       	ldd	r25, Z+1	; 0x01
    602a:	69 2f       	mov	r22, r25
    602c:	41 e0       	ldi	r20, 0x01	; 1
    602e:	0e 94 2c 16 	call	0x2c58	; 0x2c58 <DIO_enuSetPinDirection>
		if(Copy_pstrLedID->LED_u8Connection == LED_u8SINK)
    6032:	ea 81       	ldd	r30, Y+2	; 0x02
    6034:	fb 81       	ldd	r31, Y+3	; 0x03
    6036:	82 81       	ldd	r24, Z+2	; 0x02
    6038:	8c 30       	cpi	r24, 0x0C	; 12
    603a:	61 f4       	brne	.+24     	; 0x6054 <LED_enuTurnOFF+0x52>
		{
			Local_enuErrorState = DIO_enuSetPinVal(Copy_pstrLedID->LED_u8PortID, Copy_pstrLedID->LED_u8PinID, DIO_u8HIGH);
    603c:	ea 81       	ldd	r30, Y+2	; 0x02
    603e:	fb 81       	ldd	r31, Y+3	; 0x03
    6040:	80 81       	ld	r24, Z
    6042:	ea 81       	ldd	r30, Y+2	; 0x02
    6044:	fb 81       	ldd	r31, Y+3	; 0x03
    6046:	91 81       	ldd	r25, Z+1	; 0x01
    6048:	69 2f       	mov	r22, r25
    604a:	41 e0       	ldi	r20, 0x01	; 1
    604c:	0e 94 18 17 	call	0x2e30	; 0x2e30 <DIO_enuSetPinVal>
    6050:	89 83       	std	Y+1, r24	; 0x01
    6052:	16 c0       	rjmp	.+44     	; 0x6080 <LED_enuTurnOFF+0x7e>
		}
		else if(Copy_pstrLedID->LED_u8Connection == LED_u8SOURCE)
    6054:	ea 81       	ldd	r30, Y+2	; 0x02
    6056:	fb 81       	ldd	r31, Y+3	; 0x03
    6058:	82 81       	ldd	r24, Z+2	; 0x02
    605a:	8d 30       	cpi	r24, 0x0D	; 13
    605c:	61 f4       	brne	.+24     	; 0x6076 <LED_enuTurnOFF+0x74>
		{
			Local_enuErrorState = DIO_enuSetPinVal(Copy_pstrLedID->LED_u8PortID, Copy_pstrLedID->LED_u8PinID, DIO_u8LOW);
    605e:	ea 81       	ldd	r30, Y+2	; 0x02
    6060:	fb 81       	ldd	r31, Y+3	; 0x03
    6062:	80 81       	ld	r24, Z
    6064:	ea 81       	ldd	r30, Y+2	; 0x02
    6066:	fb 81       	ldd	r31, Y+3	; 0x03
    6068:	91 81       	ldd	r25, Z+1	; 0x01
    606a:	69 2f       	mov	r22, r25
    606c:	40 e0       	ldi	r20, 0x00	; 0
    606e:	0e 94 18 17 	call	0x2e30	; 0x2e30 <DIO_enuSetPinVal>
    6072:	89 83       	std	Y+1, r24	; 0x01
    6074:	05 c0       	rjmp	.+10     	; 0x6080 <LED_enuTurnOFF+0x7e>
		}
		else
		{
			Local_enuErrorState = ES_OUT_OF_RANGE;
    6076:	83 e0       	ldi	r24, 0x03	; 3
    6078:	89 83       	std	Y+1, r24	; 0x01
    607a:	02 c0       	rjmp	.+4      	; 0x6080 <LED_enuTurnOFF+0x7e>
		}
	}
	else
	{
		Local_enuErrorState = ES_NULL_POINTER;
    607c:	82 e0       	ldi	r24, 0x02	; 2
    607e:	89 83       	std	Y+1, r24	; 0x01
	}
	
	return Local_enuErrorState;
    6080:	89 81       	ldd	r24, Y+1	; 0x01
}
    6082:	0f 90       	pop	r0
    6084:	0f 90       	pop	r0
    6086:	0f 90       	pop	r0
    6088:	cf 91       	pop	r28
    608a:	df 91       	pop	r29
    608c:	08 95       	ret

0000608e <LCD_enuInit>:
 * @retval		: ES_t --> it returns the state of excution of this function
 * @note		: none
 ******************************************************************************
**/
ES_t LCD_enuInit(void)
{
    608e:	0f 93       	push	r16
    6090:	1f 93       	push	r17
    6092:	df 93       	push	r29
    6094:	cf 93       	push	r28
    6096:	cd b7       	in	r28, 0x3d	; 61
    6098:	de b7       	in	r29, 0x3e	; 62
    609a:	c8 54       	subi	r28, 0x48	; 72
    609c:	d0 40       	sbci	r29, 0x00	; 0
    609e:	0f b6       	in	r0, 0x3f	; 63
    60a0:	f8 94       	cli
    60a2:	de bf       	out	0x3e, r29	; 62
    60a4:	0f be       	out	0x3f, r0	; 63
    60a6:	cd bf       	out	0x3d, r28	; 61
	ES_t Local_enuErrorState = ES_NOK;
    60a8:	fe 01       	movw	r30, r28
    60aa:	e9 5b       	subi	r30, 0xB9	; 185
    60ac:	ff 4f       	sbci	r31, 0xFF	; 255
    60ae:	81 e0       	ldi	r24, 0x01	; 1
    60b0:	80 83       	st	Z, r24
	
	/* Set Control Pins as output */
	Local_enuErrorState = DIO_enuSetPinDirection(RS_PORT, RS_PIN, DIO_u8OUTPUT);
    60b2:	80 e0       	ldi	r24, 0x00	; 0
    60b4:	60 e0       	ldi	r22, 0x00	; 0
    60b6:	41 e0       	ldi	r20, 0x01	; 1
    60b8:	0e 94 2c 16 	call	0x2c58	; 0x2c58 <DIO_enuSetPinDirection>
    60bc:	fe 01       	movw	r30, r28
    60be:	e9 5b       	subi	r30, 0xB9	; 185
    60c0:	ff 4f       	sbci	r31, 0xFF	; 255
    60c2:	80 83       	st	Z, r24
	if(Local_enuErrorState != ES_OK)
    60c4:	fe 01       	movw	r30, r28
    60c6:	e9 5b       	subi	r30, 0xB9	; 185
    60c8:	ff 4f       	sbci	r31, 0xFF	; 255
    60ca:	80 81       	ld	r24, Z
    60cc:	88 23       	and	r24, r24
    60ce:	41 f0       	breq	.+16     	; 0x60e0 <LCD_enuInit+0x52>
		return Local_enuErrorState;
    60d0:	fe 01       	movw	r30, r28
    60d2:	e9 5b       	subi	r30, 0xB9	; 185
    60d4:	ff 4f       	sbci	r31, 0xFF	; 255
    60d6:	80 81       	ld	r24, Z
    60d8:	29 96       	adiw	r28, 0x09	; 9
    60da:	8f af       	std	Y+63, r24	; 0x3f
    60dc:	29 97       	sbiw	r28, 0x09	; 9
    60de:	92 c3       	rjmp	.+1828   	; 0x6804 <LCD_enuInit+0x776>
	
	Local_enuErrorState = DIO_enuSetPinDirection(RW_PORT, RW_PIN, DIO_u8OUTPUT);
    60e0:	80 e0       	ldi	r24, 0x00	; 0
    60e2:	61 e0       	ldi	r22, 0x01	; 1
    60e4:	41 e0       	ldi	r20, 0x01	; 1
    60e6:	0e 94 2c 16 	call	0x2c58	; 0x2c58 <DIO_enuSetPinDirection>
    60ea:	fe 01       	movw	r30, r28
    60ec:	e9 5b       	subi	r30, 0xB9	; 185
    60ee:	ff 4f       	sbci	r31, 0xFF	; 255
    60f0:	80 83       	st	Z, r24
	if(Local_enuErrorState != ES_OK)
    60f2:	fe 01       	movw	r30, r28
    60f4:	e9 5b       	subi	r30, 0xB9	; 185
    60f6:	ff 4f       	sbci	r31, 0xFF	; 255
    60f8:	80 81       	ld	r24, Z
    60fa:	88 23       	and	r24, r24
    60fc:	41 f0       	breq	.+16     	; 0x610e <LCD_enuInit+0x80>
		return Local_enuErrorState;
    60fe:	fe 01       	movw	r30, r28
    6100:	e9 5b       	subi	r30, 0xB9	; 185
    6102:	ff 4f       	sbci	r31, 0xFF	; 255
    6104:	80 81       	ld	r24, Z
    6106:	29 96       	adiw	r28, 0x09	; 9
    6108:	8f af       	std	Y+63, r24	; 0x3f
    610a:	29 97       	sbiw	r28, 0x09	; 9
    610c:	7b c3       	rjmp	.+1782   	; 0x6804 <LCD_enuInit+0x776>
		
	Local_enuErrorState = DIO_enuSetPinDirection(EN_PORT, EN_PIN, DIO_u8OUTPUT);
    610e:	80 e0       	ldi	r24, 0x00	; 0
    6110:	62 e0       	ldi	r22, 0x02	; 2
    6112:	41 e0       	ldi	r20, 0x01	; 1
    6114:	0e 94 2c 16 	call	0x2c58	; 0x2c58 <DIO_enuSetPinDirection>
    6118:	fe 01       	movw	r30, r28
    611a:	e9 5b       	subi	r30, 0xB9	; 185
    611c:	ff 4f       	sbci	r31, 0xFF	; 255
    611e:	80 83       	st	Z, r24
	if(Local_enuErrorState != ES_OK)
    6120:	fe 01       	movw	r30, r28
    6122:	e9 5b       	subi	r30, 0xB9	; 185
    6124:	ff 4f       	sbci	r31, 0xFF	; 255
    6126:	80 81       	ld	r24, Z
    6128:	88 23       	and	r24, r24
    612a:	41 f0       	breq	.+16     	; 0x613c <LCD_enuInit+0xae>
		return Local_enuErrorState;
    612c:	fe 01       	movw	r30, r28
    612e:	e9 5b       	subi	r30, 0xB9	; 185
    6130:	ff 4f       	sbci	r31, 0xFF	; 255
    6132:	80 81       	ld	r24, Z
    6134:	29 96       	adiw	r28, 0x09	; 9
    6136:	8f af       	std	Y+63, r24	; 0x3f
    6138:	29 97       	sbiw	r28, 0x09	; 9
    613a:	64 c3       	rjmp	.+1736   	; 0x6804 <LCD_enuInit+0x776>
	
	/* Set Data Pins as output */
	Local_enuErrorState = DIO_enuSetPinDirection(D7_PORT, D7_PIN, DIO_u8OUTPUT);
    613c:	81 e0       	ldi	r24, 0x01	; 1
    613e:	67 e0       	ldi	r22, 0x07	; 7
    6140:	41 e0       	ldi	r20, 0x01	; 1
    6142:	0e 94 2c 16 	call	0x2c58	; 0x2c58 <DIO_enuSetPinDirection>
    6146:	fe 01       	movw	r30, r28
    6148:	e9 5b       	subi	r30, 0xB9	; 185
    614a:	ff 4f       	sbci	r31, 0xFF	; 255
    614c:	80 83       	st	Z, r24
	if(Local_enuErrorState != ES_OK)
    614e:	fe 01       	movw	r30, r28
    6150:	e9 5b       	subi	r30, 0xB9	; 185
    6152:	ff 4f       	sbci	r31, 0xFF	; 255
    6154:	80 81       	ld	r24, Z
    6156:	88 23       	and	r24, r24
    6158:	41 f0       	breq	.+16     	; 0x616a <LCD_enuInit+0xdc>
		return Local_enuErrorState;
    615a:	fe 01       	movw	r30, r28
    615c:	e9 5b       	subi	r30, 0xB9	; 185
    615e:	ff 4f       	sbci	r31, 0xFF	; 255
    6160:	80 81       	ld	r24, Z
    6162:	29 96       	adiw	r28, 0x09	; 9
    6164:	8f af       	std	Y+63, r24	; 0x3f
    6166:	29 97       	sbiw	r28, 0x09	; 9
    6168:	4d c3       	rjmp	.+1690   	; 0x6804 <LCD_enuInit+0x776>
		
	Local_enuErrorState = DIO_enuSetPinDirection(D6_PORT, D6_PIN, DIO_u8OUTPUT);
    616a:	81 e0       	ldi	r24, 0x01	; 1
    616c:	66 e0       	ldi	r22, 0x06	; 6
    616e:	41 e0       	ldi	r20, 0x01	; 1
    6170:	0e 94 2c 16 	call	0x2c58	; 0x2c58 <DIO_enuSetPinDirection>
    6174:	fe 01       	movw	r30, r28
    6176:	e9 5b       	subi	r30, 0xB9	; 185
    6178:	ff 4f       	sbci	r31, 0xFF	; 255
    617a:	80 83       	st	Z, r24
	if(Local_enuErrorState != ES_OK)
    617c:	fe 01       	movw	r30, r28
    617e:	e9 5b       	subi	r30, 0xB9	; 185
    6180:	ff 4f       	sbci	r31, 0xFF	; 255
    6182:	80 81       	ld	r24, Z
    6184:	88 23       	and	r24, r24
    6186:	41 f0       	breq	.+16     	; 0x6198 <LCD_enuInit+0x10a>
		return Local_enuErrorState;
    6188:	fe 01       	movw	r30, r28
    618a:	e9 5b       	subi	r30, 0xB9	; 185
    618c:	ff 4f       	sbci	r31, 0xFF	; 255
    618e:	80 81       	ld	r24, Z
    6190:	29 96       	adiw	r28, 0x09	; 9
    6192:	8f af       	std	Y+63, r24	; 0x3f
    6194:	29 97       	sbiw	r28, 0x09	; 9
    6196:	36 c3       	rjmp	.+1644   	; 0x6804 <LCD_enuInit+0x776>
		
	Local_enuErrorState = DIO_enuSetPinDirection(D5_PORT, D5_PIN, DIO_u8OUTPUT);
    6198:	81 e0       	ldi	r24, 0x01	; 1
    619a:	65 e0       	ldi	r22, 0x05	; 5
    619c:	41 e0       	ldi	r20, 0x01	; 1
    619e:	0e 94 2c 16 	call	0x2c58	; 0x2c58 <DIO_enuSetPinDirection>
    61a2:	fe 01       	movw	r30, r28
    61a4:	e9 5b       	subi	r30, 0xB9	; 185
    61a6:	ff 4f       	sbci	r31, 0xFF	; 255
    61a8:	80 83       	st	Z, r24
	if(Local_enuErrorState != ES_OK)
    61aa:	fe 01       	movw	r30, r28
    61ac:	e9 5b       	subi	r30, 0xB9	; 185
    61ae:	ff 4f       	sbci	r31, 0xFF	; 255
    61b0:	80 81       	ld	r24, Z
    61b2:	88 23       	and	r24, r24
    61b4:	41 f0       	breq	.+16     	; 0x61c6 <LCD_enuInit+0x138>
		return Local_enuErrorState;
    61b6:	fe 01       	movw	r30, r28
    61b8:	e9 5b       	subi	r30, 0xB9	; 185
    61ba:	ff 4f       	sbci	r31, 0xFF	; 255
    61bc:	80 81       	ld	r24, Z
    61be:	29 96       	adiw	r28, 0x09	; 9
    61c0:	8f af       	std	Y+63, r24	; 0x3f
    61c2:	29 97       	sbiw	r28, 0x09	; 9
    61c4:	1f c3       	rjmp	.+1598   	; 0x6804 <LCD_enuInit+0x776>
	Local_enuErrorState = DIO_enuSetPinDirection(D4_PORT, D4_PIN, DIO_u8OUTPUT);
    61c6:	81 e0       	ldi	r24, 0x01	; 1
    61c8:	64 e0       	ldi	r22, 0x04	; 4
    61ca:	41 e0       	ldi	r20, 0x01	; 1
    61cc:	0e 94 2c 16 	call	0x2c58	; 0x2c58 <DIO_enuSetPinDirection>
    61d0:	fe 01       	movw	r30, r28
    61d2:	e9 5b       	subi	r30, 0xB9	; 185
    61d4:	ff 4f       	sbci	r31, 0xFF	; 255
    61d6:	80 83       	st	Z, r24
	if(Local_enuErrorState != ES_OK)
    61d8:	fe 01       	movw	r30, r28
    61da:	e9 5b       	subi	r30, 0xB9	; 185
    61dc:	ff 4f       	sbci	r31, 0xFF	; 255
    61de:	80 81       	ld	r24, Z
    61e0:	88 23       	and	r24, r24
    61e2:	41 f0       	breq	.+16     	; 0x61f4 <LCD_enuInit+0x166>
		return Local_enuErrorState;
    61e4:	fe 01       	movw	r30, r28
    61e6:	e9 5b       	subi	r30, 0xB9	; 185
    61e8:	ff 4f       	sbci	r31, 0xFF	; 255
    61ea:	80 81       	ld	r24, Z
    61ec:	29 96       	adiw	r28, 0x09	; 9
    61ee:	8f af       	std	Y+63, r24	; 0x3f
    61f0:	29 97       	sbiw	r28, 0x09	; 9
    61f2:	08 c3       	rjmp	.+1552   	; 0x6804 <LCD_enuInit+0x776>
    61f4:	fe 01       	movw	r30, r28
    61f6:	ed 5b       	subi	r30, 0xBD	; 189
    61f8:	ff 4f       	sbci	r31, 0xFF	; 255
    61fa:	80 e0       	ldi	r24, 0x00	; 0
    61fc:	90 e0       	ldi	r25, 0x00	; 0
    61fe:	ac e0       	ldi	r26, 0x0C	; 12
    6200:	b2 e4       	ldi	r27, 0x42	; 66
    6202:	80 83       	st	Z, r24
    6204:	91 83       	std	Z+1, r25	; 0x01
    6206:	a2 83       	std	Z+2, r26	; 0x02
    6208:	b3 83       	std	Z+3, r27	; 0x03
 */
void
_delay_ms(double __ms)
{
	uint16_t __ticks;
	double __tmp = ((F_CPU) / 4e3) * __ms;
    620a:	8e 01       	movw	r16, r28
    620c:	01 5c       	subi	r16, 0xC1	; 193
    620e:	1f 4f       	sbci	r17, 0xFF	; 255
    6210:	fe 01       	movw	r30, r28
    6212:	ed 5b       	subi	r30, 0xBD	; 189
    6214:	ff 4f       	sbci	r31, 0xFF	; 255
    6216:	60 81       	ld	r22, Z
    6218:	71 81       	ldd	r23, Z+1	; 0x01
    621a:	82 81       	ldd	r24, Z+2	; 0x02
    621c:	93 81       	ldd	r25, Z+3	; 0x03
    621e:	20 e0       	ldi	r18, 0x00	; 0
    6220:	30 e0       	ldi	r19, 0x00	; 0
    6222:	4a e7       	ldi	r20, 0x7A	; 122
    6224:	53 e4       	ldi	r21, 0x43	; 67
    6226:	0e 94 1f 02 	call	0x43e	; 0x43e <__mulsf3>
    622a:	dc 01       	movw	r26, r24
    622c:	cb 01       	movw	r24, r22
    622e:	f8 01       	movw	r30, r16
    6230:	80 83       	st	Z, r24
    6232:	91 83       	std	Z+1, r25	; 0x01
    6234:	a2 83       	std	Z+2, r26	; 0x02
    6236:	b3 83       	std	Z+3, r27	; 0x03
	if (__tmp < 1.0)
    6238:	fe 01       	movw	r30, r28
    623a:	ff 96       	adiw	r30, 0x3f	; 63
    623c:	60 81       	ld	r22, Z
    623e:	71 81       	ldd	r23, Z+1	; 0x01
    6240:	82 81       	ldd	r24, Z+2	; 0x02
    6242:	93 81       	ldd	r25, Z+3	; 0x03
    6244:	20 e0       	ldi	r18, 0x00	; 0
    6246:	30 e0       	ldi	r19, 0x00	; 0
    6248:	40 e8       	ldi	r20, 0x80	; 128
    624a:	5f e3       	ldi	r21, 0x3F	; 63
    624c:	0e 94 55 04 	call	0x8aa	; 0x8aa <__ltsf2>
    6250:	88 23       	and	r24, r24
    6252:	2c f4       	brge	.+10     	; 0x625e <LCD_enuInit+0x1d0>
		__ticks = 1;
    6254:	81 e0       	ldi	r24, 0x01	; 1
    6256:	90 e0       	ldi	r25, 0x00	; 0
    6258:	9e af       	std	Y+62, r25	; 0x3e
    625a:	8d af       	std	Y+61, r24	; 0x3d
    625c:	46 c0       	rjmp	.+140    	; 0x62ea <LCD_enuInit+0x25c>
	else if (__tmp > 65535)
    625e:	fe 01       	movw	r30, r28
    6260:	ff 96       	adiw	r30, 0x3f	; 63
    6262:	60 81       	ld	r22, Z
    6264:	71 81       	ldd	r23, Z+1	; 0x01
    6266:	82 81       	ldd	r24, Z+2	; 0x02
    6268:	93 81       	ldd	r25, Z+3	; 0x03
    626a:	20 e0       	ldi	r18, 0x00	; 0
    626c:	3f ef       	ldi	r19, 0xFF	; 255
    626e:	4f e7       	ldi	r20, 0x7F	; 127
    6270:	57 e4       	ldi	r21, 0x47	; 71
    6272:	0e 94 f5 03 	call	0x7ea	; 0x7ea <__gtsf2>
    6276:	18 16       	cp	r1, r24
    6278:	64 f5       	brge	.+88     	; 0x62d2 <LCD_enuInit+0x244>
	{
		//	__ticks = requested delay in 1/10 ms
		__ticks = (uint16_t) (__ms * 10.0);
    627a:	fe 01       	movw	r30, r28
    627c:	ed 5b       	subi	r30, 0xBD	; 189
    627e:	ff 4f       	sbci	r31, 0xFF	; 255
    6280:	60 81       	ld	r22, Z
    6282:	71 81       	ldd	r23, Z+1	; 0x01
    6284:	82 81       	ldd	r24, Z+2	; 0x02
    6286:	93 81       	ldd	r25, Z+3	; 0x03
    6288:	20 e0       	ldi	r18, 0x00	; 0
    628a:	30 e0       	ldi	r19, 0x00	; 0
    628c:	40 e2       	ldi	r20, 0x20	; 32
    628e:	51 e4       	ldi	r21, 0x41	; 65
    6290:	0e 94 1f 02 	call	0x43e	; 0x43e <__mulsf3>
    6294:	dc 01       	movw	r26, r24
    6296:	cb 01       	movw	r24, r22
    6298:	bc 01       	movw	r22, r24
    629a:	cd 01       	movw	r24, r26
    629c:	0e 94 49 00 	call	0x92	; 0x92 <__fixunssfsi>
    62a0:	dc 01       	movw	r26, r24
    62a2:	cb 01       	movw	r24, r22
    62a4:	9e af       	std	Y+62, r25	; 0x3e
    62a6:	8d af       	std	Y+61, r24	; 0x3d
    62a8:	0f c0       	rjmp	.+30     	; 0x62c8 <LCD_enuInit+0x23a>
    62aa:	89 e1       	ldi	r24, 0x19	; 25
    62ac:	90 e0       	ldi	r25, 0x00	; 0
    62ae:	9c af       	std	Y+60, r25	; 0x3c
    62b0:	8b af       	std	Y+59, r24	; 0x3b
    milliseconds can be achieved.
 */
void
_delay_loop_2(uint16_t __count)
{
	__asm__ volatile (
    62b2:	8b ad       	ldd	r24, Y+59	; 0x3b
    62b4:	9c ad       	ldd	r25, Y+60	; 0x3c
    62b6:	01 97       	sbiw	r24, 0x01	; 1
    62b8:	f1 f7       	brne	.-4      	; 0x62b6 <LCD_enuInit+0x228>
    62ba:	9c af       	std	Y+60, r25	; 0x3c
    62bc:	8b af       	std	Y+59, r24	; 0x3b
		while(__ticks)
		{
			// wait 1/10 ms
			_delay_loop_2(((F_CPU) / 4e3) / 10);
			__ticks --;
    62be:	8d ad       	ldd	r24, Y+61	; 0x3d
    62c0:	9e ad       	ldd	r25, Y+62	; 0x3e
    62c2:	01 97       	sbiw	r24, 0x01	; 1
    62c4:	9e af       	std	Y+62, r25	; 0x3e
    62c6:	8d af       	std	Y+61, r24	; 0x3d
		__ticks = 1;
	else if (__tmp > 65535)
	{
		//	__ticks = requested delay in 1/10 ms
		__ticks = (uint16_t) (__ms * 10.0);
		while(__ticks)
    62c8:	8d ad       	ldd	r24, Y+61	; 0x3d
    62ca:	9e ad       	ldd	r25, Y+62	; 0x3e
    62cc:	00 97       	sbiw	r24, 0x00	; 0
    62ce:	69 f7       	brne	.-38     	; 0x62aa <LCD_enuInit+0x21c>
    62d0:	16 c0       	rjmp	.+44     	; 0x62fe <LCD_enuInit+0x270>
			__ticks --;
		}
		return;
	}
	else
		__ticks = (uint16_t)__tmp;
    62d2:	fe 01       	movw	r30, r28
    62d4:	ff 96       	adiw	r30, 0x3f	; 63
    62d6:	60 81       	ld	r22, Z
    62d8:	71 81       	ldd	r23, Z+1	; 0x01
    62da:	82 81       	ldd	r24, Z+2	; 0x02
    62dc:	93 81       	ldd	r25, Z+3	; 0x03
    62de:	0e 94 49 00 	call	0x92	; 0x92 <__fixunssfsi>
    62e2:	dc 01       	movw	r26, r24
    62e4:	cb 01       	movw	r24, r22
    62e6:	9e af       	std	Y+62, r25	; 0x3e
    62e8:	8d af       	std	Y+61, r24	; 0x3d
    62ea:	8d ad       	ldd	r24, Y+61	; 0x3d
    62ec:	9e ad       	ldd	r25, Y+62	; 0x3e
    62ee:	9a af       	std	Y+58, r25	; 0x3a
    62f0:	89 af       	std	Y+57, r24	; 0x39
    62f2:	89 ad       	ldd	r24, Y+57	; 0x39
    62f4:	9a ad       	ldd	r25, Y+58	; 0x3a
    62f6:	01 97       	sbiw	r24, 0x01	; 1
    62f8:	f1 f7       	brne	.-4      	; 0x62f6 <LCD_enuInit+0x268>
    62fa:	9a af       	std	Y+58, r25	; 0x3a
    62fc:	89 af       	std	Y+57, r24	; 0x39
	
	_delay_ms(35);
	
	#if LCD_MODE == EIGHT_BIT
	Local_enuErrorState = DIO_enuSetPinDirection(D3_PORT, D3_PIN, DIO_u8OUTPUT);
    62fe:	81 e0       	ldi	r24, 0x01	; 1
    6300:	63 e0       	ldi	r22, 0x03	; 3
    6302:	41 e0       	ldi	r20, 0x01	; 1
    6304:	0e 94 2c 16 	call	0x2c58	; 0x2c58 <DIO_enuSetPinDirection>
    6308:	fe 01       	movw	r30, r28
    630a:	e9 5b       	subi	r30, 0xB9	; 185
    630c:	ff 4f       	sbci	r31, 0xFF	; 255
    630e:	80 83       	st	Z, r24
	if(Local_enuErrorState != ES_OK)
    6310:	fe 01       	movw	r30, r28
    6312:	e9 5b       	subi	r30, 0xB9	; 185
    6314:	ff 4f       	sbci	r31, 0xFF	; 255
    6316:	80 81       	ld	r24, Z
    6318:	88 23       	and	r24, r24
    631a:	41 f0       	breq	.+16     	; 0x632c <LCD_enuInit+0x29e>
		return Local_enuErrorState;
    631c:	fe 01       	movw	r30, r28
    631e:	e9 5b       	subi	r30, 0xB9	; 185
    6320:	ff 4f       	sbci	r31, 0xFF	; 255
    6322:	80 81       	ld	r24, Z
    6324:	29 96       	adiw	r28, 0x09	; 9
    6326:	8f af       	std	Y+63, r24	; 0x3f
    6328:	29 97       	sbiw	r28, 0x09	; 9
    632a:	6c c2       	rjmp	.+1240   	; 0x6804 <LCD_enuInit+0x776>
	
	Local_enuErrorState = DIO_enuSetPinDirection(D2_PORT, D2_PIN, DIO_u8OUTPUT);
    632c:	81 e0       	ldi	r24, 0x01	; 1
    632e:	62 e0       	ldi	r22, 0x02	; 2
    6330:	41 e0       	ldi	r20, 0x01	; 1
    6332:	0e 94 2c 16 	call	0x2c58	; 0x2c58 <DIO_enuSetPinDirection>
    6336:	fe 01       	movw	r30, r28
    6338:	e9 5b       	subi	r30, 0xB9	; 185
    633a:	ff 4f       	sbci	r31, 0xFF	; 255
    633c:	80 83       	st	Z, r24
	if(Local_enuErrorState != ES_OK)
    633e:	fe 01       	movw	r30, r28
    6340:	e9 5b       	subi	r30, 0xB9	; 185
    6342:	ff 4f       	sbci	r31, 0xFF	; 255
    6344:	80 81       	ld	r24, Z
    6346:	88 23       	and	r24, r24
    6348:	41 f0       	breq	.+16     	; 0x635a <LCD_enuInit+0x2cc>
		return Local_enuErrorState;
    634a:	fe 01       	movw	r30, r28
    634c:	e9 5b       	subi	r30, 0xB9	; 185
    634e:	ff 4f       	sbci	r31, 0xFF	; 255
    6350:	80 81       	ld	r24, Z
    6352:	29 96       	adiw	r28, 0x09	; 9
    6354:	8f af       	std	Y+63, r24	; 0x3f
    6356:	29 97       	sbiw	r28, 0x09	; 9
    6358:	55 c2       	rjmp	.+1194   	; 0x6804 <LCD_enuInit+0x776>
	
	Local_enuErrorState = DIO_enuSetPinDirection(D1_PORT, D1_PIN, DIO_u8OUTPUT);
    635a:	81 e0       	ldi	r24, 0x01	; 1
    635c:	61 e0       	ldi	r22, 0x01	; 1
    635e:	41 e0       	ldi	r20, 0x01	; 1
    6360:	0e 94 2c 16 	call	0x2c58	; 0x2c58 <DIO_enuSetPinDirection>
    6364:	fe 01       	movw	r30, r28
    6366:	e9 5b       	subi	r30, 0xB9	; 185
    6368:	ff 4f       	sbci	r31, 0xFF	; 255
    636a:	80 83       	st	Z, r24
	if(Local_enuErrorState != ES_OK)
    636c:	fe 01       	movw	r30, r28
    636e:	e9 5b       	subi	r30, 0xB9	; 185
    6370:	ff 4f       	sbci	r31, 0xFF	; 255
    6372:	80 81       	ld	r24, Z
    6374:	88 23       	and	r24, r24
    6376:	41 f0       	breq	.+16     	; 0x6388 <LCD_enuInit+0x2fa>
		return Local_enuErrorState;
    6378:	fe 01       	movw	r30, r28
    637a:	e9 5b       	subi	r30, 0xB9	; 185
    637c:	ff 4f       	sbci	r31, 0xFF	; 255
    637e:	80 81       	ld	r24, Z
    6380:	29 96       	adiw	r28, 0x09	; 9
    6382:	8f af       	std	Y+63, r24	; 0x3f
    6384:	29 97       	sbiw	r28, 0x09	; 9
    6386:	3e c2       	rjmp	.+1148   	; 0x6804 <LCD_enuInit+0x776>
	
	Local_enuErrorState = DIO_enuSetPinDirection(D0_PORT, D0_PIN, DIO_u8OUTPUT);
    6388:	81 e0       	ldi	r24, 0x01	; 1
    638a:	60 e0       	ldi	r22, 0x00	; 0
    638c:	41 e0       	ldi	r20, 0x01	; 1
    638e:	0e 94 2c 16 	call	0x2c58	; 0x2c58 <DIO_enuSetPinDirection>
    6392:	fe 01       	movw	r30, r28
    6394:	e9 5b       	subi	r30, 0xB9	; 185
    6396:	ff 4f       	sbci	r31, 0xFF	; 255
    6398:	80 83       	st	Z, r24
	if(Local_enuErrorState != ES_OK)
    639a:	fe 01       	movw	r30, r28
    639c:	e9 5b       	subi	r30, 0xB9	; 185
    639e:	ff 4f       	sbci	r31, 0xFF	; 255
    63a0:	80 81       	ld	r24, Z
    63a2:	88 23       	and	r24, r24
    63a4:	41 f0       	breq	.+16     	; 0x63b6 <LCD_enuInit+0x328>
		return Local_enuErrorState;
    63a6:	fe 01       	movw	r30, r28
    63a8:	e9 5b       	subi	r30, 0xB9	; 185
    63aa:	ff 4f       	sbci	r31, 0xFF	; 255
    63ac:	80 81       	ld	r24, Z
    63ae:	29 96       	adiw	r28, 0x09	; 9
    63b0:	8f af       	std	Y+63, r24	; 0x3f
    63b2:	29 97       	sbiw	r28, 0x09	; 9
    63b4:	27 c2       	rjmp	.+1102   	; 0x6804 <LCD_enuInit+0x776>
	/* Function Set */
	Local_enuErrorState = LCD_inlenuSendCommand(LCD_8Bit_TwoLine_5_7CharFont);
    63b6:	88 e3       	ldi	r24, 0x38	; 56
    63b8:	0e 94 98 36 	call	0x6d30	; 0x6d30 <LCD_inlenuSendCommand>
    63bc:	fe 01       	movw	r30, r28
    63be:	e9 5b       	subi	r30, 0xB9	; 185
    63c0:	ff 4f       	sbci	r31, 0xFF	; 255
    63c2:	80 83       	st	Z, r24
	if(Local_enuErrorState != ES_OK)
    63c4:	fe 01       	movw	r30, r28
    63c6:	e9 5b       	subi	r30, 0xB9	; 185
    63c8:	ff 4f       	sbci	r31, 0xFF	; 255
    63ca:	80 81       	ld	r24, Z
    63cc:	88 23       	and	r24, r24
    63ce:	41 f0       	breq	.+16     	; 0x63e0 <LCD_enuInit+0x352>
		return Local_enuErrorState;
    63d0:	fe 01       	movw	r30, r28
    63d2:	e9 5b       	subi	r30, 0xB9	; 185
    63d4:	ff 4f       	sbci	r31, 0xFF	; 255
    63d6:	80 81       	ld	r24, Z
    63d8:	29 96       	adiw	r28, 0x09	; 9
    63da:	8f af       	std	Y+63, r24	; 0x3f
    63dc:	29 97       	sbiw	r28, 0x09	; 9
    63de:	12 c2       	rjmp	.+1060   	; 0x6804 <LCD_enuInit+0x776>
    63e0:	80 e0       	ldi	r24, 0x00	; 0
    63e2:	90 e0       	ldi	r25, 0x00	; 0
    63e4:	a0 e8       	ldi	r26, 0x80	; 128
    63e6:	bf e3       	ldi	r27, 0x3F	; 63
    63e8:	8d ab       	std	Y+53, r24	; 0x35
    63ea:	9e ab       	std	Y+54, r25	; 0x36
    63ec:	af ab       	std	Y+55, r26	; 0x37
    63ee:	b8 af       	std	Y+56, r27	; 0x38
 */
void
_delay_ms(double __ms)
{
	uint16_t __ticks;
	double __tmp = ((F_CPU) / 4e3) * __ms;
    63f0:	6d a9       	ldd	r22, Y+53	; 0x35
    63f2:	7e a9       	ldd	r23, Y+54	; 0x36
    63f4:	8f a9       	ldd	r24, Y+55	; 0x37
    63f6:	98 ad       	ldd	r25, Y+56	; 0x38
    63f8:	20 e0       	ldi	r18, 0x00	; 0
    63fa:	30 e0       	ldi	r19, 0x00	; 0
    63fc:	4a e7       	ldi	r20, 0x7A	; 122
    63fe:	53 e4       	ldi	r21, 0x43	; 67
    6400:	0e 94 1f 02 	call	0x43e	; 0x43e <__mulsf3>
    6404:	dc 01       	movw	r26, r24
    6406:	cb 01       	movw	r24, r22
    6408:	89 ab       	std	Y+49, r24	; 0x31
    640a:	9a ab       	std	Y+50, r25	; 0x32
    640c:	ab ab       	std	Y+51, r26	; 0x33
    640e:	bc ab       	std	Y+52, r27	; 0x34
	if (__tmp < 1.0)
    6410:	69 a9       	ldd	r22, Y+49	; 0x31
    6412:	7a a9       	ldd	r23, Y+50	; 0x32
    6414:	8b a9       	ldd	r24, Y+51	; 0x33
    6416:	9c a9       	ldd	r25, Y+52	; 0x34
    6418:	20 e0       	ldi	r18, 0x00	; 0
    641a:	30 e0       	ldi	r19, 0x00	; 0
    641c:	40 e8       	ldi	r20, 0x80	; 128
    641e:	5f e3       	ldi	r21, 0x3F	; 63
    6420:	0e 94 55 04 	call	0x8aa	; 0x8aa <__ltsf2>
    6424:	88 23       	and	r24, r24
    6426:	2c f4       	brge	.+10     	; 0x6432 <LCD_enuInit+0x3a4>
		__ticks = 1;
    6428:	81 e0       	ldi	r24, 0x01	; 1
    642a:	90 e0       	ldi	r25, 0x00	; 0
    642c:	98 ab       	std	Y+48, r25	; 0x30
    642e:	8f a7       	std	Y+47, r24	; 0x2f
    6430:	3f c0       	rjmp	.+126    	; 0x64b0 <LCD_enuInit+0x422>
	else if (__tmp > 65535)
    6432:	69 a9       	ldd	r22, Y+49	; 0x31
    6434:	7a a9       	ldd	r23, Y+50	; 0x32
    6436:	8b a9       	ldd	r24, Y+51	; 0x33
    6438:	9c a9       	ldd	r25, Y+52	; 0x34
    643a:	20 e0       	ldi	r18, 0x00	; 0
    643c:	3f ef       	ldi	r19, 0xFF	; 255
    643e:	4f e7       	ldi	r20, 0x7F	; 127
    6440:	57 e4       	ldi	r21, 0x47	; 71
    6442:	0e 94 f5 03 	call	0x7ea	; 0x7ea <__gtsf2>
    6446:	18 16       	cp	r1, r24
    6448:	4c f5       	brge	.+82     	; 0x649c <LCD_enuInit+0x40e>
	{
		//	__ticks = requested delay in 1/10 ms
		__ticks = (uint16_t) (__ms * 10.0);
    644a:	6d a9       	ldd	r22, Y+53	; 0x35
    644c:	7e a9       	ldd	r23, Y+54	; 0x36
    644e:	8f a9       	ldd	r24, Y+55	; 0x37
    6450:	98 ad       	ldd	r25, Y+56	; 0x38
    6452:	20 e0       	ldi	r18, 0x00	; 0
    6454:	30 e0       	ldi	r19, 0x00	; 0
    6456:	40 e2       	ldi	r20, 0x20	; 32
    6458:	51 e4       	ldi	r21, 0x41	; 65
    645a:	0e 94 1f 02 	call	0x43e	; 0x43e <__mulsf3>
    645e:	dc 01       	movw	r26, r24
    6460:	cb 01       	movw	r24, r22
    6462:	bc 01       	movw	r22, r24
    6464:	cd 01       	movw	r24, r26
    6466:	0e 94 49 00 	call	0x92	; 0x92 <__fixunssfsi>
    646a:	dc 01       	movw	r26, r24
    646c:	cb 01       	movw	r24, r22
    646e:	98 ab       	std	Y+48, r25	; 0x30
    6470:	8f a7       	std	Y+47, r24	; 0x2f
    6472:	0f c0       	rjmp	.+30     	; 0x6492 <LCD_enuInit+0x404>
    6474:	89 e1       	ldi	r24, 0x19	; 25
    6476:	90 e0       	ldi	r25, 0x00	; 0
    6478:	9e a7       	std	Y+46, r25	; 0x2e
    647a:	8d a7       	std	Y+45, r24	; 0x2d
    647c:	8d a5       	ldd	r24, Y+45	; 0x2d
    647e:	9e a5       	ldd	r25, Y+46	; 0x2e
    6480:	01 97       	sbiw	r24, 0x01	; 1
    6482:	f1 f7       	brne	.-4      	; 0x6480 <LCD_enuInit+0x3f2>
    6484:	9e a7       	std	Y+46, r25	; 0x2e
    6486:	8d a7       	std	Y+45, r24	; 0x2d
		while(__ticks)
		{
			// wait 1/10 ms
			_delay_loop_2(((F_CPU) / 4e3) / 10);
			__ticks --;
    6488:	8f a5       	ldd	r24, Y+47	; 0x2f
    648a:	98 a9       	ldd	r25, Y+48	; 0x30
    648c:	01 97       	sbiw	r24, 0x01	; 1
    648e:	98 ab       	std	Y+48, r25	; 0x30
    6490:	8f a7       	std	Y+47, r24	; 0x2f
		__ticks = 1;
	else if (__tmp > 65535)
	{
		//	__ticks = requested delay in 1/10 ms
		__ticks = (uint16_t) (__ms * 10.0);
		while(__ticks)
    6492:	8f a5       	ldd	r24, Y+47	; 0x2f
    6494:	98 a9       	ldd	r25, Y+48	; 0x30
    6496:	00 97       	sbiw	r24, 0x00	; 0
    6498:	69 f7       	brne	.-38     	; 0x6474 <LCD_enuInit+0x3e6>
    649a:	14 c0       	rjmp	.+40     	; 0x64c4 <LCD_enuInit+0x436>
			__ticks --;
		}
		return;
	}
	else
		__ticks = (uint16_t)__tmp;
    649c:	69 a9       	ldd	r22, Y+49	; 0x31
    649e:	7a a9       	ldd	r23, Y+50	; 0x32
    64a0:	8b a9       	ldd	r24, Y+51	; 0x33
    64a2:	9c a9       	ldd	r25, Y+52	; 0x34
    64a4:	0e 94 49 00 	call	0x92	; 0x92 <__fixunssfsi>
    64a8:	dc 01       	movw	r26, r24
    64aa:	cb 01       	movw	r24, r22
    64ac:	98 ab       	std	Y+48, r25	; 0x30
    64ae:	8f a7       	std	Y+47, r24	; 0x2f
    64b0:	8f a5       	ldd	r24, Y+47	; 0x2f
    64b2:	98 a9       	ldd	r25, Y+48	; 0x30
    64b4:	9c a7       	std	Y+44, r25	; 0x2c
    64b6:	8b a7       	std	Y+43, r24	; 0x2b
    64b8:	8b a5       	ldd	r24, Y+43	; 0x2b
    64ba:	9c a5       	ldd	r25, Y+44	; 0x2c
    64bc:	01 97       	sbiw	r24, 0x01	; 1
    64be:	f1 f7       	brne	.-4      	; 0x64bc <LCD_enuInit+0x42e>
    64c0:	9c a7       	std	Y+44, r25	; 0x2c
    64c2:	8b a7       	std	Y+43, r24	; 0x2b
	#else
	#error "LCD Mode has a wrong configuration"
	#endif
	
	/* Display ON/OFF Control */
	Local_enuErrorState = LCD_inlenuSendCommand(LCD_DisplayOn_CursorOn_Blinking);
    64c4:	8f e0       	ldi	r24, 0x0F	; 15
    64c6:	0e 94 98 36 	call	0x6d30	; 0x6d30 <LCD_inlenuSendCommand>
    64ca:	fe 01       	movw	r30, r28
    64cc:	e9 5b       	subi	r30, 0xB9	; 185
    64ce:	ff 4f       	sbci	r31, 0xFF	; 255
    64d0:	80 83       	st	Z, r24
	if(Local_enuErrorState != ES_OK)
    64d2:	fe 01       	movw	r30, r28
    64d4:	e9 5b       	subi	r30, 0xB9	; 185
    64d6:	ff 4f       	sbci	r31, 0xFF	; 255
    64d8:	80 81       	ld	r24, Z
    64da:	88 23       	and	r24, r24
    64dc:	41 f0       	breq	.+16     	; 0x64ee <LCD_enuInit+0x460>
		return Local_enuErrorState;
    64de:	fe 01       	movw	r30, r28
    64e0:	e9 5b       	subi	r30, 0xB9	; 185
    64e2:	ff 4f       	sbci	r31, 0xFF	; 255
    64e4:	80 81       	ld	r24, Z
    64e6:	29 96       	adiw	r28, 0x09	; 9
    64e8:	8f af       	std	Y+63, r24	; 0x3f
    64ea:	29 97       	sbiw	r28, 0x09	; 9
    64ec:	8b c1       	rjmp	.+790    	; 0x6804 <LCD_enuInit+0x776>
    64ee:	80 e0       	ldi	r24, 0x00	; 0
    64f0:	90 e0       	ldi	r25, 0x00	; 0
    64f2:	a0 e8       	ldi	r26, 0x80	; 128
    64f4:	bf e3       	ldi	r27, 0x3F	; 63
    64f6:	8f a3       	std	Y+39, r24	; 0x27
    64f8:	98 a7       	std	Y+40, r25	; 0x28
    64fa:	a9 a7       	std	Y+41, r26	; 0x29
    64fc:	ba a7       	std	Y+42, r27	; 0x2a
 */
void
_delay_ms(double __ms)
{
	uint16_t __ticks;
	double __tmp = ((F_CPU) / 4e3) * __ms;
    64fe:	6f a1       	ldd	r22, Y+39	; 0x27
    6500:	78 a5       	ldd	r23, Y+40	; 0x28
    6502:	89 a5       	ldd	r24, Y+41	; 0x29
    6504:	9a a5       	ldd	r25, Y+42	; 0x2a
    6506:	20 e0       	ldi	r18, 0x00	; 0
    6508:	30 e0       	ldi	r19, 0x00	; 0
    650a:	4a e7       	ldi	r20, 0x7A	; 122
    650c:	53 e4       	ldi	r21, 0x43	; 67
    650e:	0e 94 1f 02 	call	0x43e	; 0x43e <__mulsf3>
    6512:	dc 01       	movw	r26, r24
    6514:	cb 01       	movw	r24, r22
    6516:	8b a3       	std	Y+35, r24	; 0x23
    6518:	9c a3       	std	Y+36, r25	; 0x24
    651a:	ad a3       	std	Y+37, r26	; 0x25
    651c:	be a3       	std	Y+38, r27	; 0x26
	if (__tmp < 1.0)
    651e:	6b a1       	ldd	r22, Y+35	; 0x23
    6520:	7c a1       	ldd	r23, Y+36	; 0x24
    6522:	8d a1       	ldd	r24, Y+37	; 0x25
    6524:	9e a1       	ldd	r25, Y+38	; 0x26
    6526:	20 e0       	ldi	r18, 0x00	; 0
    6528:	30 e0       	ldi	r19, 0x00	; 0
    652a:	40 e8       	ldi	r20, 0x80	; 128
    652c:	5f e3       	ldi	r21, 0x3F	; 63
    652e:	0e 94 55 04 	call	0x8aa	; 0x8aa <__ltsf2>
    6532:	88 23       	and	r24, r24
    6534:	2c f4       	brge	.+10     	; 0x6540 <LCD_enuInit+0x4b2>
		__ticks = 1;
    6536:	81 e0       	ldi	r24, 0x01	; 1
    6538:	90 e0       	ldi	r25, 0x00	; 0
    653a:	9a a3       	std	Y+34, r25	; 0x22
    653c:	89 a3       	std	Y+33, r24	; 0x21
    653e:	3f c0       	rjmp	.+126    	; 0x65be <LCD_enuInit+0x530>
	else if (__tmp > 65535)
    6540:	6b a1       	ldd	r22, Y+35	; 0x23
    6542:	7c a1       	ldd	r23, Y+36	; 0x24
    6544:	8d a1       	ldd	r24, Y+37	; 0x25
    6546:	9e a1       	ldd	r25, Y+38	; 0x26
    6548:	20 e0       	ldi	r18, 0x00	; 0
    654a:	3f ef       	ldi	r19, 0xFF	; 255
    654c:	4f e7       	ldi	r20, 0x7F	; 127
    654e:	57 e4       	ldi	r21, 0x47	; 71
    6550:	0e 94 f5 03 	call	0x7ea	; 0x7ea <__gtsf2>
    6554:	18 16       	cp	r1, r24
    6556:	4c f5       	brge	.+82     	; 0x65aa <LCD_enuInit+0x51c>
	{
		//	__ticks = requested delay in 1/10 ms
		__ticks = (uint16_t) (__ms * 10.0);
    6558:	6f a1       	ldd	r22, Y+39	; 0x27
    655a:	78 a5       	ldd	r23, Y+40	; 0x28
    655c:	89 a5       	ldd	r24, Y+41	; 0x29
    655e:	9a a5       	ldd	r25, Y+42	; 0x2a
    6560:	20 e0       	ldi	r18, 0x00	; 0
    6562:	30 e0       	ldi	r19, 0x00	; 0
    6564:	40 e2       	ldi	r20, 0x20	; 32
    6566:	51 e4       	ldi	r21, 0x41	; 65
    6568:	0e 94 1f 02 	call	0x43e	; 0x43e <__mulsf3>
    656c:	dc 01       	movw	r26, r24
    656e:	cb 01       	movw	r24, r22
    6570:	bc 01       	movw	r22, r24
    6572:	cd 01       	movw	r24, r26
    6574:	0e 94 49 00 	call	0x92	; 0x92 <__fixunssfsi>
    6578:	dc 01       	movw	r26, r24
    657a:	cb 01       	movw	r24, r22
    657c:	9a a3       	std	Y+34, r25	; 0x22
    657e:	89 a3       	std	Y+33, r24	; 0x21
    6580:	0f c0       	rjmp	.+30     	; 0x65a0 <LCD_enuInit+0x512>
    6582:	89 e1       	ldi	r24, 0x19	; 25
    6584:	90 e0       	ldi	r25, 0x00	; 0
    6586:	98 a3       	std	Y+32, r25	; 0x20
    6588:	8f 8f       	std	Y+31, r24	; 0x1f
    658a:	8f 8d       	ldd	r24, Y+31	; 0x1f
    658c:	98 a1       	ldd	r25, Y+32	; 0x20
    658e:	01 97       	sbiw	r24, 0x01	; 1
    6590:	f1 f7       	brne	.-4      	; 0x658e <LCD_enuInit+0x500>
    6592:	98 a3       	std	Y+32, r25	; 0x20
    6594:	8f 8f       	std	Y+31, r24	; 0x1f
		while(__ticks)
		{
			// wait 1/10 ms
			_delay_loop_2(((F_CPU) / 4e3) / 10);
			__ticks --;
    6596:	89 a1       	ldd	r24, Y+33	; 0x21
    6598:	9a a1       	ldd	r25, Y+34	; 0x22
    659a:	01 97       	sbiw	r24, 0x01	; 1
    659c:	9a a3       	std	Y+34, r25	; 0x22
    659e:	89 a3       	std	Y+33, r24	; 0x21
		__ticks = 1;
	else if (__tmp > 65535)
	{
		//	__ticks = requested delay in 1/10 ms
		__ticks = (uint16_t) (__ms * 10.0);
		while(__ticks)
    65a0:	89 a1       	ldd	r24, Y+33	; 0x21
    65a2:	9a a1       	ldd	r25, Y+34	; 0x22
    65a4:	00 97       	sbiw	r24, 0x00	; 0
    65a6:	69 f7       	brne	.-38     	; 0x6582 <LCD_enuInit+0x4f4>
    65a8:	14 c0       	rjmp	.+40     	; 0x65d2 <LCD_enuInit+0x544>
			__ticks --;
		}
		return;
	}
	else
		__ticks = (uint16_t)__tmp;
    65aa:	6b a1       	ldd	r22, Y+35	; 0x23
    65ac:	7c a1       	ldd	r23, Y+36	; 0x24
    65ae:	8d a1       	ldd	r24, Y+37	; 0x25
    65b0:	9e a1       	ldd	r25, Y+38	; 0x26
    65b2:	0e 94 49 00 	call	0x92	; 0x92 <__fixunssfsi>
    65b6:	dc 01       	movw	r26, r24
    65b8:	cb 01       	movw	r24, r22
    65ba:	9a a3       	std	Y+34, r25	; 0x22
    65bc:	89 a3       	std	Y+33, r24	; 0x21
    65be:	89 a1       	ldd	r24, Y+33	; 0x21
    65c0:	9a a1       	ldd	r25, Y+34	; 0x22
    65c2:	9e 8f       	std	Y+30, r25	; 0x1e
    65c4:	8d 8f       	std	Y+29, r24	; 0x1d
    65c6:	8d 8d       	ldd	r24, Y+29	; 0x1d
    65c8:	9e 8d       	ldd	r25, Y+30	; 0x1e
    65ca:	01 97       	sbiw	r24, 0x01	; 1
    65cc:	f1 f7       	brne	.-4      	; 0x65ca <LCD_enuInit+0x53c>
    65ce:	9e 8f       	std	Y+30, r25	; 0x1e
    65d0:	8d 8f       	std	Y+29, r24	; 0x1d
	_delay_ms(1);
	
	/* Display Clear */
	Local_enuErrorState = LCD_inlenuSendCommand(LCD_Clear_Display);
    65d2:	81 e0       	ldi	r24, 0x01	; 1
    65d4:	0e 94 98 36 	call	0x6d30	; 0x6d30 <LCD_inlenuSendCommand>
    65d8:	fe 01       	movw	r30, r28
    65da:	e9 5b       	subi	r30, 0xB9	; 185
    65dc:	ff 4f       	sbci	r31, 0xFF	; 255
    65de:	80 83       	st	Z, r24
	if(Local_enuErrorState != ES_OK)
    65e0:	fe 01       	movw	r30, r28
    65e2:	e9 5b       	subi	r30, 0xB9	; 185
    65e4:	ff 4f       	sbci	r31, 0xFF	; 255
    65e6:	80 81       	ld	r24, Z
    65e8:	88 23       	and	r24, r24
    65ea:	41 f0       	breq	.+16     	; 0x65fc <LCD_enuInit+0x56e>
		return Local_enuErrorState;
    65ec:	fe 01       	movw	r30, r28
    65ee:	e9 5b       	subi	r30, 0xB9	; 185
    65f0:	ff 4f       	sbci	r31, 0xFF	; 255
    65f2:	80 81       	ld	r24, Z
    65f4:	29 96       	adiw	r28, 0x09	; 9
    65f6:	8f af       	std	Y+63, r24	; 0x3f
    65f8:	29 97       	sbiw	r28, 0x09	; 9
    65fa:	04 c1       	rjmp	.+520    	; 0x6804 <LCD_enuInit+0x776>
    65fc:	80 e0       	ldi	r24, 0x00	; 0
    65fe:	90 e0       	ldi	r25, 0x00	; 0
    6600:	a0 e0       	ldi	r26, 0x00	; 0
    6602:	b0 e4       	ldi	r27, 0x40	; 64
    6604:	89 8f       	std	Y+25, r24	; 0x19
    6606:	9a 8f       	std	Y+26, r25	; 0x1a
    6608:	ab 8f       	std	Y+27, r26	; 0x1b
    660a:	bc 8f       	std	Y+28, r27	; 0x1c
 */
void
_delay_ms(double __ms)
{
	uint16_t __ticks;
	double __tmp = ((F_CPU) / 4e3) * __ms;
    660c:	69 8d       	ldd	r22, Y+25	; 0x19
    660e:	7a 8d       	ldd	r23, Y+26	; 0x1a
    6610:	8b 8d       	ldd	r24, Y+27	; 0x1b
    6612:	9c 8d       	ldd	r25, Y+28	; 0x1c
    6614:	20 e0       	ldi	r18, 0x00	; 0
    6616:	30 e0       	ldi	r19, 0x00	; 0
    6618:	4a e7       	ldi	r20, 0x7A	; 122
    661a:	53 e4       	ldi	r21, 0x43	; 67
    661c:	0e 94 1f 02 	call	0x43e	; 0x43e <__mulsf3>
    6620:	dc 01       	movw	r26, r24
    6622:	cb 01       	movw	r24, r22
    6624:	8d 8b       	std	Y+21, r24	; 0x15
    6626:	9e 8b       	std	Y+22, r25	; 0x16
    6628:	af 8b       	std	Y+23, r26	; 0x17
    662a:	b8 8f       	std	Y+24, r27	; 0x18
	if (__tmp < 1.0)
    662c:	6d 89       	ldd	r22, Y+21	; 0x15
    662e:	7e 89       	ldd	r23, Y+22	; 0x16
    6630:	8f 89       	ldd	r24, Y+23	; 0x17
    6632:	98 8d       	ldd	r25, Y+24	; 0x18
    6634:	20 e0       	ldi	r18, 0x00	; 0
    6636:	30 e0       	ldi	r19, 0x00	; 0
    6638:	40 e8       	ldi	r20, 0x80	; 128
    663a:	5f e3       	ldi	r21, 0x3F	; 63
    663c:	0e 94 55 04 	call	0x8aa	; 0x8aa <__ltsf2>
    6640:	88 23       	and	r24, r24
    6642:	2c f4       	brge	.+10     	; 0x664e <LCD_enuInit+0x5c0>
		__ticks = 1;
    6644:	81 e0       	ldi	r24, 0x01	; 1
    6646:	90 e0       	ldi	r25, 0x00	; 0
    6648:	9c 8b       	std	Y+20, r25	; 0x14
    664a:	8b 8b       	std	Y+19, r24	; 0x13
    664c:	3f c0       	rjmp	.+126    	; 0x66cc <LCD_enuInit+0x63e>
	else if (__tmp > 65535)
    664e:	6d 89       	ldd	r22, Y+21	; 0x15
    6650:	7e 89       	ldd	r23, Y+22	; 0x16
    6652:	8f 89       	ldd	r24, Y+23	; 0x17
    6654:	98 8d       	ldd	r25, Y+24	; 0x18
    6656:	20 e0       	ldi	r18, 0x00	; 0
    6658:	3f ef       	ldi	r19, 0xFF	; 255
    665a:	4f e7       	ldi	r20, 0x7F	; 127
    665c:	57 e4       	ldi	r21, 0x47	; 71
    665e:	0e 94 f5 03 	call	0x7ea	; 0x7ea <__gtsf2>
    6662:	18 16       	cp	r1, r24
    6664:	4c f5       	brge	.+82     	; 0x66b8 <LCD_enuInit+0x62a>
	{
		//	__ticks = requested delay in 1/10 ms
		__ticks = (uint16_t) (__ms * 10.0);
    6666:	69 8d       	ldd	r22, Y+25	; 0x19
    6668:	7a 8d       	ldd	r23, Y+26	; 0x1a
    666a:	8b 8d       	ldd	r24, Y+27	; 0x1b
    666c:	9c 8d       	ldd	r25, Y+28	; 0x1c
    666e:	20 e0       	ldi	r18, 0x00	; 0
    6670:	30 e0       	ldi	r19, 0x00	; 0
    6672:	40 e2       	ldi	r20, 0x20	; 32
    6674:	51 e4       	ldi	r21, 0x41	; 65
    6676:	0e 94 1f 02 	call	0x43e	; 0x43e <__mulsf3>
    667a:	dc 01       	movw	r26, r24
    667c:	cb 01       	movw	r24, r22
    667e:	bc 01       	movw	r22, r24
    6680:	cd 01       	movw	r24, r26
    6682:	0e 94 49 00 	call	0x92	; 0x92 <__fixunssfsi>
    6686:	dc 01       	movw	r26, r24
    6688:	cb 01       	movw	r24, r22
    668a:	9c 8b       	std	Y+20, r25	; 0x14
    668c:	8b 8b       	std	Y+19, r24	; 0x13
    668e:	0f c0       	rjmp	.+30     	; 0x66ae <LCD_enuInit+0x620>
    6690:	89 e1       	ldi	r24, 0x19	; 25
    6692:	90 e0       	ldi	r25, 0x00	; 0
    6694:	9a 8b       	std	Y+18, r25	; 0x12
    6696:	89 8b       	std	Y+17, r24	; 0x11
    6698:	89 89       	ldd	r24, Y+17	; 0x11
    669a:	9a 89       	ldd	r25, Y+18	; 0x12
    669c:	01 97       	sbiw	r24, 0x01	; 1
    669e:	f1 f7       	brne	.-4      	; 0x669c <LCD_enuInit+0x60e>
    66a0:	9a 8b       	std	Y+18, r25	; 0x12
    66a2:	89 8b       	std	Y+17, r24	; 0x11
		while(__ticks)
		{
			// wait 1/10 ms
			_delay_loop_2(((F_CPU) / 4e3) / 10);
			__ticks --;
    66a4:	8b 89       	ldd	r24, Y+19	; 0x13
    66a6:	9c 89       	ldd	r25, Y+20	; 0x14
    66a8:	01 97       	sbiw	r24, 0x01	; 1
    66aa:	9c 8b       	std	Y+20, r25	; 0x14
    66ac:	8b 8b       	std	Y+19, r24	; 0x13
		__ticks = 1;
	else if (__tmp > 65535)
	{
		//	__ticks = requested delay in 1/10 ms
		__ticks = (uint16_t) (__ms * 10.0);
		while(__ticks)
    66ae:	8b 89       	ldd	r24, Y+19	; 0x13
    66b0:	9c 89       	ldd	r25, Y+20	; 0x14
    66b2:	00 97       	sbiw	r24, 0x00	; 0
    66b4:	69 f7       	brne	.-38     	; 0x6690 <LCD_enuInit+0x602>
    66b6:	14 c0       	rjmp	.+40     	; 0x66e0 <LCD_enuInit+0x652>
			__ticks --;
		}
		return;
	}
	else
		__ticks = (uint16_t)__tmp;
    66b8:	6d 89       	ldd	r22, Y+21	; 0x15
    66ba:	7e 89       	ldd	r23, Y+22	; 0x16
    66bc:	8f 89       	ldd	r24, Y+23	; 0x17
    66be:	98 8d       	ldd	r25, Y+24	; 0x18
    66c0:	0e 94 49 00 	call	0x92	; 0x92 <__fixunssfsi>
    66c4:	dc 01       	movw	r26, r24
    66c6:	cb 01       	movw	r24, r22
    66c8:	9c 8b       	std	Y+20, r25	; 0x14
    66ca:	8b 8b       	std	Y+19, r24	; 0x13
    66cc:	8b 89       	ldd	r24, Y+19	; 0x13
    66ce:	9c 89       	ldd	r25, Y+20	; 0x14
    66d0:	98 8b       	std	Y+16, r25	; 0x10
    66d2:	8f 87       	std	Y+15, r24	; 0x0f
    66d4:	8f 85       	ldd	r24, Y+15	; 0x0f
    66d6:	98 89       	ldd	r25, Y+16	; 0x10
    66d8:	01 97       	sbiw	r24, 0x01	; 1
    66da:	f1 f7       	brne	.-4      	; 0x66d8 <LCD_enuInit+0x64a>
    66dc:	98 8b       	std	Y+16, r25	; 0x10
    66de:	8f 87       	std	Y+15, r24	; 0x0f
	_delay_ms(2);
	
	/* Entry Mode Set */
	Local_enuErrorState = LCD_inlenuSendCommand(LCD_Increase_NoShift);
    66e0:	86 e0       	ldi	r24, 0x06	; 6
    66e2:	0e 94 98 36 	call	0x6d30	; 0x6d30 <LCD_inlenuSendCommand>
    66e6:	fe 01       	movw	r30, r28
    66e8:	e9 5b       	subi	r30, 0xB9	; 185
    66ea:	ff 4f       	sbci	r31, 0xFF	; 255
    66ec:	80 83       	st	Z, r24
	if(Local_enuErrorState != ES_OK)
    66ee:	fe 01       	movw	r30, r28
    66f0:	e9 5b       	subi	r30, 0xB9	; 185
    66f2:	ff 4f       	sbci	r31, 0xFF	; 255
    66f4:	80 81       	ld	r24, Z
    66f6:	88 23       	and	r24, r24
    66f8:	41 f0       	breq	.+16     	; 0x670a <LCD_enuInit+0x67c>
		return Local_enuErrorState;
    66fa:	fe 01       	movw	r30, r28
    66fc:	e9 5b       	subi	r30, 0xB9	; 185
    66fe:	ff 4f       	sbci	r31, 0xFF	; 255
    6700:	80 81       	ld	r24, Z
    6702:	29 96       	adiw	r28, 0x09	; 9
    6704:	8f af       	std	Y+63, r24	; 0x3f
    6706:	29 97       	sbiw	r28, 0x09	; 9
    6708:	7d c0       	rjmp	.+250    	; 0x6804 <LCD_enuInit+0x776>
    670a:	80 e0       	ldi	r24, 0x00	; 0
    670c:	90 e0       	ldi	r25, 0x00	; 0
    670e:	a0 e8       	ldi	r26, 0x80	; 128
    6710:	bf e3       	ldi	r27, 0x3F	; 63
    6712:	8b 87       	std	Y+11, r24	; 0x0b
    6714:	9c 87       	std	Y+12, r25	; 0x0c
    6716:	ad 87       	std	Y+13, r26	; 0x0d
    6718:	be 87       	std	Y+14, r27	; 0x0e
 */
void
_delay_ms(double __ms)
{
	uint16_t __ticks;
	double __tmp = ((F_CPU) / 4e3) * __ms;
    671a:	6b 85       	ldd	r22, Y+11	; 0x0b
    671c:	7c 85       	ldd	r23, Y+12	; 0x0c
    671e:	8d 85       	ldd	r24, Y+13	; 0x0d
    6720:	9e 85       	ldd	r25, Y+14	; 0x0e
    6722:	20 e0       	ldi	r18, 0x00	; 0
    6724:	30 e0       	ldi	r19, 0x00	; 0
    6726:	4a e7       	ldi	r20, 0x7A	; 122
    6728:	53 e4       	ldi	r21, 0x43	; 67
    672a:	0e 94 1f 02 	call	0x43e	; 0x43e <__mulsf3>
    672e:	dc 01       	movw	r26, r24
    6730:	cb 01       	movw	r24, r22
    6732:	8f 83       	std	Y+7, r24	; 0x07
    6734:	98 87       	std	Y+8, r25	; 0x08
    6736:	a9 87       	std	Y+9, r26	; 0x09
    6738:	ba 87       	std	Y+10, r27	; 0x0a
	if (__tmp < 1.0)
    673a:	6f 81       	ldd	r22, Y+7	; 0x07
    673c:	78 85       	ldd	r23, Y+8	; 0x08
    673e:	89 85       	ldd	r24, Y+9	; 0x09
    6740:	9a 85       	ldd	r25, Y+10	; 0x0a
    6742:	20 e0       	ldi	r18, 0x00	; 0
    6744:	30 e0       	ldi	r19, 0x00	; 0
    6746:	40 e8       	ldi	r20, 0x80	; 128
    6748:	5f e3       	ldi	r21, 0x3F	; 63
    674a:	0e 94 55 04 	call	0x8aa	; 0x8aa <__ltsf2>
    674e:	88 23       	and	r24, r24
    6750:	2c f4       	brge	.+10     	; 0x675c <LCD_enuInit+0x6ce>
		__ticks = 1;
    6752:	81 e0       	ldi	r24, 0x01	; 1
    6754:	90 e0       	ldi	r25, 0x00	; 0
    6756:	9e 83       	std	Y+6, r25	; 0x06
    6758:	8d 83       	std	Y+5, r24	; 0x05
    675a:	3f c0       	rjmp	.+126    	; 0x67da <LCD_enuInit+0x74c>
	else if (__tmp > 65535)
    675c:	6f 81       	ldd	r22, Y+7	; 0x07
    675e:	78 85       	ldd	r23, Y+8	; 0x08
    6760:	89 85       	ldd	r24, Y+9	; 0x09
    6762:	9a 85       	ldd	r25, Y+10	; 0x0a
    6764:	20 e0       	ldi	r18, 0x00	; 0
    6766:	3f ef       	ldi	r19, 0xFF	; 255
    6768:	4f e7       	ldi	r20, 0x7F	; 127
    676a:	57 e4       	ldi	r21, 0x47	; 71
    676c:	0e 94 f5 03 	call	0x7ea	; 0x7ea <__gtsf2>
    6770:	18 16       	cp	r1, r24
    6772:	4c f5       	brge	.+82     	; 0x67c6 <LCD_enuInit+0x738>
	{
		//	__ticks = requested delay in 1/10 ms
		__ticks = (uint16_t) (__ms * 10.0);
    6774:	6b 85       	ldd	r22, Y+11	; 0x0b
    6776:	7c 85       	ldd	r23, Y+12	; 0x0c
    6778:	8d 85       	ldd	r24, Y+13	; 0x0d
    677a:	9e 85       	ldd	r25, Y+14	; 0x0e
    677c:	20 e0       	ldi	r18, 0x00	; 0
    677e:	30 e0       	ldi	r19, 0x00	; 0
    6780:	40 e2       	ldi	r20, 0x20	; 32
    6782:	51 e4       	ldi	r21, 0x41	; 65
    6784:	0e 94 1f 02 	call	0x43e	; 0x43e <__mulsf3>
    6788:	dc 01       	movw	r26, r24
    678a:	cb 01       	movw	r24, r22
    678c:	bc 01       	movw	r22, r24
    678e:	cd 01       	movw	r24, r26
    6790:	0e 94 49 00 	call	0x92	; 0x92 <__fixunssfsi>
    6794:	dc 01       	movw	r26, r24
    6796:	cb 01       	movw	r24, r22
    6798:	9e 83       	std	Y+6, r25	; 0x06
    679a:	8d 83       	std	Y+5, r24	; 0x05
    679c:	0f c0       	rjmp	.+30     	; 0x67bc <LCD_enuInit+0x72e>
    679e:	89 e1       	ldi	r24, 0x19	; 25
    67a0:	90 e0       	ldi	r25, 0x00	; 0
    67a2:	9c 83       	std	Y+4, r25	; 0x04
    67a4:	8b 83       	std	Y+3, r24	; 0x03
    67a6:	8b 81       	ldd	r24, Y+3	; 0x03
    67a8:	9c 81       	ldd	r25, Y+4	; 0x04
    67aa:	01 97       	sbiw	r24, 0x01	; 1
    67ac:	f1 f7       	brne	.-4      	; 0x67aa <LCD_enuInit+0x71c>
    67ae:	9c 83       	std	Y+4, r25	; 0x04
    67b0:	8b 83       	std	Y+3, r24	; 0x03
		while(__ticks)
		{
			// wait 1/10 ms
			_delay_loop_2(((F_CPU) / 4e3) / 10);
			__ticks --;
    67b2:	8d 81       	ldd	r24, Y+5	; 0x05
    67b4:	9e 81       	ldd	r25, Y+6	; 0x06
    67b6:	01 97       	sbiw	r24, 0x01	; 1
    67b8:	9e 83       	std	Y+6, r25	; 0x06
    67ba:	8d 83       	std	Y+5, r24	; 0x05
		__ticks = 1;
	else if (__tmp > 65535)
	{
		//	__ticks = requested delay in 1/10 ms
		__ticks = (uint16_t) (__ms * 10.0);
		while(__ticks)
    67bc:	8d 81       	ldd	r24, Y+5	; 0x05
    67be:	9e 81       	ldd	r25, Y+6	; 0x06
    67c0:	00 97       	sbiw	r24, 0x00	; 0
    67c2:	69 f7       	brne	.-38     	; 0x679e <LCD_enuInit+0x710>
    67c4:	14 c0       	rjmp	.+40     	; 0x67ee <LCD_enuInit+0x760>
			__ticks --;
		}
		return;
	}
	else
		__ticks = (uint16_t)__tmp;
    67c6:	6f 81       	ldd	r22, Y+7	; 0x07
    67c8:	78 85       	ldd	r23, Y+8	; 0x08
    67ca:	89 85       	ldd	r24, Y+9	; 0x09
    67cc:	9a 85       	ldd	r25, Y+10	; 0x0a
    67ce:	0e 94 49 00 	call	0x92	; 0x92 <__fixunssfsi>
    67d2:	dc 01       	movw	r26, r24
    67d4:	cb 01       	movw	r24, r22
    67d6:	9e 83       	std	Y+6, r25	; 0x06
    67d8:	8d 83       	std	Y+5, r24	; 0x05
    67da:	8d 81       	ldd	r24, Y+5	; 0x05
    67dc:	9e 81       	ldd	r25, Y+6	; 0x06
    67de:	9a 83       	std	Y+2, r25	; 0x02
    67e0:	89 83       	std	Y+1, r24	; 0x01
    67e2:	89 81       	ldd	r24, Y+1	; 0x01
    67e4:	9a 81       	ldd	r25, Y+2	; 0x02
    67e6:	01 97       	sbiw	r24, 0x01	; 1
    67e8:	f1 f7       	brne	.-4      	; 0x67e6 <LCD_enuInit+0x758>
    67ea:	9a 83       	std	Y+2, r25	; 0x02
    67ec:	89 83       	std	Y+1, r24	; 0x01
	_delay_ms(1);
	
	Local_enuErrorState = ES_OK;
    67ee:	fe 01       	movw	r30, r28
    67f0:	e9 5b       	subi	r30, 0xB9	; 185
    67f2:	ff 4f       	sbci	r31, 0xFF	; 255
    67f4:	10 82       	st	Z, r1
	return Local_enuErrorState;
    67f6:	fe 01       	movw	r30, r28
    67f8:	e9 5b       	subi	r30, 0xB9	; 185
    67fa:	ff 4f       	sbci	r31, 0xFF	; 255
    67fc:	80 81       	ld	r24, Z
    67fe:	29 96       	adiw	r28, 0x09	; 9
    6800:	8f af       	std	Y+63, r24	; 0x3f
    6802:	29 97       	sbiw	r28, 0x09	; 9
    6804:	29 96       	adiw	r28, 0x09	; 9
    6806:	8f ad       	ldd	r24, Y+63	; 0x3f
    6808:	29 97       	sbiw	r28, 0x09	; 9
}
    680a:	c8 5b       	subi	r28, 0xB8	; 184
    680c:	df 4f       	sbci	r29, 0xFF	; 255
    680e:	0f b6       	in	r0, 0x3f	; 63
    6810:	f8 94       	cli
    6812:	de bf       	out	0x3e, r29	; 62
    6814:	0f be       	out	0x3f, r0	; 63
    6816:	cd bf       	out	0x3d, r28	; 61
    6818:	cf 91       	pop	r28
    681a:	df 91       	pop	r29
    681c:	1f 91       	pop	r17
    681e:	0f 91       	pop	r16
    6820:	08 95       	ret

00006822 <LCD_enuDisplayChar>:
 * @retval		: ES_t --> it returns the state of excution of this function
 * @note		: none
 ******************************************************************************
**/
ES_t LCD_enuDisplayChar(u8 Copy_u8Data)
{
    6822:	df 93       	push	r29
    6824:	cf 93       	push	r28
    6826:	00 d0       	rcall	.+0      	; 0x6828 <LCD_enuDisplayChar+0x6>
    6828:	0f 92       	push	r0
    682a:	cd b7       	in	r28, 0x3d	; 61
    682c:	de b7       	in	r29, 0x3e	; 62
    682e:	8a 83       	std	Y+2, r24	; 0x02
	ES_t Local_enuErrorState = ES_NOK;
    6830:	81 e0       	ldi	r24, 0x01	; 1
    6832:	89 83       	std	Y+1, r24	; 0x01
	
	/* Check position in case of we send data */
	LCD_vidCheckPosition();
    6834:	0e 94 fd 36 	call	0x6dfa	; 0x6dfa <LCD_vidCheckPosition>
	
	/* RS --> High to write Data */
	Local_enuErrorState = DIO_enuSetPinVal(RS_PORT, RS_PIN, DIO_u8HIGH);
    6838:	80 e0       	ldi	r24, 0x00	; 0
    683a:	60 e0       	ldi	r22, 0x00	; 0
    683c:	41 e0       	ldi	r20, 0x01	; 1
    683e:	0e 94 18 17 	call	0x2e30	; 0x2e30 <DIO_enuSetPinVal>
    6842:	89 83       	std	Y+1, r24	; 0x01
	if(Local_enuErrorState != ES_OK)
    6844:	89 81       	ldd	r24, Y+1	; 0x01
    6846:	88 23       	and	r24, r24
    6848:	19 f0       	breq	.+6      	; 0x6850 <LCD_enuDisplayChar+0x2e>
		return Local_enuErrorState;
    684a:	89 81       	ldd	r24, Y+1	; 0x01
    684c:	8b 83       	std	Y+3, r24	; 0x03
    684e:	0d c0       	rjmp	.+26     	; 0x686a <LCD_enuDisplayChar+0x48>
	
	/* Call Latch Function */
	Local_enuErrorState = LCD_enuLatch(Copy_u8Data);
    6850:	8a 81       	ldd	r24, Y+2	; 0x02
    6852:	0e 94 65 34 	call	0x68ca	; 0x68ca <LCD_enuLatch>
    6856:	89 83       	std	Y+1, r24	; 0x01
	if(Local_enuErrorState != ES_OK)
    6858:	89 81       	ldd	r24, Y+1	; 0x01
    685a:	88 23       	and	r24, r24
    685c:	19 f0       	breq	.+6      	; 0x6864 <LCD_enuDisplayChar+0x42>
		return Local_enuErrorState;
    685e:	89 81       	ldd	r24, Y+1	; 0x01
    6860:	8b 83       	std	Y+3, r24	; 0x03
    6862:	03 c0       	rjmp	.+6      	; 0x686a <LCD_enuDisplayChar+0x48>
	
	Local_enuErrorState = ES_OK;
    6864:	19 82       	std	Y+1, r1	; 0x01
	return Local_enuErrorState;
    6866:	89 81       	ldd	r24, Y+1	; 0x01
    6868:	8b 83       	std	Y+3, r24	; 0x03
    686a:	8b 81       	ldd	r24, Y+3	; 0x03
}
    686c:	0f 90       	pop	r0
    686e:	0f 90       	pop	r0
    6870:	0f 90       	pop	r0
    6872:	cf 91       	pop	r28
    6874:	df 91       	pop	r29
    6876:	08 95       	ret

00006878 <LCD_enuSendCommand>:
 * @retval		: ES_t --> it returns the state of excution of this function
 * @note		: none
 ******************************************************************************
**/
ES_t LCD_enuSendCommand(u8 Copy_u8Command)
{
    6878:	df 93       	push	r29
    687a:	cf 93       	push	r28
    687c:	00 d0       	rcall	.+0      	; 0x687e <LCD_enuSendCommand+0x6>
    687e:	0f 92       	push	r0
    6880:	cd b7       	in	r28, 0x3d	; 61
    6882:	de b7       	in	r29, 0x3e	; 62
    6884:	8a 83       	std	Y+2, r24	; 0x02
	ES_t Local_enuErrorState = ES_NOK;
    6886:	81 e0       	ldi	r24, 0x01	; 1
    6888:	89 83       	std	Y+1, r24	; 0x01
	
	/* RS --> LOW to write Command */
	Local_enuErrorState = DIO_enuSetPinVal(RS_PORT, RS_PIN, DIO_u8LOW);
    688a:	80 e0       	ldi	r24, 0x00	; 0
    688c:	60 e0       	ldi	r22, 0x00	; 0
    688e:	40 e0       	ldi	r20, 0x00	; 0
    6890:	0e 94 18 17 	call	0x2e30	; 0x2e30 <DIO_enuSetPinVal>
    6894:	89 83       	std	Y+1, r24	; 0x01
	if(Local_enuErrorState != ES_OK)
    6896:	89 81       	ldd	r24, Y+1	; 0x01
    6898:	88 23       	and	r24, r24
    689a:	19 f0       	breq	.+6      	; 0x68a2 <LCD_enuSendCommand+0x2a>
		return Local_enuErrorState;
    689c:	89 81       	ldd	r24, Y+1	; 0x01
    689e:	8b 83       	std	Y+3, r24	; 0x03
    68a0:	0d c0       	rjmp	.+26     	; 0x68bc <LCD_enuSendCommand+0x44>
	
	/* Call Latch Function */
	Local_enuErrorState = LCD_enuLatch(Copy_u8Command);
    68a2:	8a 81       	ldd	r24, Y+2	; 0x02
    68a4:	0e 94 65 34 	call	0x68ca	; 0x68ca <LCD_enuLatch>
    68a8:	89 83       	std	Y+1, r24	; 0x01
	if(Local_enuErrorState != ES_OK)
    68aa:	89 81       	ldd	r24, Y+1	; 0x01
    68ac:	88 23       	and	r24, r24
    68ae:	19 f0       	breq	.+6      	; 0x68b6 <LCD_enuSendCommand+0x3e>
		return Local_enuErrorState;
    68b0:	89 81       	ldd	r24, Y+1	; 0x01
    68b2:	8b 83       	std	Y+3, r24	; 0x03
    68b4:	03 c0       	rjmp	.+6      	; 0x68bc <LCD_enuSendCommand+0x44>
	
	Local_enuErrorState = ES_OK;
    68b6:	19 82       	std	Y+1, r1	; 0x01
	return Local_enuErrorState;
    68b8:	89 81       	ldd	r24, Y+1	; 0x01
    68ba:	8b 83       	std	Y+3, r24	; 0x03
    68bc:	8b 81       	ldd	r24, Y+3	; 0x03
}
    68be:	0f 90       	pop	r0
    68c0:	0f 90       	pop	r0
    68c2:	0f 90       	pop	r0
    68c4:	cf 91       	pop	r28
    68c6:	df 91       	pop	r29
    68c8:	08 95       	ret

000068ca <LCD_enuLatch>:
 * @retval		: ES_t --> it returns the state of excution of this function
 * @note		: none
 ******************************************************************************
**/
static ES_t LCD_enuLatch(u8 Copy_u8Data)
{	
    68ca:	df 93       	push	r29
    68cc:	cf 93       	push	r28
    68ce:	cd b7       	in	r28, 0x3d	; 61
    68d0:	de b7       	in	r29, 0x3e	; 62
    68d2:	6f 97       	sbiw	r28, 0x1f	; 31
    68d4:	0f b6       	in	r0, 0x3f	; 63
    68d6:	f8 94       	cli
    68d8:	de bf       	out	0x3e, r29	; 62
    68da:	0f be       	out	0x3f, r0	; 63
    68dc:	cd bf       	out	0x3d, r28	; 61
    68de:	8e 8f       	std	Y+30, r24	; 0x1e
	ES_t Local_enuErrorState = ES_NOK;
    68e0:	81 e0       	ldi	r24, 0x01	; 1
    68e2:	8d 8f       	std	Y+29, r24	; 0x1d
	
	/* RW --> LOW to write */
	Local_enuErrorState = DIO_enuSetPinVal(RW_PORT, RW_PIN, DIO_u8LOW);
    68e4:	80 e0       	ldi	r24, 0x00	; 0
    68e6:	61 e0       	ldi	r22, 0x01	; 1
    68e8:	40 e0       	ldi	r20, 0x00	; 0
    68ea:	0e 94 18 17 	call	0x2e30	; 0x2e30 <DIO_enuSetPinVal>
    68ee:	8d 8f       	std	Y+29, r24	; 0x1d
	if(Local_enuErrorState != ES_OK)
    68f0:	8d 8d       	ldd	r24, Y+29	; 0x1d
    68f2:	88 23       	and	r24, r24
    68f4:	19 f0       	breq	.+6      	; 0x68fc <LCD_enuLatch+0x32>
		return Local_enuErrorState;
    68f6:	8d 8d       	ldd	r24, Y+29	; 0x1d
    68f8:	8f 8f       	std	Y+31, r24	; 0x1f
    68fa:	81 c1       	rjmp	.+770    	; 0x6bfe <LCD_enuLatch+0x334>
	
	/* Enable --> HIGH */
	Local_enuErrorState = DIO_enuSetPinVal(EN_PORT, EN_PIN, DIO_u8HIGH);
    68fc:	80 e0       	ldi	r24, 0x00	; 0
    68fe:	62 e0       	ldi	r22, 0x02	; 2
    6900:	41 e0       	ldi	r20, 0x01	; 1
    6902:	0e 94 18 17 	call	0x2e30	; 0x2e30 <DIO_enuSetPinVal>
    6906:	8d 8f       	std	Y+29, r24	; 0x1d
	if(Local_enuErrorState != ES_OK)
    6908:	8d 8d       	ldd	r24, Y+29	; 0x1d
    690a:	88 23       	and	r24, r24
    690c:	19 f0       	breq	.+6      	; 0x6914 <LCD_enuLatch+0x4a>
		return Local_enuErrorState;
    690e:	8d 8d       	ldd	r24, Y+29	; 0x1d
    6910:	8f 8f       	std	Y+31, r24	; 0x1f
    6912:	75 c1       	rjmp	.+746    	; 0x6bfe <LCD_enuLatch+0x334>
	
	#if LCD_MODE == EIGHT_BIT
	/* Write Command to Data Pins */
	Local_enuErrorState = DIO_enuSetPinVal(D7_PORT, D7_PIN, ((Copy_u8Data >> D7_POS) & MASK_BIT));
    6914:	8e 8d       	ldd	r24, Y+30	; 0x1e
    6916:	98 2f       	mov	r25, r24
    6918:	99 1f       	adc	r25, r25
    691a:	99 27       	eor	r25, r25
    691c:	99 1f       	adc	r25, r25
    691e:	81 e0       	ldi	r24, 0x01	; 1
    6920:	67 e0       	ldi	r22, 0x07	; 7
    6922:	49 2f       	mov	r20, r25
    6924:	0e 94 18 17 	call	0x2e30	; 0x2e30 <DIO_enuSetPinVal>
    6928:	8d 8f       	std	Y+29, r24	; 0x1d
	if(Local_enuErrorState != ES_OK)
    692a:	8d 8d       	ldd	r24, Y+29	; 0x1d
    692c:	88 23       	and	r24, r24
    692e:	19 f0       	breq	.+6      	; 0x6936 <LCD_enuLatch+0x6c>
		return Local_enuErrorState;
    6930:	8d 8d       	ldd	r24, Y+29	; 0x1d
    6932:	8f 8f       	std	Y+31, r24	; 0x1f
    6934:	64 c1       	rjmp	.+712    	; 0x6bfe <LCD_enuLatch+0x334>
		
	Local_enuErrorState = DIO_enuSetPinVal(D6_PORT, D6_PIN, ((Copy_u8Data >> D6_POS) & MASK_BIT));
    6936:	8e 8d       	ldd	r24, Y+30	; 0x1e
    6938:	82 95       	swap	r24
    693a:	86 95       	lsr	r24
    693c:	86 95       	lsr	r24
    693e:	83 70       	andi	r24, 0x03	; 3
    6940:	98 2f       	mov	r25, r24
    6942:	91 70       	andi	r25, 0x01	; 1
    6944:	81 e0       	ldi	r24, 0x01	; 1
    6946:	66 e0       	ldi	r22, 0x06	; 6
    6948:	49 2f       	mov	r20, r25
    694a:	0e 94 18 17 	call	0x2e30	; 0x2e30 <DIO_enuSetPinVal>
    694e:	8d 8f       	std	Y+29, r24	; 0x1d
	if(Local_enuErrorState != ES_OK)
    6950:	8d 8d       	ldd	r24, Y+29	; 0x1d
    6952:	88 23       	and	r24, r24
    6954:	19 f0       	breq	.+6      	; 0x695c <LCD_enuLatch+0x92>
		return Local_enuErrorState;
    6956:	8d 8d       	ldd	r24, Y+29	; 0x1d
    6958:	8f 8f       	std	Y+31, r24	; 0x1f
    695a:	51 c1       	rjmp	.+674    	; 0x6bfe <LCD_enuLatch+0x334>
		
	Local_enuErrorState = DIO_enuSetPinVal(D5_PORT, D5_PIN, ((Copy_u8Data >> D5_POS) & MASK_BIT));
    695c:	8e 8d       	ldd	r24, Y+30	; 0x1e
    695e:	82 95       	swap	r24
    6960:	86 95       	lsr	r24
    6962:	87 70       	andi	r24, 0x07	; 7
    6964:	98 2f       	mov	r25, r24
    6966:	91 70       	andi	r25, 0x01	; 1
    6968:	81 e0       	ldi	r24, 0x01	; 1
    696a:	65 e0       	ldi	r22, 0x05	; 5
    696c:	49 2f       	mov	r20, r25
    696e:	0e 94 18 17 	call	0x2e30	; 0x2e30 <DIO_enuSetPinVal>
    6972:	8d 8f       	std	Y+29, r24	; 0x1d
	if(Local_enuErrorState != ES_OK)
    6974:	8d 8d       	ldd	r24, Y+29	; 0x1d
    6976:	88 23       	and	r24, r24
    6978:	19 f0       	breq	.+6      	; 0x6980 <LCD_enuLatch+0xb6>
		return Local_enuErrorState;
    697a:	8d 8d       	ldd	r24, Y+29	; 0x1d
    697c:	8f 8f       	std	Y+31, r24	; 0x1f
    697e:	3f c1       	rjmp	.+638    	; 0x6bfe <LCD_enuLatch+0x334>
		
	Local_enuErrorState = DIO_enuSetPinVal(D4_PORT, D4_PIN, ((Copy_u8Data >> D4_POS) & MASK_BIT));
    6980:	8e 8d       	ldd	r24, Y+30	; 0x1e
    6982:	82 95       	swap	r24
    6984:	8f 70       	andi	r24, 0x0F	; 15
    6986:	98 2f       	mov	r25, r24
    6988:	91 70       	andi	r25, 0x01	; 1
    698a:	81 e0       	ldi	r24, 0x01	; 1
    698c:	64 e0       	ldi	r22, 0x04	; 4
    698e:	49 2f       	mov	r20, r25
    6990:	0e 94 18 17 	call	0x2e30	; 0x2e30 <DIO_enuSetPinVal>
    6994:	8d 8f       	std	Y+29, r24	; 0x1d
	if(Local_enuErrorState != ES_OK)
    6996:	8d 8d       	ldd	r24, Y+29	; 0x1d
    6998:	88 23       	and	r24, r24
    699a:	19 f0       	breq	.+6      	; 0x69a2 <LCD_enuLatch+0xd8>
		return Local_enuErrorState;
    699c:	8d 8d       	ldd	r24, Y+29	; 0x1d
    699e:	8f 8f       	std	Y+31, r24	; 0x1f
    69a0:	2e c1       	rjmp	.+604    	; 0x6bfe <LCD_enuLatch+0x334>
		
	Local_enuErrorState = DIO_enuSetPinVal(D3_PORT, D3_PIN, ((Copy_u8Data >> D3_POS) & MASK_BIT));
    69a2:	8e 8d       	ldd	r24, Y+30	; 0x1e
    69a4:	86 95       	lsr	r24
    69a6:	86 95       	lsr	r24
    69a8:	86 95       	lsr	r24
    69aa:	98 2f       	mov	r25, r24
    69ac:	91 70       	andi	r25, 0x01	; 1
    69ae:	81 e0       	ldi	r24, 0x01	; 1
    69b0:	63 e0       	ldi	r22, 0x03	; 3
    69b2:	49 2f       	mov	r20, r25
    69b4:	0e 94 18 17 	call	0x2e30	; 0x2e30 <DIO_enuSetPinVal>
    69b8:	8d 8f       	std	Y+29, r24	; 0x1d
	if(Local_enuErrorState != ES_OK)
    69ba:	8d 8d       	ldd	r24, Y+29	; 0x1d
    69bc:	88 23       	and	r24, r24
    69be:	19 f0       	breq	.+6      	; 0x69c6 <LCD_enuLatch+0xfc>
		return Local_enuErrorState;
    69c0:	8d 8d       	ldd	r24, Y+29	; 0x1d
    69c2:	8f 8f       	std	Y+31, r24	; 0x1f
    69c4:	1c c1       	rjmp	.+568    	; 0x6bfe <LCD_enuLatch+0x334>
		
	Local_enuErrorState = DIO_enuSetPinVal(D2_PORT, D2_PIN, ((Copy_u8Data >> D2_POS) & MASK_BIT));
    69c6:	8e 8d       	ldd	r24, Y+30	; 0x1e
    69c8:	86 95       	lsr	r24
    69ca:	86 95       	lsr	r24
    69cc:	98 2f       	mov	r25, r24
    69ce:	91 70       	andi	r25, 0x01	; 1
    69d0:	81 e0       	ldi	r24, 0x01	; 1
    69d2:	62 e0       	ldi	r22, 0x02	; 2
    69d4:	49 2f       	mov	r20, r25
    69d6:	0e 94 18 17 	call	0x2e30	; 0x2e30 <DIO_enuSetPinVal>
    69da:	8d 8f       	std	Y+29, r24	; 0x1d
	if(Local_enuErrorState != ES_OK)
    69dc:	8d 8d       	ldd	r24, Y+29	; 0x1d
    69de:	88 23       	and	r24, r24
    69e0:	19 f0       	breq	.+6      	; 0x69e8 <LCD_enuLatch+0x11e>
		return Local_enuErrorState;
    69e2:	8d 8d       	ldd	r24, Y+29	; 0x1d
    69e4:	8f 8f       	std	Y+31, r24	; 0x1f
    69e6:	0b c1       	rjmp	.+534    	; 0x6bfe <LCD_enuLatch+0x334>
	
	Local_enuErrorState = DIO_enuSetPinVal(D1_PORT, D1_PIN, ((Copy_u8Data >> D1_POS) & MASK_BIT));
    69e8:	8e 8d       	ldd	r24, Y+30	; 0x1e
    69ea:	86 95       	lsr	r24
    69ec:	98 2f       	mov	r25, r24
    69ee:	91 70       	andi	r25, 0x01	; 1
    69f0:	81 e0       	ldi	r24, 0x01	; 1
    69f2:	61 e0       	ldi	r22, 0x01	; 1
    69f4:	49 2f       	mov	r20, r25
    69f6:	0e 94 18 17 	call	0x2e30	; 0x2e30 <DIO_enuSetPinVal>
    69fa:	8d 8f       	std	Y+29, r24	; 0x1d
	if(Local_enuErrorState != ES_OK)
    69fc:	8d 8d       	ldd	r24, Y+29	; 0x1d
    69fe:	88 23       	and	r24, r24
    6a00:	19 f0       	breq	.+6      	; 0x6a08 <LCD_enuLatch+0x13e>
		return Local_enuErrorState;
    6a02:	8d 8d       	ldd	r24, Y+29	; 0x1d
    6a04:	8f 8f       	std	Y+31, r24	; 0x1f
    6a06:	fb c0       	rjmp	.+502    	; 0x6bfe <LCD_enuLatch+0x334>
		
	Local_enuErrorState = DIO_enuSetPinVal(D0_PORT, D0_PIN, ((Copy_u8Data >> D0_POS) & MASK_BIT));
    6a08:	8e 8d       	ldd	r24, Y+30	; 0x1e
    6a0a:	98 2f       	mov	r25, r24
    6a0c:	91 70       	andi	r25, 0x01	; 1
    6a0e:	81 e0       	ldi	r24, 0x01	; 1
    6a10:	60 e0       	ldi	r22, 0x00	; 0
    6a12:	49 2f       	mov	r20, r25
    6a14:	0e 94 18 17 	call	0x2e30	; 0x2e30 <DIO_enuSetPinVal>
    6a18:	8d 8f       	std	Y+29, r24	; 0x1d
	if(Local_enuErrorState != ES_OK)
    6a1a:	8d 8d       	ldd	r24, Y+29	; 0x1d
    6a1c:	88 23       	and	r24, r24
    6a1e:	19 f0       	breq	.+6      	; 0x6a26 <LCD_enuLatch+0x15c>
		return Local_enuErrorState;
    6a20:	8d 8d       	ldd	r24, Y+29	; 0x1d
    6a22:	8f 8f       	std	Y+31, r24	; 0x1f
    6a24:	ec c0       	rjmp	.+472    	; 0x6bfe <LCD_enuLatch+0x334>
    6a26:	80 e0       	ldi	r24, 0x00	; 0
    6a28:	90 e0       	ldi	r25, 0x00	; 0
    6a2a:	a0 e8       	ldi	r26, 0x80	; 128
    6a2c:	bf e3       	ldi	r27, 0x3F	; 63
    6a2e:	89 8f       	std	Y+25, r24	; 0x19
    6a30:	9a 8f       	std	Y+26, r25	; 0x1a
    6a32:	ab 8f       	std	Y+27, r26	; 0x1b
    6a34:	bc 8f       	std	Y+28, r27	; 0x1c
 */
void
_delay_ms(double __ms)
{
	uint16_t __ticks;
	double __tmp = ((F_CPU) / 4e3) * __ms;
    6a36:	69 8d       	ldd	r22, Y+25	; 0x19
    6a38:	7a 8d       	ldd	r23, Y+26	; 0x1a
    6a3a:	8b 8d       	ldd	r24, Y+27	; 0x1b
    6a3c:	9c 8d       	ldd	r25, Y+28	; 0x1c
    6a3e:	20 e0       	ldi	r18, 0x00	; 0
    6a40:	30 e0       	ldi	r19, 0x00	; 0
    6a42:	4a e7       	ldi	r20, 0x7A	; 122
    6a44:	53 e4       	ldi	r21, 0x43	; 67
    6a46:	0e 94 1f 02 	call	0x43e	; 0x43e <__mulsf3>
    6a4a:	dc 01       	movw	r26, r24
    6a4c:	cb 01       	movw	r24, r22
    6a4e:	8d 8b       	std	Y+21, r24	; 0x15
    6a50:	9e 8b       	std	Y+22, r25	; 0x16
    6a52:	af 8b       	std	Y+23, r26	; 0x17
    6a54:	b8 8f       	std	Y+24, r27	; 0x18
	if (__tmp < 1.0)
    6a56:	6d 89       	ldd	r22, Y+21	; 0x15
    6a58:	7e 89       	ldd	r23, Y+22	; 0x16
    6a5a:	8f 89       	ldd	r24, Y+23	; 0x17
    6a5c:	98 8d       	ldd	r25, Y+24	; 0x18
    6a5e:	20 e0       	ldi	r18, 0x00	; 0
    6a60:	30 e0       	ldi	r19, 0x00	; 0
    6a62:	40 e8       	ldi	r20, 0x80	; 128
    6a64:	5f e3       	ldi	r21, 0x3F	; 63
    6a66:	0e 94 55 04 	call	0x8aa	; 0x8aa <__ltsf2>
    6a6a:	88 23       	and	r24, r24
    6a6c:	2c f4       	brge	.+10     	; 0x6a78 <LCD_enuLatch+0x1ae>
		__ticks = 1;
    6a6e:	81 e0       	ldi	r24, 0x01	; 1
    6a70:	90 e0       	ldi	r25, 0x00	; 0
    6a72:	9c 8b       	std	Y+20, r25	; 0x14
    6a74:	8b 8b       	std	Y+19, r24	; 0x13
    6a76:	3f c0       	rjmp	.+126    	; 0x6af6 <LCD_enuLatch+0x22c>
	else if (__tmp > 65535)
    6a78:	6d 89       	ldd	r22, Y+21	; 0x15
    6a7a:	7e 89       	ldd	r23, Y+22	; 0x16
    6a7c:	8f 89       	ldd	r24, Y+23	; 0x17
    6a7e:	98 8d       	ldd	r25, Y+24	; 0x18
    6a80:	20 e0       	ldi	r18, 0x00	; 0
    6a82:	3f ef       	ldi	r19, 0xFF	; 255
    6a84:	4f e7       	ldi	r20, 0x7F	; 127
    6a86:	57 e4       	ldi	r21, 0x47	; 71
    6a88:	0e 94 f5 03 	call	0x7ea	; 0x7ea <__gtsf2>
    6a8c:	18 16       	cp	r1, r24
    6a8e:	4c f5       	brge	.+82     	; 0x6ae2 <LCD_enuLatch+0x218>
	{
		//	__ticks = requested delay in 1/10 ms
		__ticks = (uint16_t) (__ms * 10.0);
    6a90:	69 8d       	ldd	r22, Y+25	; 0x19
    6a92:	7a 8d       	ldd	r23, Y+26	; 0x1a
    6a94:	8b 8d       	ldd	r24, Y+27	; 0x1b
    6a96:	9c 8d       	ldd	r25, Y+28	; 0x1c
    6a98:	20 e0       	ldi	r18, 0x00	; 0
    6a9a:	30 e0       	ldi	r19, 0x00	; 0
    6a9c:	40 e2       	ldi	r20, 0x20	; 32
    6a9e:	51 e4       	ldi	r21, 0x41	; 65
    6aa0:	0e 94 1f 02 	call	0x43e	; 0x43e <__mulsf3>
    6aa4:	dc 01       	movw	r26, r24
    6aa6:	cb 01       	movw	r24, r22
    6aa8:	bc 01       	movw	r22, r24
    6aaa:	cd 01       	movw	r24, r26
    6aac:	0e 94 49 00 	call	0x92	; 0x92 <__fixunssfsi>
    6ab0:	dc 01       	movw	r26, r24
    6ab2:	cb 01       	movw	r24, r22
    6ab4:	9c 8b       	std	Y+20, r25	; 0x14
    6ab6:	8b 8b       	std	Y+19, r24	; 0x13
    6ab8:	0f c0       	rjmp	.+30     	; 0x6ad8 <LCD_enuLatch+0x20e>
    6aba:	89 e1       	ldi	r24, 0x19	; 25
    6abc:	90 e0       	ldi	r25, 0x00	; 0
    6abe:	9a 8b       	std	Y+18, r25	; 0x12
    6ac0:	89 8b       	std	Y+17, r24	; 0x11
    6ac2:	89 89       	ldd	r24, Y+17	; 0x11
    6ac4:	9a 89       	ldd	r25, Y+18	; 0x12
    6ac6:	01 97       	sbiw	r24, 0x01	; 1
    6ac8:	f1 f7       	brne	.-4      	; 0x6ac6 <LCD_enuLatch+0x1fc>
    6aca:	9a 8b       	std	Y+18, r25	; 0x12
    6acc:	89 8b       	std	Y+17, r24	; 0x11
		while(__ticks)
		{
			// wait 1/10 ms
			_delay_loop_2(((F_CPU) / 4e3) / 10);
			__ticks --;
    6ace:	8b 89       	ldd	r24, Y+19	; 0x13
    6ad0:	9c 89       	ldd	r25, Y+20	; 0x14
    6ad2:	01 97       	sbiw	r24, 0x01	; 1
    6ad4:	9c 8b       	std	Y+20, r25	; 0x14
    6ad6:	8b 8b       	std	Y+19, r24	; 0x13
		__ticks = 1;
	else if (__tmp > 65535)
	{
		//	__ticks = requested delay in 1/10 ms
		__ticks = (uint16_t) (__ms * 10.0);
		while(__ticks)
    6ad8:	8b 89       	ldd	r24, Y+19	; 0x13
    6ada:	9c 89       	ldd	r25, Y+20	; 0x14
    6adc:	00 97       	sbiw	r24, 0x00	; 0
    6ade:	69 f7       	brne	.-38     	; 0x6aba <LCD_enuLatch+0x1f0>
    6ae0:	14 c0       	rjmp	.+40     	; 0x6b0a <LCD_enuLatch+0x240>
			__ticks --;
		}
		return;
	}
	else
		__ticks = (uint16_t)__tmp;
    6ae2:	6d 89       	ldd	r22, Y+21	; 0x15
    6ae4:	7e 89       	ldd	r23, Y+22	; 0x16
    6ae6:	8f 89       	ldd	r24, Y+23	; 0x17
    6ae8:	98 8d       	ldd	r25, Y+24	; 0x18
    6aea:	0e 94 49 00 	call	0x92	; 0x92 <__fixunssfsi>
    6aee:	dc 01       	movw	r26, r24
    6af0:	cb 01       	movw	r24, r22
    6af2:	9c 8b       	std	Y+20, r25	; 0x14
    6af4:	8b 8b       	std	Y+19, r24	; 0x13
    6af6:	8b 89       	ldd	r24, Y+19	; 0x13
    6af8:	9c 89       	ldd	r25, Y+20	; 0x14
    6afa:	98 8b       	std	Y+16, r25	; 0x10
    6afc:	8f 87       	std	Y+15, r24	; 0x0f
    6afe:	8f 85       	ldd	r24, Y+15	; 0x0f
    6b00:	98 89       	ldd	r25, Y+16	; 0x10
    6b02:	01 97       	sbiw	r24, 0x01	; 1
    6b04:	f1 f7       	brne	.-4      	; 0x6b02 <LCD_enuLatch+0x238>
    6b06:	98 8b       	std	Y+16, r25	; 0x10
    6b08:	8f 87       	std	Y+15, r24	; 0x0f
	#else
	#error "LCD Mode has a wrong configuration"
	#endif
	
	_delay_ms(1);
	DIO_enuSetPinVal(EN_PORT, EN_PIN, DIO_u8LOW);
    6b0a:	80 e0       	ldi	r24, 0x00	; 0
    6b0c:	62 e0       	ldi	r22, 0x02	; 2
    6b0e:	40 e0       	ldi	r20, 0x00	; 0
    6b10:	0e 94 18 17 	call	0x2e30	; 0x2e30 <DIO_enuSetPinVal>
    6b14:	80 e0       	ldi	r24, 0x00	; 0
    6b16:	90 e0       	ldi	r25, 0x00	; 0
    6b18:	a0 e8       	ldi	r26, 0x80	; 128
    6b1a:	bf e3       	ldi	r27, 0x3F	; 63
    6b1c:	8b 87       	std	Y+11, r24	; 0x0b
    6b1e:	9c 87       	std	Y+12, r25	; 0x0c
    6b20:	ad 87       	std	Y+13, r26	; 0x0d
    6b22:	be 87       	std	Y+14, r27	; 0x0e
 */
void
_delay_ms(double __ms)
{
	uint16_t __ticks;
	double __tmp = ((F_CPU) / 4e3) * __ms;
    6b24:	6b 85       	ldd	r22, Y+11	; 0x0b
    6b26:	7c 85       	ldd	r23, Y+12	; 0x0c
    6b28:	8d 85       	ldd	r24, Y+13	; 0x0d
    6b2a:	9e 85       	ldd	r25, Y+14	; 0x0e
    6b2c:	20 e0       	ldi	r18, 0x00	; 0
    6b2e:	30 e0       	ldi	r19, 0x00	; 0
    6b30:	4a e7       	ldi	r20, 0x7A	; 122
    6b32:	53 e4       	ldi	r21, 0x43	; 67
    6b34:	0e 94 1f 02 	call	0x43e	; 0x43e <__mulsf3>
    6b38:	dc 01       	movw	r26, r24
    6b3a:	cb 01       	movw	r24, r22
    6b3c:	8f 83       	std	Y+7, r24	; 0x07
    6b3e:	98 87       	std	Y+8, r25	; 0x08
    6b40:	a9 87       	std	Y+9, r26	; 0x09
    6b42:	ba 87       	std	Y+10, r27	; 0x0a
	if (__tmp < 1.0)
    6b44:	6f 81       	ldd	r22, Y+7	; 0x07
    6b46:	78 85       	ldd	r23, Y+8	; 0x08
    6b48:	89 85       	ldd	r24, Y+9	; 0x09
    6b4a:	9a 85       	ldd	r25, Y+10	; 0x0a
    6b4c:	20 e0       	ldi	r18, 0x00	; 0
    6b4e:	30 e0       	ldi	r19, 0x00	; 0
    6b50:	40 e8       	ldi	r20, 0x80	; 128
    6b52:	5f e3       	ldi	r21, 0x3F	; 63
    6b54:	0e 94 55 04 	call	0x8aa	; 0x8aa <__ltsf2>
    6b58:	88 23       	and	r24, r24
    6b5a:	2c f4       	brge	.+10     	; 0x6b66 <LCD_enuLatch+0x29c>
		__ticks = 1;
    6b5c:	81 e0       	ldi	r24, 0x01	; 1
    6b5e:	90 e0       	ldi	r25, 0x00	; 0
    6b60:	9e 83       	std	Y+6, r25	; 0x06
    6b62:	8d 83       	std	Y+5, r24	; 0x05
    6b64:	3f c0       	rjmp	.+126    	; 0x6be4 <LCD_enuLatch+0x31a>
	else if (__tmp > 65535)
    6b66:	6f 81       	ldd	r22, Y+7	; 0x07
    6b68:	78 85       	ldd	r23, Y+8	; 0x08
    6b6a:	89 85       	ldd	r24, Y+9	; 0x09
    6b6c:	9a 85       	ldd	r25, Y+10	; 0x0a
    6b6e:	20 e0       	ldi	r18, 0x00	; 0
    6b70:	3f ef       	ldi	r19, 0xFF	; 255
    6b72:	4f e7       	ldi	r20, 0x7F	; 127
    6b74:	57 e4       	ldi	r21, 0x47	; 71
    6b76:	0e 94 f5 03 	call	0x7ea	; 0x7ea <__gtsf2>
    6b7a:	18 16       	cp	r1, r24
    6b7c:	4c f5       	brge	.+82     	; 0x6bd0 <LCD_enuLatch+0x306>
	{
		//	__ticks = requested delay in 1/10 ms
		__ticks = (uint16_t) (__ms * 10.0);
    6b7e:	6b 85       	ldd	r22, Y+11	; 0x0b
    6b80:	7c 85       	ldd	r23, Y+12	; 0x0c
    6b82:	8d 85       	ldd	r24, Y+13	; 0x0d
    6b84:	9e 85       	ldd	r25, Y+14	; 0x0e
    6b86:	20 e0       	ldi	r18, 0x00	; 0
    6b88:	30 e0       	ldi	r19, 0x00	; 0
    6b8a:	40 e2       	ldi	r20, 0x20	; 32
    6b8c:	51 e4       	ldi	r21, 0x41	; 65
    6b8e:	0e 94 1f 02 	call	0x43e	; 0x43e <__mulsf3>
    6b92:	dc 01       	movw	r26, r24
    6b94:	cb 01       	movw	r24, r22
    6b96:	bc 01       	movw	r22, r24
    6b98:	cd 01       	movw	r24, r26
    6b9a:	0e 94 49 00 	call	0x92	; 0x92 <__fixunssfsi>
    6b9e:	dc 01       	movw	r26, r24
    6ba0:	cb 01       	movw	r24, r22
    6ba2:	9e 83       	std	Y+6, r25	; 0x06
    6ba4:	8d 83       	std	Y+5, r24	; 0x05
    6ba6:	0f c0       	rjmp	.+30     	; 0x6bc6 <LCD_enuLatch+0x2fc>
    6ba8:	89 e1       	ldi	r24, 0x19	; 25
    6baa:	90 e0       	ldi	r25, 0x00	; 0
    6bac:	9c 83       	std	Y+4, r25	; 0x04
    6bae:	8b 83       	std	Y+3, r24	; 0x03
    6bb0:	8b 81       	ldd	r24, Y+3	; 0x03
    6bb2:	9c 81       	ldd	r25, Y+4	; 0x04
    6bb4:	01 97       	sbiw	r24, 0x01	; 1
    6bb6:	f1 f7       	brne	.-4      	; 0x6bb4 <LCD_enuLatch+0x2ea>
    6bb8:	9c 83       	std	Y+4, r25	; 0x04
    6bba:	8b 83       	std	Y+3, r24	; 0x03
		while(__ticks)
		{
			// wait 1/10 ms
			_delay_loop_2(((F_CPU) / 4e3) / 10);
			__ticks --;
    6bbc:	8d 81       	ldd	r24, Y+5	; 0x05
    6bbe:	9e 81       	ldd	r25, Y+6	; 0x06
    6bc0:	01 97       	sbiw	r24, 0x01	; 1
    6bc2:	9e 83       	std	Y+6, r25	; 0x06
    6bc4:	8d 83       	std	Y+5, r24	; 0x05
		__ticks = 1;
	else if (__tmp > 65535)
	{
		//	__ticks = requested delay in 1/10 ms
		__ticks = (uint16_t) (__ms * 10.0);
		while(__ticks)
    6bc6:	8d 81       	ldd	r24, Y+5	; 0x05
    6bc8:	9e 81       	ldd	r25, Y+6	; 0x06
    6bca:	00 97       	sbiw	r24, 0x00	; 0
    6bcc:	69 f7       	brne	.-38     	; 0x6ba8 <LCD_enuLatch+0x2de>
    6bce:	14 c0       	rjmp	.+40     	; 0x6bf8 <LCD_enuLatch+0x32e>
			__ticks --;
		}
		return;
	}
	else
		__ticks = (uint16_t)__tmp;
    6bd0:	6f 81       	ldd	r22, Y+7	; 0x07
    6bd2:	78 85       	ldd	r23, Y+8	; 0x08
    6bd4:	89 85       	ldd	r24, Y+9	; 0x09
    6bd6:	9a 85       	ldd	r25, Y+10	; 0x0a
    6bd8:	0e 94 49 00 	call	0x92	; 0x92 <__fixunssfsi>
    6bdc:	dc 01       	movw	r26, r24
    6bde:	cb 01       	movw	r24, r22
    6be0:	9e 83       	std	Y+6, r25	; 0x06
    6be2:	8d 83       	std	Y+5, r24	; 0x05
    6be4:	8d 81       	ldd	r24, Y+5	; 0x05
    6be6:	9e 81       	ldd	r25, Y+6	; 0x06
    6be8:	9a 83       	std	Y+2, r25	; 0x02
    6bea:	89 83       	std	Y+1, r24	; 0x01
    6bec:	89 81       	ldd	r24, Y+1	; 0x01
    6bee:	9a 81       	ldd	r25, Y+2	; 0x02
    6bf0:	01 97       	sbiw	r24, 0x01	; 1
    6bf2:	f1 f7       	brne	.-4      	; 0x6bf0 <LCD_enuLatch+0x326>
    6bf4:	9a 83       	std	Y+2, r25	; 0x02
    6bf6:	89 83       	std	Y+1, r24	; 0x01
	_delay_ms(1);
	
	Local_enuErrorState = ES_OK;
    6bf8:	1d 8e       	std	Y+29, r1	; 0x1d
	return Local_enuErrorState;
    6bfa:	8d 8d       	ldd	r24, Y+29	; 0x1d
    6bfc:	8f 8f       	std	Y+31, r24	; 0x1f
    6bfe:	8f 8d       	ldd	r24, Y+31	; 0x1f
}
    6c00:	6f 96       	adiw	r28, 0x1f	; 31
    6c02:	0f b6       	in	r0, 0x3f	; 63
    6c04:	f8 94       	cli
    6c06:	de bf       	out	0x3e, r29	; 62
    6c08:	0f be       	out	0x3f, r0	; 63
    6c0a:	cd bf       	out	0x3d, r28	; 61
    6c0c:	cf 91       	pop	r28
    6c0e:	df 91       	pop	r29
    6c10:	08 95       	ret

00006c12 <LCD_vidTrigger_LATCH>:

static void LCD_vidTrigger_LATCH(void)
{
    6c12:	df 93       	push	r29
    6c14:	cf 93       	push	r28
    6c16:	cd b7       	in	r28, 0x3d	; 61
    6c18:	de b7       	in	r29, 0x3e	; 62
    6c1a:	2e 97       	sbiw	r28, 0x0e	; 14
    6c1c:	0f b6       	in	r0, 0x3f	; 63
    6c1e:	f8 94       	cli
    6c20:	de bf       	out	0x3e, r29	; 62
    6c22:	0f be       	out	0x3f, r0	; 63
    6c24:	cd bf       	out	0x3d, r28	; 61
	/* Enable EN --> it works at Rising Edge */
	DIO_enuSetPinVal(EN_PORT, EN_PIN, DIO_u8LOW);
    6c26:	80 e0       	ldi	r24, 0x00	; 0
    6c28:	62 e0       	ldi	r22, 0x02	; 2
    6c2a:	40 e0       	ldi	r20, 0x00	; 0
    6c2c:	0e 94 18 17 	call	0x2e30	; 0x2e30 <DIO_enuSetPinVal>
    6c30:	80 e0       	ldi	r24, 0x00	; 0
    6c32:	90 e0       	ldi	r25, 0x00	; 0
    6c34:	a0 e2       	ldi	r26, 0x20	; 32
    6c36:	b1 e4       	ldi	r27, 0x41	; 65
    6c38:	8b 87       	std	Y+11, r24	; 0x0b
    6c3a:	9c 87       	std	Y+12, r25	; 0x0c
    6c3c:	ad 87       	std	Y+13, r26	; 0x0d
    6c3e:	be 87       	std	Y+14, r27	; 0x0e
 */
void
_delay_ms(double __ms)
{
	uint16_t __ticks;
	double __tmp = ((F_CPU) / 4e3) * __ms;
    6c40:	6b 85       	ldd	r22, Y+11	; 0x0b
    6c42:	7c 85       	ldd	r23, Y+12	; 0x0c
    6c44:	8d 85       	ldd	r24, Y+13	; 0x0d
    6c46:	9e 85       	ldd	r25, Y+14	; 0x0e
    6c48:	20 e0       	ldi	r18, 0x00	; 0
    6c4a:	30 e0       	ldi	r19, 0x00	; 0
    6c4c:	4a e7       	ldi	r20, 0x7A	; 122
    6c4e:	53 e4       	ldi	r21, 0x43	; 67
    6c50:	0e 94 1f 02 	call	0x43e	; 0x43e <__mulsf3>
    6c54:	dc 01       	movw	r26, r24
    6c56:	cb 01       	movw	r24, r22
    6c58:	8f 83       	std	Y+7, r24	; 0x07
    6c5a:	98 87       	std	Y+8, r25	; 0x08
    6c5c:	a9 87       	std	Y+9, r26	; 0x09
    6c5e:	ba 87       	std	Y+10, r27	; 0x0a
	if (__tmp < 1.0)
    6c60:	6f 81       	ldd	r22, Y+7	; 0x07
    6c62:	78 85       	ldd	r23, Y+8	; 0x08
    6c64:	89 85       	ldd	r24, Y+9	; 0x09
    6c66:	9a 85       	ldd	r25, Y+10	; 0x0a
    6c68:	20 e0       	ldi	r18, 0x00	; 0
    6c6a:	30 e0       	ldi	r19, 0x00	; 0
    6c6c:	40 e8       	ldi	r20, 0x80	; 128
    6c6e:	5f e3       	ldi	r21, 0x3F	; 63
    6c70:	0e 94 55 04 	call	0x8aa	; 0x8aa <__ltsf2>
    6c74:	88 23       	and	r24, r24
    6c76:	2c f4       	brge	.+10     	; 0x6c82 <LCD_vidTrigger_LATCH+0x70>
		__ticks = 1;
    6c78:	81 e0       	ldi	r24, 0x01	; 1
    6c7a:	90 e0       	ldi	r25, 0x00	; 0
    6c7c:	9e 83       	std	Y+6, r25	; 0x06
    6c7e:	8d 83       	std	Y+5, r24	; 0x05
    6c80:	3f c0       	rjmp	.+126    	; 0x6d00 <LCD_vidTrigger_LATCH+0xee>
	else if (__tmp > 65535)
    6c82:	6f 81       	ldd	r22, Y+7	; 0x07
    6c84:	78 85       	ldd	r23, Y+8	; 0x08
    6c86:	89 85       	ldd	r24, Y+9	; 0x09
    6c88:	9a 85       	ldd	r25, Y+10	; 0x0a
    6c8a:	20 e0       	ldi	r18, 0x00	; 0
    6c8c:	3f ef       	ldi	r19, 0xFF	; 255
    6c8e:	4f e7       	ldi	r20, 0x7F	; 127
    6c90:	57 e4       	ldi	r21, 0x47	; 71
    6c92:	0e 94 f5 03 	call	0x7ea	; 0x7ea <__gtsf2>
    6c96:	18 16       	cp	r1, r24
    6c98:	4c f5       	brge	.+82     	; 0x6cec <LCD_vidTrigger_LATCH+0xda>
	{
		//	__ticks = requested delay in 1/10 ms
		__ticks = (uint16_t) (__ms * 10.0);
    6c9a:	6b 85       	ldd	r22, Y+11	; 0x0b
    6c9c:	7c 85       	ldd	r23, Y+12	; 0x0c
    6c9e:	8d 85       	ldd	r24, Y+13	; 0x0d
    6ca0:	9e 85       	ldd	r25, Y+14	; 0x0e
    6ca2:	20 e0       	ldi	r18, 0x00	; 0
    6ca4:	30 e0       	ldi	r19, 0x00	; 0
    6ca6:	40 e2       	ldi	r20, 0x20	; 32
    6ca8:	51 e4       	ldi	r21, 0x41	; 65
    6caa:	0e 94 1f 02 	call	0x43e	; 0x43e <__mulsf3>
    6cae:	dc 01       	movw	r26, r24
    6cb0:	cb 01       	movw	r24, r22
    6cb2:	bc 01       	movw	r22, r24
    6cb4:	cd 01       	movw	r24, r26
    6cb6:	0e 94 49 00 	call	0x92	; 0x92 <__fixunssfsi>
    6cba:	dc 01       	movw	r26, r24
    6cbc:	cb 01       	movw	r24, r22
    6cbe:	9e 83       	std	Y+6, r25	; 0x06
    6cc0:	8d 83       	std	Y+5, r24	; 0x05
    6cc2:	0f c0       	rjmp	.+30     	; 0x6ce2 <LCD_vidTrigger_LATCH+0xd0>
    6cc4:	89 e1       	ldi	r24, 0x19	; 25
    6cc6:	90 e0       	ldi	r25, 0x00	; 0
    6cc8:	9c 83       	std	Y+4, r25	; 0x04
    6cca:	8b 83       	std	Y+3, r24	; 0x03
    6ccc:	8b 81       	ldd	r24, Y+3	; 0x03
    6cce:	9c 81       	ldd	r25, Y+4	; 0x04
    6cd0:	01 97       	sbiw	r24, 0x01	; 1
    6cd2:	f1 f7       	brne	.-4      	; 0x6cd0 <LCD_vidTrigger_LATCH+0xbe>
    6cd4:	9c 83       	std	Y+4, r25	; 0x04
    6cd6:	8b 83       	std	Y+3, r24	; 0x03
		while(__ticks)
		{
			// wait 1/10 ms
			_delay_loop_2(((F_CPU) / 4e3) / 10);
			__ticks --;
    6cd8:	8d 81       	ldd	r24, Y+5	; 0x05
    6cda:	9e 81       	ldd	r25, Y+6	; 0x06
    6cdc:	01 97       	sbiw	r24, 0x01	; 1
    6cde:	9e 83       	std	Y+6, r25	; 0x06
    6ce0:	8d 83       	std	Y+5, r24	; 0x05
		__ticks = 1;
	else if (__tmp > 65535)
	{
		//	__ticks = requested delay in 1/10 ms
		__ticks = (uint16_t) (__ms * 10.0);
		while(__ticks)
    6ce2:	8d 81       	ldd	r24, Y+5	; 0x05
    6ce4:	9e 81       	ldd	r25, Y+6	; 0x06
    6ce6:	00 97       	sbiw	r24, 0x00	; 0
    6ce8:	69 f7       	brne	.-38     	; 0x6cc4 <LCD_vidTrigger_LATCH+0xb2>
    6cea:	14 c0       	rjmp	.+40     	; 0x6d14 <LCD_vidTrigger_LATCH+0x102>
			__ticks --;
		}
		return;
	}
	else
		__ticks = (uint16_t)__tmp;
    6cec:	6f 81       	ldd	r22, Y+7	; 0x07
    6cee:	78 85       	ldd	r23, Y+8	; 0x08
    6cf0:	89 85       	ldd	r24, Y+9	; 0x09
    6cf2:	9a 85       	ldd	r25, Y+10	; 0x0a
    6cf4:	0e 94 49 00 	call	0x92	; 0x92 <__fixunssfsi>
    6cf8:	dc 01       	movw	r26, r24
    6cfa:	cb 01       	movw	r24, r22
    6cfc:	9e 83       	std	Y+6, r25	; 0x06
    6cfe:	8d 83       	std	Y+5, r24	; 0x05
    6d00:	8d 81       	ldd	r24, Y+5	; 0x05
    6d02:	9e 81       	ldd	r25, Y+6	; 0x06
    6d04:	9a 83       	std	Y+2, r25	; 0x02
    6d06:	89 83       	std	Y+1, r24	; 0x01
    6d08:	89 81       	ldd	r24, Y+1	; 0x01
    6d0a:	9a 81       	ldd	r25, Y+2	; 0x02
    6d0c:	01 97       	sbiw	r24, 0x01	; 1
    6d0e:	f1 f7       	brne	.-4      	; 0x6d0c <LCD_vidTrigger_LATCH+0xfa>
    6d10:	9a 83       	std	Y+2, r25	; 0x02
    6d12:	89 83       	std	Y+1, r24	; 0x01
	_delay_ms(10);
	DIO_enuSetPinVal(EN_PORT, EN_PIN, DIO_u8HIGH);
    6d14:	80 e0       	ldi	r24, 0x00	; 0
    6d16:	62 e0       	ldi	r22, 0x02	; 2
    6d18:	41 e0       	ldi	r20, 0x01	; 1
    6d1a:	0e 94 18 17 	call	0x2e30	; 0x2e30 <DIO_enuSetPinVal>
}
    6d1e:	2e 96       	adiw	r28, 0x0e	; 14
    6d20:	0f b6       	in	r0, 0x3f	; 63
    6d22:	f8 94       	cli
    6d24:	de bf       	out	0x3e, r29	; 62
    6d26:	0f be       	out	0x3f, r0	; 63
    6d28:	cd bf       	out	0x3d, r28	; 61
    6d2a:	cf 91       	pop	r28
    6d2c:	df 91       	pop	r29
    6d2e:	08 95       	ret

00006d30 <LCD_inlenuSendCommand>:
 * @retval		: ES_t --> it returns the state of excution of this function
 * @note		: none
 ******************************************************************************
**/
static inline ES_t LCD_inlenuSendCommand(u8 Copy_u8Command)
{
    6d30:	df 93       	push	r29
    6d32:	cf 93       	push	r28
    6d34:	00 d0       	rcall	.+0      	; 0x6d36 <LCD_inlenuSendCommand+0x6>
    6d36:	0f 92       	push	r0
    6d38:	cd b7       	in	r28, 0x3d	; 61
    6d3a:	de b7       	in	r29, 0x3e	; 62
    6d3c:	8a 83       	std	Y+2, r24	; 0x02
	ES_t Local_enuErrorState = ES_NOK;
    6d3e:	81 e0       	ldi	r24, 0x01	; 1
    6d40:	89 83       	std	Y+1, r24	; 0x01
		
	/* RS --> LOW to write Command */
	Local_enuErrorState = DIO_enuSetPinVal(RS_PORT, RS_PIN, DIO_u8LOW);
    6d42:	80 e0       	ldi	r24, 0x00	; 0
    6d44:	60 e0       	ldi	r22, 0x00	; 0
    6d46:	40 e0       	ldi	r20, 0x00	; 0
    6d48:	0e 94 18 17 	call	0x2e30	; 0x2e30 <DIO_enuSetPinVal>
    6d4c:	89 83       	std	Y+1, r24	; 0x01
	if(Local_enuErrorState != ES_OK)
    6d4e:	89 81       	ldd	r24, Y+1	; 0x01
    6d50:	88 23       	and	r24, r24
    6d52:	19 f0       	breq	.+6      	; 0x6d5a <LCD_inlenuSendCommand+0x2a>
		return Local_enuErrorState;	
    6d54:	89 81       	ldd	r24, Y+1	; 0x01
    6d56:	8b 83       	std	Y+3, r24	; 0x03
    6d58:	0d c0       	rjmp	.+26     	; 0x6d74 <LCD_inlenuSendCommand+0x44>

	/* Call Latch Function */
	Local_enuErrorState = LCD_enuLatch(Copy_u8Command);
    6d5a:	8a 81       	ldd	r24, Y+2	; 0x02
    6d5c:	0e 94 65 34 	call	0x68ca	; 0x68ca <LCD_enuLatch>
    6d60:	89 83       	std	Y+1, r24	; 0x01
	if(Local_enuErrorState != ES_OK)
    6d62:	89 81       	ldd	r24, Y+1	; 0x01
    6d64:	88 23       	and	r24, r24
    6d66:	19 f0       	breq	.+6      	; 0x6d6e <LCD_inlenuSendCommand+0x3e>
		return Local_enuErrorState;
    6d68:	89 81       	ldd	r24, Y+1	; 0x01
    6d6a:	8b 83       	std	Y+3, r24	; 0x03
    6d6c:	03 c0       	rjmp	.+6      	; 0x6d74 <LCD_inlenuSendCommand+0x44>
	
	Local_enuErrorState = ES_OK;	
    6d6e:	19 82       	std	Y+1, r1	; 0x01
	return Local_enuErrorState;
    6d70:	89 81       	ldd	r24, Y+1	; 0x01
    6d72:	8b 83       	std	Y+3, r24	; 0x03
    6d74:	8b 81       	ldd	r24, Y+3	; 0x03
}
    6d76:	0f 90       	pop	r0
    6d78:	0f 90       	pop	r0
    6d7a:	0f 90       	pop	r0
    6d7c:	cf 91       	pop	r28
    6d7e:	df 91       	pop	r29
    6d80:	08 95       	ret

00006d82 <LCD_enuGoToPosition>:
 * @retval		: ES_t --> it returns the state of excution of this function
 * @note		: none
 ******************************************************************************
**/
ES_t LCD_enuGoToPosition(u8 Copy_u8Line, u8 Copy_u8Position)
{
    6d82:	df 93       	push	r29
    6d84:	cf 93       	push	r28
    6d86:	00 d0       	rcall	.+0      	; 0x6d88 <LCD_enuGoToPosition+0x6>
    6d88:	00 d0       	rcall	.+0      	; 0x6d8a <LCD_enuGoToPosition+0x8>
    6d8a:	cd b7       	in	r28, 0x3d	; 61
    6d8c:	de b7       	in	r29, 0x3e	; 62
    6d8e:	8a 83       	std	Y+2, r24	; 0x02
    6d90:	6b 83       	std	Y+3, r22	; 0x03
	ES_t Local_enuErrorState = ES_NOK;
    6d92:	81 e0       	ldi	r24, 0x01	; 1
    6d94:	89 83       	std	Y+1, r24	; 0x01
	
	if(Copy_u8Position >= 0 && Copy_u8Position < 16)
    6d96:	8b 81       	ldd	r24, Y+3	; 0x03
    6d98:	80 31       	cpi	r24, 0x10	; 16
    6d9a:	20 f5       	brcc	.+72     	; 0x6de4 <LCD_enuGoToPosition+0x62>
	{
		if(Copy_u8Line == LCD_FIRST_LINE)
    6d9c:	8a 81       	ldd	r24, Y+2	; 0x02
    6d9e:	88 23       	and	r24, r24
    6da0:	79 f4       	brne	.+30     	; 0x6dc0 <LCD_enuGoToPosition+0x3e>
		{
			Local_enuErrorState = LCD_inlenuSendCommand(LCD_BEGIN_AT_FIRST_ROW + Copy_u8Position);
    6da2:	8b 81       	ldd	r24, Y+3	; 0x03
    6da4:	80 58       	subi	r24, 0x80	; 128
    6da6:	0e 94 98 36 	call	0x6d30	; 0x6d30 <LCD_inlenuSendCommand>
    6daa:	89 83       	std	Y+1, r24	; 0x01
			if(Local_enuErrorState != ES_OK)
    6dac:	89 81       	ldd	r24, Y+1	; 0x01
    6dae:	88 23       	and	r24, r24
    6db0:	19 f0       	breq	.+6      	; 0x6db8 <LCD_enuGoToPosition+0x36>
				return Local_enuErrorState;
    6db2:	89 81       	ldd	r24, Y+1	; 0x01
    6db4:	8c 83       	std	Y+4, r24	; 0x04
    6db6:	19 c0       	rjmp	.+50     	; 0x6dea <LCD_enuGoToPosition+0x68>
				
			LCD_u8PosCounter = Copy_u8Position;
    6db8:	8b 81       	ldd	r24, Y+3	; 0x03
    6dba:	80 93 23 02 	sts	0x0223, r24
    6dbe:	12 c0       	rjmp	.+36     	; 0x6de4 <LCD_enuGoToPosition+0x62>
		}
		else if(Copy_u8Line == LCD_SECOND_LINE)
    6dc0:	8a 81       	ldd	r24, Y+2	; 0x02
    6dc2:	81 30       	cpi	r24, 0x01	; 1
    6dc4:	79 f4       	brne	.+30     	; 0x6de4 <LCD_enuGoToPosition+0x62>
		{
			Local_enuErrorState = LCD_inlenuSendCommand(LCD_BEGIN_AT_SECOND_ROW + Copy_u8Position);
    6dc6:	8b 81       	ldd	r24, Y+3	; 0x03
    6dc8:	80 54       	subi	r24, 0x40	; 64
    6dca:	0e 94 98 36 	call	0x6d30	; 0x6d30 <LCD_inlenuSendCommand>
    6dce:	89 83       	std	Y+1, r24	; 0x01
			if(Local_enuErrorState != ES_OK)
    6dd0:	89 81       	ldd	r24, Y+1	; 0x01
    6dd2:	88 23       	and	r24, r24
    6dd4:	19 f0       	breq	.+6      	; 0x6ddc <LCD_enuGoToPosition+0x5a>
				return Local_enuErrorState;
    6dd6:	89 81       	ldd	r24, Y+1	; 0x01
    6dd8:	8c 83       	std	Y+4, r24	; 0x04
    6dda:	07 c0       	rjmp	.+14     	; 0x6dea <LCD_enuGoToPosition+0x68>
				
			LCD_u8PosCounter = Copy_u8Position + 16;
    6ddc:	8b 81       	ldd	r24, Y+3	; 0x03
    6dde:	80 5f       	subi	r24, 0xF0	; 240
    6de0:	80 93 23 02 	sts	0x0223, r24
		}
	}
	
	Local_enuErrorState = ES_OK;
    6de4:	19 82       	std	Y+1, r1	; 0x01
	return Local_enuErrorState;
    6de6:	89 81       	ldd	r24, Y+1	; 0x01
    6de8:	8c 83       	std	Y+4, r24	; 0x04
    6dea:	8c 81       	ldd	r24, Y+4	; 0x04
}
    6dec:	0f 90       	pop	r0
    6dee:	0f 90       	pop	r0
    6df0:	0f 90       	pop	r0
    6df2:	0f 90       	pop	r0
    6df4:	cf 91       	pop	r28
    6df6:	df 91       	pop	r29
    6df8:	08 95       	ret

00006dfa <LCD_vidCheckPosition>:
 * @retval		: ES_t --> it returns the state of excution of this function
 * @note		: none
 ******************************************************************************
**/
static void LCD_vidCheckPosition(void)
{
    6dfa:	df 93       	push	r29
    6dfc:	cf 93       	push	r28
    6dfe:	cd b7       	in	r28, 0x3d	; 61
    6e00:	de b7       	in	r29, 0x3e	; 62
	if(LCD_u8PosCounter == 16)
    6e02:	80 91 23 02 	lds	r24, 0x0223
    6e06:	80 31       	cpi	r24, 0x10	; 16
    6e08:	51 f4       	brne	.+20     	; 0x6e1e <LCD_vidCheckPosition+0x24>
	{
		LCD_enuGoToPosition(LCD_SECOND_LINE, 0);
    6e0a:	81 e0       	ldi	r24, 0x01	; 1
    6e0c:	60 e0       	ldi	r22, 0x00	; 0
    6e0e:	0e 94 c1 36 	call	0x6d82	; 0x6d82 <LCD_enuGoToPosition>
		LCD_u8PosCounter++;
    6e12:	80 91 23 02 	lds	r24, 0x0223
    6e16:	8f 5f       	subi	r24, 0xFF	; 255
    6e18:	80 93 23 02 	sts	0x0223, r24
    6e1c:	13 c0       	rjmp	.+38     	; 0x6e44 <LCD_vidCheckPosition+0x4a>
	}
	else if(LCD_u8PosCounter == 32)
    6e1e:	80 91 23 02 	lds	r24, 0x0223
    6e22:	80 32       	cpi	r24, 0x20	; 32
    6e24:	51 f4       	brne	.+20     	; 0x6e3a <LCD_vidCheckPosition+0x40>
	{
		LCD_inlenuSendCommand(LCD_Clear_Display);
    6e26:	81 e0       	ldi	r24, 0x01	; 1
    6e28:	0e 94 98 36 	call	0x6d30	; 0x6d30 <LCD_inlenuSendCommand>
		LCD_enuGoToPosition(LCD_FIRST_LINE, 0);
    6e2c:	80 e0       	ldi	r24, 0x00	; 0
    6e2e:	60 e0       	ldi	r22, 0x00	; 0
    6e30:	0e 94 c1 36 	call	0x6d82	; 0x6d82 <LCD_enuGoToPosition>
		LCD_u8PosCounter = 0;
    6e34:	10 92 23 02 	sts	0x0223, r1
    6e38:	05 c0       	rjmp	.+10     	; 0x6e44 <LCD_vidCheckPosition+0x4a>
	}
	else
	{
		LCD_u8PosCounter++;
    6e3a:	80 91 23 02 	lds	r24, 0x0223
    6e3e:	8f 5f       	subi	r24, 0xFF	; 255
    6e40:	80 93 23 02 	sts	0x0223, r24
	}
}
    6e44:	cf 91       	pop	r28
    6e46:	df 91       	pop	r29
    6e48:	08 95       	ret

00006e4a <LCD_vidClearScreen>:
 * @retval		: none
 * @note		: none
 ******************************************************************************
**/
void LCD_vidClearScreen(void)
{
    6e4a:	df 93       	push	r29
    6e4c:	cf 93       	push	r28
    6e4e:	cd b7       	in	r28, 0x3d	; 61
    6e50:	de b7       	in	r29, 0x3e	; 62
	LCD_inlenuSendCommand(LCD_Clear_Display);
    6e52:	81 e0       	ldi	r24, 0x01	; 1
    6e54:	0e 94 98 36 	call	0x6d30	; 0x6d30 <LCD_inlenuSendCommand>
	LCD_u8PosCounter = 0;
    6e58:	10 92 23 02 	sts	0x0223, r1
}
    6e5c:	cf 91       	pop	r28
    6e5e:	df 91       	pop	r29
    6e60:	08 95       	ret

00006e62 <LCD_enuWriteString>:
 * @retval		: ES_t --> it returns the state of excution of this function
 * @note		: none
 ******************************************************************************
**/
ES_t LCD_enuWriteString(u8 *Copy_pu8Str)
{
    6e62:	df 93       	push	r29
    6e64:	cf 93       	push	r28
    6e66:	00 d0       	rcall	.+0      	; 0x6e68 <LCD_enuWriteString+0x6>
    6e68:	00 d0       	rcall	.+0      	; 0x6e6a <LCD_enuWriteString+0x8>
    6e6a:	cd b7       	in	r28, 0x3d	; 61
    6e6c:	de b7       	in	r29, 0x3e	; 62
    6e6e:	9b 83       	std	Y+3, r25	; 0x03
    6e70:	8a 83       	std	Y+2, r24	; 0x02
	ES_t Local_enuErrorState = ES_NOK;
    6e72:	81 e0       	ldi	r24, 0x01	; 1
    6e74:	89 83       	std	Y+1, r24	; 0x01
	
	if(Copy_pu8Str != NULL)
    6e76:	8a 81       	ldd	r24, Y+2	; 0x02
    6e78:	9b 81       	ldd	r25, Y+3	; 0x03
    6e7a:	00 97       	sbiw	r24, 0x00	; 0
    6e7c:	e1 f0       	breq	.+56     	; 0x6eb6 <LCD_enuWriteString+0x54>
    6e7e:	11 c0       	rjmp	.+34     	; 0x6ea2 <LCD_enuWriteString+0x40>
	{
		while(*Copy_pu8Str != '\0')
		{
			Local_enuErrorState = LCD_enuDisplayChar(*Copy_pu8Str);
    6e80:	ea 81       	ldd	r30, Y+2	; 0x02
    6e82:	fb 81       	ldd	r31, Y+3	; 0x03
    6e84:	80 81       	ld	r24, Z
    6e86:	0e 94 11 34 	call	0x6822	; 0x6822 <LCD_enuDisplayChar>
    6e8a:	89 83       	std	Y+1, r24	; 0x01
			if(Local_enuErrorState != ES_OK)
    6e8c:	89 81       	ldd	r24, Y+1	; 0x01
    6e8e:	88 23       	and	r24, r24
    6e90:	19 f0       	breq	.+6      	; 0x6e98 <LCD_enuWriteString+0x36>
				return Local_enuErrorState;
    6e92:	89 81       	ldd	r24, Y+1	; 0x01
    6e94:	8c 83       	std	Y+4, r24	; 0x04
    6e96:	11 c0       	rjmp	.+34     	; 0x6eba <LCD_enuWriteString+0x58>
			Copy_pu8Str++;
    6e98:	8a 81       	ldd	r24, Y+2	; 0x02
    6e9a:	9b 81       	ldd	r25, Y+3	; 0x03
    6e9c:	01 96       	adiw	r24, 0x01	; 1
    6e9e:	9b 83       	std	Y+3, r25	; 0x03
    6ea0:	8a 83       	std	Y+2, r24	; 0x02
{
	ES_t Local_enuErrorState = ES_NOK;
	
	if(Copy_pu8Str != NULL)
	{
		while(*Copy_pu8Str != '\0')
    6ea2:	ea 81       	ldd	r30, Y+2	; 0x02
    6ea4:	fb 81       	ldd	r31, Y+3	; 0x03
    6ea6:	80 81       	ld	r24, Z
    6ea8:	88 23       	and	r24, r24
    6eaa:	51 f7       	brne	.-44     	; 0x6e80 <LCD_enuWriteString+0x1e>
			Local_enuErrorState = LCD_enuDisplayChar(*Copy_pu8Str);
			if(Local_enuErrorState != ES_OK)
				return Local_enuErrorState;
			Copy_pu8Str++;
		}
		Local_enuErrorState = ES_OK;
    6eac:	19 82       	std	Y+1, r1	; 0x01
	else
	{
		return ES_NULL_POINTER;
	}
	
	Local_enuErrorState = ES_OK;
    6eae:	19 82       	std	Y+1, r1	; 0x01
	return Local_enuErrorState;
    6eb0:	89 81       	ldd	r24, Y+1	; 0x01
    6eb2:	8c 83       	std	Y+4, r24	; 0x04
    6eb4:	02 c0       	rjmp	.+4      	; 0x6eba <LCD_enuWriteString+0x58>
		}
		Local_enuErrorState = ES_OK;
	}
	else
	{
		return ES_NULL_POINTER;
    6eb6:	82 e0       	ldi	r24, 0x02	; 2
    6eb8:	8c 83       	std	Y+4, r24	; 0x04
    6eba:	8c 81       	ldd	r24, Y+4	; 0x04
	}
	
	Local_enuErrorState = ES_OK;
	return Local_enuErrorState;
}
    6ebc:	0f 90       	pop	r0
    6ebe:	0f 90       	pop	r0
    6ec0:	0f 90       	pop	r0
    6ec2:	0f 90       	pop	r0
    6ec4:	cf 91       	pop	r28
    6ec6:	df 91       	pop	r29
    6ec8:	08 95       	ret

00006eca <LCD_enuWriteIntNumber>:
 * @retval		: ES_t --> it returns the state of excution of this function
 * @note		: none
 ******************************************************************************
**/
ES_t LCD_enuWriteIntNumber(s32 Copy_s32Number)
{
    6eca:	df 93       	push	r29
    6ecc:	cf 93       	push	r28
    6ece:	cd b7       	in	r28, 0x3d	; 61
    6ed0:	de b7       	in	r29, 0x3e	; 62
    6ed2:	66 97       	sbiw	r28, 0x16	; 22
    6ed4:	0f b6       	in	r0, 0x3f	; 63
    6ed6:	f8 94       	cli
    6ed8:	de bf       	out	0x3e, r29	; 62
    6eda:	0f be       	out	0x3f, r0	; 63
    6edc:	cd bf       	out	0x3d, r28	; 61
    6ede:	6b 8b       	std	Y+19, r22	; 0x13
    6ee0:	7c 8b       	std	Y+20, r23	; 0x14
    6ee2:	8d 8b       	std	Y+21, r24	; 0x15
    6ee4:	9e 8b       	std	Y+22, r25	; 0x16
	ES_t Local_enuErrorState = ES_NOK;
    6ee6:	81 e0       	ldi	r24, 0x01	; 1
    6ee8:	8a 83       	std	Y+2, r24	; 0x02
	u8 Local_As8Container[16];
	u8 Local_u8Iterator;
	
	sprintf(Local_As8Container, "%d", Copy_s32Number);
    6eea:	8d b7       	in	r24, 0x3d	; 61
    6eec:	9e b7       	in	r25, 0x3e	; 62
    6eee:	08 97       	sbiw	r24, 0x08	; 8
    6ef0:	0f b6       	in	r0, 0x3f	; 63
    6ef2:	f8 94       	cli
    6ef4:	9e bf       	out	0x3e, r25	; 62
    6ef6:	0f be       	out	0x3f, r0	; 63
    6ef8:	8d bf       	out	0x3d, r24	; 61
    6efa:	ed b7       	in	r30, 0x3d	; 61
    6efc:	fe b7       	in	r31, 0x3e	; 62
    6efe:	31 96       	adiw	r30, 0x01	; 1
    6f00:	ce 01       	movw	r24, r28
    6f02:	03 96       	adiw	r24, 0x03	; 3
    6f04:	91 83       	std	Z+1, r25	; 0x01
    6f06:	80 83       	st	Z, r24
    6f08:	80 e6       	ldi	r24, 0x60	; 96
    6f0a:	90 e0       	ldi	r25, 0x00	; 0
    6f0c:	93 83       	std	Z+3, r25	; 0x03
    6f0e:	82 83       	std	Z+2, r24	; 0x02
    6f10:	8b 89       	ldd	r24, Y+19	; 0x13
    6f12:	9c 89       	ldd	r25, Y+20	; 0x14
    6f14:	ad 89       	ldd	r26, Y+21	; 0x15
    6f16:	be 89       	ldd	r27, Y+22	; 0x16
    6f18:	84 83       	std	Z+4, r24	; 0x04
    6f1a:	95 83       	std	Z+5, r25	; 0x05
    6f1c:	a6 83       	std	Z+6, r26	; 0x06
    6f1e:	b7 83       	std	Z+7, r27	; 0x07
    6f20:	0e 94 91 39 	call	0x7322	; 0x7322 <sprintf>
    6f24:	8d b7       	in	r24, 0x3d	; 61
    6f26:	9e b7       	in	r25, 0x3e	; 62
    6f28:	08 96       	adiw	r24, 0x08	; 8
    6f2a:	0f b6       	in	r0, 0x3f	; 63
    6f2c:	f8 94       	cli
    6f2e:	9e bf       	out	0x3e, r25	; 62
    6f30:	0f be       	out	0x3f, r0	; 63
    6f32:	8d bf       	out	0x3d, r24	; 61
	
	for(Local_u8Iterator = 0; Local_As8Container[Local_u8Iterator] != '\0'; Local_u8Iterator++)
    6f34:	19 82       	std	Y+1, r1	; 0x01
    6f36:	0f c0       	rjmp	.+30     	; 0x6f56 <LCD_enuWriteIntNumber+0x8c>
	{
		Local_enuErrorState = LCD_enuDisplayChar(Local_As8Container[Local_u8Iterator]);
    6f38:	89 81       	ldd	r24, Y+1	; 0x01
    6f3a:	28 2f       	mov	r18, r24
    6f3c:	30 e0       	ldi	r19, 0x00	; 0
    6f3e:	ce 01       	movw	r24, r28
    6f40:	03 96       	adiw	r24, 0x03	; 3
    6f42:	fc 01       	movw	r30, r24
    6f44:	e2 0f       	add	r30, r18
    6f46:	f3 1f       	adc	r31, r19
    6f48:	80 81       	ld	r24, Z
    6f4a:	0e 94 11 34 	call	0x6822	; 0x6822 <LCD_enuDisplayChar>
    6f4e:	8a 83       	std	Y+2, r24	; 0x02
	u8 Local_As8Container[16];
	u8 Local_u8Iterator;
	
	sprintf(Local_As8Container, "%d", Copy_s32Number);
	
	for(Local_u8Iterator = 0; Local_As8Container[Local_u8Iterator] != '\0'; Local_u8Iterator++)
    6f50:	89 81       	ldd	r24, Y+1	; 0x01
    6f52:	8f 5f       	subi	r24, 0xFF	; 255
    6f54:	89 83       	std	Y+1, r24	; 0x01
    6f56:	89 81       	ldd	r24, Y+1	; 0x01
    6f58:	28 2f       	mov	r18, r24
    6f5a:	30 e0       	ldi	r19, 0x00	; 0
    6f5c:	ce 01       	movw	r24, r28
    6f5e:	03 96       	adiw	r24, 0x03	; 3
    6f60:	fc 01       	movw	r30, r24
    6f62:	e2 0f       	add	r30, r18
    6f64:	f3 1f       	adc	r31, r19
    6f66:	80 81       	ld	r24, Z
    6f68:	88 23       	and	r24, r24
    6f6a:	31 f7       	brne	.-52     	; 0x6f38 <LCD_enuWriteIntNumber+0x6e>
	{
		Local_enuErrorState = LCD_enuDisplayChar(Local_As8Container[Local_u8Iterator]);
	}
	
	return Local_enuErrorState;
    6f6c:	8a 81       	ldd	r24, Y+2	; 0x02
}
    6f6e:	66 96       	adiw	r28, 0x16	; 22
    6f70:	0f b6       	in	r0, 0x3f	; 63
    6f72:	f8 94       	cli
    6f74:	de bf       	out	0x3e, r29	; 62
    6f76:	0f be       	out	0x3f, r0	; 63
    6f78:	cd bf       	out	0x3d, r28	; 61
    6f7a:	cf 91       	pop	r28
    6f7c:	df 91       	pop	r29
    6f7e:	08 95       	ret

00006f80 <LCD_enuWriteFloatNumber>:

ES_t LCD_enuWriteFloatNumber(f32 Copy_f32Number)
{
    6f80:	df 93       	push	r29
    6f82:	cf 93       	push	r28
    6f84:	cd b7       	in	r28, 0x3d	; 61
    6f86:	de b7       	in	r29, 0x3e	; 62
    6f88:	2d 97       	sbiw	r28, 0x0d	; 13
    6f8a:	0f b6       	in	r0, 0x3f	; 63
    6f8c:	f8 94       	cli
    6f8e:	de bf       	out	0x3e, r29	; 62
    6f90:	0f be       	out	0x3f, r0	; 63
    6f92:	cd bf       	out	0x3d, r28	; 61
    6f94:	6a 87       	std	Y+10, r22	; 0x0a
    6f96:	7b 87       	std	Y+11, r23	; 0x0b
    6f98:	8c 87       	std	Y+12, r24	; 0x0c
    6f9a:	9d 87       	std	Y+13, r25	; 0x0d
	ES_t Local_enuErrorState = ES_NOK;
    6f9c:	81 e0       	ldi	r24, 0x01	; 1
    6f9e:	89 87       	std	Y+9, r24	; 0x09
	
	f32 Local_f32FracNum = Copy_f32Number - (u32)Copy_f32Number;
    6fa0:	6a 85       	ldd	r22, Y+10	; 0x0a
    6fa2:	7b 85       	ldd	r23, Y+11	; 0x0b
    6fa4:	8c 85       	ldd	r24, Y+12	; 0x0c
    6fa6:	9d 85       	ldd	r25, Y+13	; 0x0d
    6fa8:	0e 94 49 00 	call	0x92	; 0x92 <__fixunssfsi>
    6fac:	dc 01       	movw	r26, r24
    6fae:	cb 01       	movw	r24, r22
    6fb0:	bc 01       	movw	r22, r24
    6fb2:	cd 01       	movw	r24, r26
    6fb4:	0e 94 d9 04 	call	0x9b2	; 0x9b2 <__floatunsisf>
    6fb8:	9b 01       	movw	r18, r22
    6fba:	ac 01       	movw	r20, r24
    6fbc:	6a 85       	ldd	r22, Y+10	; 0x0a
    6fbe:	7b 85       	ldd	r23, Y+11	; 0x0b
    6fc0:	8c 85       	ldd	r24, Y+12	; 0x0c
    6fc2:	9d 85       	ldd	r25, Y+13	; 0x0d
    6fc4:	0e 94 c1 01 	call	0x382	; 0x382 <__subsf3>
    6fc8:	dc 01       	movw	r26, r24
    6fca:	cb 01       	movw	r24, r22
    6fcc:	8d 83       	std	Y+5, r24	; 0x05
    6fce:	9e 83       	std	Y+6, r25	; 0x06
    6fd0:	af 83       	std	Y+7, r26	; 0x07
    6fd2:	b8 87       	std	Y+8, r27	; 0x08
	s32 Local_s32IntNum = Copy_f32Number - Local_f32FracNum;
    6fd4:	6a 85       	ldd	r22, Y+10	; 0x0a
    6fd6:	7b 85       	ldd	r23, Y+11	; 0x0b
    6fd8:	8c 85       	ldd	r24, Y+12	; 0x0c
    6fda:	9d 85       	ldd	r25, Y+13	; 0x0d
    6fdc:	2d 81       	ldd	r18, Y+5	; 0x05
    6fde:	3e 81       	ldd	r19, Y+6	; 0x06
    6fe0:	4f 81       	ldd	r20, Y+7	; 0x07
    6fe2:	58 85       	ldd	r21, Y+8	; 0x08
    6fe4:	0e 94 c1 01 	call	0x382	; 0x382 <__subsf3>
    6fe8:	dc 01       	movw	r26, r24
    6fea:	cb 01       	movw	r24, r22
    6fec:	bc 01       	movw	r22, r24
    6fee:	cd 01       	movw	r24, r26
    6ff0:	0e 94 85 04 	call	0x90a	; 0x90a <__fixsfsi>
    6ff4:	dc 01       	movw	r26, r24
    6ff6:	cb 01       	movw	r24, r22
    6ff8:	89 83       	std	Y+1, r24	; 0x01
    6ffa:	9a 83       	std	Y+2, r25	; 0x02
    6ffc:	ab 83       	std	Y+3, r26	; 0x03
    6ffe:	bc 83       	std	Y+4, r27	; 0x04
	LCD_enuWriteIntNumber(Local_s32IntNum);
    7000:	89 81       	ldd	r24, Y+1	; 0x01
    7002:	9a 81       	ldd	r25, Y+2	; 0x02
    7004:	ab 81       	ldd	r26, Y+3	; 0x03
    7006:	bc 81       	ldd	r27, Y+4	; 0x04
    7008:	bc 01       	movw	r22, r24
    700a:	cd 01       	movw	r24, r26
    700c:	0e 94 65 37 	call	0x6eca	; 0x6eca <LCD_enuWriteIntNumber>
	LCD_enuDisplayChar('.');
    7010:	8e e2       	ldi	r24, 0x2E	; 46
    7012:	0e 94 11 34 	call	0x6822	; 0x6822 <LCD_enuDisplayChar>
	LCD_enuWriteIntNumber(Local_f32FracNum * 100000);
    7016:	6d 81       	ldd	r22, Y+5	; 0x05
    7018:	7e 81       	ldd	r23, Y+6	; 0x06
    701a:	8f 81       	ldd	r24, Y+7	; 0x07
    701c:	98 85       	ldd	r25, Y+8	; 0x08
    701e:	20 e0       	ldi	r18, 0x00	; 0
    7020:	30 e5       	ldi	r19, 0x50	; 80
    7022:	43 ec       	ldi	r20, 0xC3	; 195
    7024:	57 e4       	ldi	r21, 0x47	; 71
    7026:	0e 94 1f 02 	call	0x43e	; 0x43e <__mulsf3>
    702a:	dc 01       	movw	r26, r24
    702c:	cb 01       	movw	r24, r22
    702e:	bc 01       	movw	r22, r24
    7030:	cd 01       	movw	r24, r26
    7032:	0e 94 85 04 	call	0x90a	; 0x90a <__fixsfsi>
    7036:	dc 01       	movw	r26, r24
    7038:	cb 01       	movw	r24, r22
    703a:	bc 01       	movw	r22, r24
    703c:	cd 01       	movw	r24, r26
    703e:	0e 94 65 37 	call	0x6eca	; 0x6eca <LCD_enuWriteIntNumber>
	
	return Local_enuErrorState;
    7042:	89 85       	ldd	r24, Y+9	; 0x09
}
    7044:	2d 96       	adiw	r28, 0x0d	; 13
    7046:	0f b6       	in	r0, 0x3f	; 63
    7048:	f8 94       	cli
    704a:	de bf       	out	0x3e, r29	; 62
    704c:	0f be       	out	0x3f, r0	; 63
    704e:	cd bf       	out	0x3d, r28	; 61
    7050:	cf 91       	pop	r28
    7052:	df 91       	pop	r29
    7054:	08 95       	ret

00007056 <LCD_enuCustomCharacter>:

ES_t LCD_enuCustomCharacter(u8 *Copy_ArrCustomChar)
{
    7056:	df 93       	push	r29
    7058:	cf 93       	push	r28
    705a:	00 d0       	rcall	.+0      	; 0x705c <LCD_enuCustomCharacter+0x6>
    705c:	0f 92       	push	r0
    705e:	cd b7       	in	r28, 0x3d	; 61
    7060:	de b7       	in	r29, 0x3e	; 62
    7062:	9b 83       	std	Y+3, r25	; 0x03
    7064:	8a 83       	std	Y+2, r24	; 0x02
	ES_t Local_enuErrorState = ES_NOK;
    7066:	81 e0       	ldi	r24, 0x01	; 1
    7068:	89 83       	std	Y+1, r24	; 0x01
	
	LCD_inlenuSendCommand(64);
    706a:	80 e4       	ldi	r24, 0x40	; 64
    706c:	0e 94 98 36 	call	0x6d30	; 0x6d30 <LCD_inlenuSendCommand>
    7070:	0a c0       	rjmp	.+20     	; 0x7086 <LCD_enuCustomCharacter+0x30>
	
	while(*Copy_ArrCustomChar != 0)
	{
		LCD_enuDisplayChar(*Copy_ArrCustomChar);
    7072:	ea 81       	ldd	r30, Y+2	; 0x02
    7074:	fb 81       	ldd	r31, Y+3	; 0x03
    7076:	80 81       	ld	r24, Z
    7078:	0e 94 11 34 	call	0x6822	; 0x6822 <LCD_enuDisplayChar>
		Copy_ArrCustomChar++;
    707c:	8a 81       	ldd	r24, Y+2	; 0x02
    707e:	9b 81       	ldd	r25, Y+3	; 0x03
    7080:	01 96       	adiw	r24, 0x01	; 1
    7082:	9b 83       	std	Y+3, r25	; 0x03
    7084:	8a 83       	std	Y+2, r24	; 0x02
{
	ES_t Local_enuErrorState = ES_NOK;
	
	LCD_inlenuSendCommand(64);
	
	while(*Copy_ArrCustomChar != 0)
    7086:	ea 81       	ldd	r30, Y+2	; 0x02
    7088:	fb 81       	ldd	r31, Y+3	; 0x03
    708a:	80 81       	ld	r24, Z
    708c:	88 23       	and	r24, r24
    708e:	89 f7       	brne	.-30     	; 0x7072 <LCD_enuCustomCharacter+0x1c>
	{
		LCD_enuDisplayChar(*Copy_ArrCustomChar);
		Copy_ArrCustomChar++;
	}
	
	LCD_inlenuSendCommand(LCD_BEGIN_AT_FIRST_ROW);
    7090:	80 e8       	ldi	r24, 0x80	; 128
    7092:	0e 94 98 36 	call	0x6d30	; 0x6d30 <LCD_inlenuSendCommand>
	LCD_enuDisplayChar(0);
    7096:	80 e0       	ldi	r24, 0x00	; 0
    7098:	0e 94 11 34 	call	0x6822	; 0x6822 <LCD_enuDisplayChar>
	
	return Local_enuErrorState;
    709c:	89 81       	ldd	r24, Y+1	; 0x01
    709e:	0f 90       	pop	r0
    70a0:	0f 90       	pop	r0
    70a2:	0f 90       	pop	r0
    70a4:	cf 91       	pop	r28
    70a6:	df 91       	pop	r29
    70a8:	08 95       	ret

000070aa <KEYPAD_enuInit>:
 * @retval		: ES_t --> it returns the error state of excution of this function
 * @note		: none
 ******************************************************************************
**/
ES_t KEYPAD_enuInit(void)
{
    70aa:	df 93       	push	r29
    70ac:	cf 93       	push	r28
    70ae:	0f 92       	push	r0
    70b0:	cd b7       	in	r28, 0x3d	; 61
    70b2:	de b7       	in	r29, 0x3e	; 62
	ES_t Local_u8ErrorState = ES_NOK;
    70b4:	81 e0       	ldi	r24, 0x01	; 1
    70b6:	89 83       	std	Y+1, r24	; 0x01
	
	/* Configure Column pins as output high */
	/* Output */
	Local_u8ErrorState = DIO_enuSetPinDirection(KEYPAD_C1_PORT, KEYPAD_C1_PIN, DIO_u8OUTPUT);
    70b8:	82 e0       	ldi	r24, 0x02	; 2
    70ba:	60 e0       	ldi	r22, 0x00	; 0
    70bc:	41 e0       	ldi	r20, 0x01	; 1
    70be:	0e 94 2c 16 	call	0x2c58	; 0x2c58 <DIO_enuSetPinDirection>
    70c2:	89 83       	std	Y+1, r24	; 0x01
	Local_u8ErrorState = DIO_enuSetPinDirection(KEYPAD_C2_PORT, KEYPAD_C2_PIN, DIO_u8OUTPUT);
    70c4:	82 e0       	ldi	r24, 0x02	; 2
    70c6:	61 e0       	ldi	r22, 0x01	; 1
    70c8:	41 e0       	ldi	r20, 0x01	; 1
    70ca:	0e 94 2c 16 	call	0x2c58	; 0x2c58 <DIO_enuSetPinDirection>
    70ce:	89 83       	std	Y+1, r24	; 0x01
	Local_u8ErrorState = DIO_enuSetPinDirection(KEYPAD_C3_PORT, KEYPAD_C3_PIN, DIO_u8OUTPUT);
    70d0:	82 e0       	ldi	r24, 0x02	; 2
    70d2:	62 e0       	ldi	r22, 0x02	; 2
    70d4:	41 e0       	ldi	r20, 0x01	; 1
    70d6:	0e 94 2c 16 	call	0x2c58	; 0x2c58 <DIO_enuSetPinDirection>
    70da:	89 83       	std	Y+1, r24	; 0x01
	Local_u8ErrorState = DIO_enuSetPinDirection(KEYPAD_C4_PORT, KEYPAD_C4_PIN, DIO_u8OUTPUT);
    70dc:	82 e0       	ldi	r24, 0x02	; 2
    70de:	63 e0       	ldi	r22, 0x03	; 3
    70e0:	41 e0       	ldi	r20, 0x01	; 1
    70e2:	0e 94 2c 16 	call	0x2c58	; 0x2c58 <DIO_enuSetPinDirection>
    70e6:	89 83       	std	Y+1, r24	; 0x01
	
	/* High */
	Local_u8ErrorState = DIO_enuSetPinVal(KEYPAD_C1_PORT, KEYPAD_C1_PIN, DIO_u8HIGH);
    70e8:	82 e0       	ldi	r24, 0x02	; 2
    70ea:	60 e0       	ldi	r22, 0x00	; 0
    70ec:	41 e0       	ldi	r20, 0x01	; 1
    70ee:	0e 94 18 17 	call	0x2e30	; 0x2e30 <DIO_enuSetPinVal>
    70f2:	89 83       	std	Y+1, r24	; 0x01
	Local_u8ErrorState = DIO_enuSetPinVal(KEYPAD_C2_PORT, KEYPAD_C2_PIN, DIO_u8HIGH);
    70f4:	82 e0       	ldi	r24, 0x02	; 2
    70f6:	61 e0       	ldi	r22, 0x01	; 1
    70f8:	41 e0       	ldi	r20, 0x01	; 1
    70fa:	0e 94 18 17 	call	0x2e30	; 0x2e30 <DIO_enuSetPinVal>
    70fe:	89 83       	std	Y+1, r24	; 0x01
	Local_u8ErrorState = DIO_enuSetPinVal(KEYPAD_C3_PORT, KEYPAD_C3_PIN, DIO_u8HIGH);
    7100:	82 e0       	ldi	r24, 0x02	; 2
    7102:	62 e0       	ldi	r22, 0x02	; 2
    7104:	41 e0       	ldi	r20, 0x01	; 1
    7106:	0e 94 18 17 	call	0x2e30	; 0x2e30 <DIO_enuSetPinVal>
    710a:	89 83       	std	Y+1, r24	; 0x01
	Local_u8ErrorState = DIO_enuSetPinVal(KEYPAD_C4_PORT, KEYPAD_C4_PIN, DIO_u8HIGH);
    710c:	82 e0       	ldi	r24, 0x02	; 2
    710e:	63 e0       	ldi	r22, 0x03	; 3
    7110:	41 e0       	ldi	r20, 0x01	; 1
    7112:	0e 94 18 17 	call	0x2e30	; 0x2e30 <DIO_enuSetPinVal>
    7116:	89 83       	std	Y+1, r24	; 0x01
	
	/* Configure Row pins as input pull-up */
	/* Input */
	Local_u8ErrorState = DIO_enuSetPinDirection(KEYPAD_R1_PORT, KEYPAD_R1_PIN, DIO_u8INPUT);
    7118:	82 e0       	ldi	r24, 0x02	; 2
    711a:	64 e0       	ldi	r22, 0x04	; 4
    711c:	40 e0       	ldi	r20, 0x00	; 0
    711e:	0e 94 2c 16 	call	0x2c58	; 0x2c58 <DIO_enuSetPinDirection>
    7122:	89 83       	std	Y+1, r24	; 0x01
	Local_u8ErrorState = DIO_enuSetPinDirection(KEYPAD_R2_PORT, KEYPAD_R2_PIN, DIO_u8INPUT);
    7124:	82 e0       	ldi	r24, 0x02	; 2
    7126:	65 e0       	ldi	r22, 0x05	; 5
    7128:	40 e0       	ldi	r20, 0x00	; 0
    712a:	0e 94 2c 16 	call	0x2c58	; 0x2c58 <DIO_enuSetPinDirection>
    712e:	89 83       	std	Y+1, r24	; 0x01
	Local_u8ErrorState = DIO_enuSetPinDirection(KEYPAD_R3_PORT, KEYPAD_R3_PIN, DIO_u8INPUT);
    7130:	82 e0       	ldi	r24, 0x02	; 2
    7132:	66 e0       	ldi	r22, 0x06	; 6
    7134:	40 e0       	ldi	r20, 0x00	; 0
    7136:	0e 94 2c 16 	call	0x2c58	; 0x2c58 <DIO_enuSetPinDirection>
    713a:	89 83       	std	Y+1, r24	; 0x01
	Local_u8ErrorState = DIO_enuSetPinDirection(KEYPAD_R4_PORT, KEYPAD_R4_PIN, DIO_u8INPUT);
    713c:	82 e0       	ldi	r24, 0x02	; 2
    713e:	67 e0       	ldi	r22, 0x07	; 7
    7140:	40 e0       	ldi	r20, 0x00	; 0
    7142:	0e 94 2c 16 	call	0x2c58	; 0x2c58 <DIO_enuSetPinDirection>
    7146:	89 83       	std	Y+1, r24	; 0x01
	
	/* Pull-UP */
	Local_u8ErrorState = DIO_enuSetPinVal(KEYPAD_R1_PORT, KEYPAD_R1_PIN, DIO_u8PULL_UP);
    7148:	82 e0       	ldi	r24, 0x02	; 2
    714a:	64 e0       	ldi	r22, 0x04	; 4
    714c:	41 e0       	ldi	r20, 0x01	; 1
    714e:	0e 94 18 17 	call	0x2e30	; 0x2e30 <DIO_enuSetPinVal>
    7152:	89 83       	std	Y+1, r24	; 0x01
	Local_u8ErrorState = DIO_enuSetPinVal(KEYPAD_R2_PORT, KEYPAD_R2_PIN, DIO_u8PULL_UP);
    7154:	82 e0       	ldi	r24, 0x02	; 2
    7156:	65 e0       	ldi	r22, 0x05	; 5
    7158:	41 e0       	ldi	r20, 0x01	; 1
    715a:	0e 94 18 17 	call	0x2e30	; 0x2e30 <DIO_enuSetPinVal>
    715e:	89 83       	std	Y+1, r24	; 0x01
	Local_u8ErrorState = DIO_enuSetPinVal(KEYPAD_R3_PORT, KEYPAD_R3_PIN, DIO_u8PULL_UP);
    7160:	82 e0       	ldi	r24, 0x02	; 2
    7162:	66 e0       	ldi	r22, 0x06	; 6
    7164:	41 e0       	ldi	r20, 0x01	; 1
    7166:	0e 94 18 17 	call	0x2e30	; 0x2e30 <DIO_enuSetPinVal>
    716a:	89 83       	std	Y+1, r24	; 0x01
	Local_u8ErrorState = DIO_enuSetPinVal(KEYPAD_R4_PORT, KEYPAD_R4_PIN, DIO_u8PULL_UP);
    716c:	82 e0       	ldi	r24, 0x02	; 2
    716e:	67 e0       	ldi	r22, 0x07	; 7
    7170:	41 e0       	ldi	r20, 0x01	; 1
    7172:	0e 94 18 17 	call	0x2e30	; 0x2e30 <DIO_enuSetPinVal>
    7176:	89 83       	std	Y+1, r24	; 0x01
	
	return Local_u8ErrorState;
    7178:	89 81       	ldd	r24, Y+1	; 0x01
}
    717a:	0f 90       	pop	r0
    717c:	cf 91       	pop	r28
    717e:	df 91       	pop	r29
    7180:	08 95       	ret

00007182 <KEYPAD_u8GetPressedKey>:
 * @retval		: it returns the Key pressed
 * @note		: none
 ******************************************************************************
**/
u8 KEYPAD_u8GetPressedKey(void)
{
    7182:	df 93       	push	r29
    7184:	cf 93       	push	r28
    7186:	00 d0       	rcall	.+0      	; 0x7188 <KEYPAD_u8GetPressedKey+0x6>
    7188:	00 d0       	rcall	.+0      	; 0x718a <KEYPAD_u8GetPressedKey+0x8>
    718a:	0f 92       	push	r0
    718c:	cd b7       	in	r28, 0x3d	; 61
    718e:	de b7       	in	r29, 0x3e	; 62
	
	/* array for Keypad characters */
	static u8 Local_KEYPAD_CHAR[ROW_NUM][COLUMN_NUM] = KEYPAD_CHARACTERS;
	
	u8 Local_u8ColumnIndex, Local_u8RowIndex, Local_u8PinState;
	u8 Local_u8PressedKey = KEYPAD_No_Key_Pressed;
    7190:	8f ef       	ldi	r24, 0xFF	; 255
    7192:	89 83       	std	Y+1, r24	; 0x01
	
	for(Local_u8ColumnIndex = 0; Local_u8ColumnIndex < COLUMN_NUM; Local_u8ColumnIndex++)
    7194:	1b 82       	std	Y+3, r1	; 0x03
    7196:	7a c0       	rjmp	.+244    	; 0x728c <KEYPAD_u8GetPressedKey+0x10a>
	{
		/* Active the current column */
		DIO_enuSetPinVal(Local_Au8ColumnsPorts[Local_u8ColumnIndex], Local_Au8ColumnsPins[Local_u8ColumnIndex], DIO_u8LOW);
    7198:	8b 81       	ldd	r24, Y+3	; 0x03
    719a:	88 2f       	mov	r24, r24
    719c:	90 e0       	ldi	r25, 0x00	; 0
    719e:	fc 01       	movw	r30, r24
    71a0:	e0 51       	subi	r30, 0x10	; 16
    71a2:	fe 4f       	sbci	r31, 0xFE	; 254
    71a4:	20 81       	ld	r18, Z
    71a6:	8b 81       	ldd	r24, Y+3	; 0x03
    71a8:	88 2f       	mov	r24, r24
    71aa:	90 e0       	ldi	r25, 0x00	; 0
    71ac:	fc 01       	movw	r30, r24
    71ae:	e4 51       	subi	r30, 0x14	; 20
    71b0:	fe 4f       	sbci	r31, 0xFE	; 254
    71b2:	90 81       	ld	r25, Z
    71b4:	82 2f       	mov	r24, r18
    71b6:	69 2f       	mov	r22, r25
    71b8:	40 e0       	ldi	r20, 0x00	; 0
    71ba:	0e 94 18 17 	call	0x2e30	; 0x2e30 <DIO_enuSetPinVal>
		
		for(Local_u8RowIndex = 0; Local_u8RowIndex < ROW_NUM; Local_u8RowIndex++)
    71be:	1a 82       	std	Y+2, r1	; 0x02
    71c0:	4b c0       	rjmp	.+150    	; 0x7258 <KEYPAD_u8GetPressedKey+0xd6>
		{
			/* iterate on reading Row pins value */
			DIO_enuGetPinVal(Local_Au8RowsPorts[Local_u8RowIndex], Local_Au8RowsPins[Local_u8RowIndex], &Local_u8PinState);
    71c2:	8a 81       	ldd	r24, Y+2	; 0x02
    71c4:	88 2f       	mov	r24, r24
    71c6:	90 e0       	ldi	r25, 0x00	; 0
    71c8:	fc 01       	movw	r30, r24
    71ca:	e8 51       	subi	r30, 0x18	; 24
    71cc:	fe 4f       	sbci	r31, 0xFE	; 254
    71ce:	40 81       	ld	r20, Z
    71d0:	8a 81       	ldd	r24, Y+2	; 0x02
    71d2:	88 2f       	mov	r24, r24
    71d4:	90 e0       	ldi	r25, 0x00	; 0
    71d6:	fc 01       	movw	r30, r24
    71d8:	ec 51       	subi	r30, 0x1C	; 28
    71da:	fe 4f       	sbci	r31, 0xFE	; 254
    71dc:	90 81       	ld	r25, Z
    71de:	9e 01       	movw	r18, r28
    71e0:	2c 5f       	subi	r18, 0xFC	; 252
    71e2:	3f 4f       	sbci	r19, 0xFF	; 255
    71e4:	84 2f       	mov	r24, r20
    71e6:	69 2f       	mov	r22, r25
    71e8:	a9 01       	movw	r20, r18
    71ea:	0e 94 04 18 	call	0x3008	; 0x3008 <DIO_enuGetPinVal>
			
			if(DIO_u8LOW == Local_u8PinState)
    71ee:	8c 81       	ldd	r24, Y+4	; 0x04
    71f0:	88 23       	and	r24, r24
    71f2:	79 f5       	brne	.+94     	; 0x7252 <KEYPAD_u8GetPressedKey+0xd0>
			{
				Local_u8PressedKey = Local_KEYPAD_CHAR[Local_u8RowIndex][Local_u8ColumnIndex];
    71f4:	8a 81       	ldd	r24, Y+2	; 0x02
    71f6:	48 2f       	mov	r20, r24
    71f8:	50 e0       	ldi	r21, 0x00	; 0
    71fa:	8b 81       	ldd	r24, Y+3	; 0x03
    71fc:	28 2f       	mov	r18, r24
    71fe:	30 e0       	ldi	r19, 0x00	; 0
    7200:	ca 01       	movw	r24, r20
    7202:	88 0f       	add	r24, r24
    7204:	99 1f       	adc	r25, r25
    7206:	88 0f       	add	r24, r24
    7208:	99 1f       	adc	r25, r25
    720a:	82 0f       	add	r24, r18
    720c:	93 1f       	adc	r25, r19
    720e:	fc 01       	movw	r30, r24
    7210:	ec 52       	subi	r30, 0x2C	; 44
    7212:	fe 4f       	sbci	r31, 0xFE	; 254
    7214:	80 81       	ld	r24, Z
    7216:	89 83       	std	Y+1, r24	; 0x01
    7218:	16 c0       	rjmp	.+44     	; 0x7246 <KEYPAD_u8GetPressedKey+0xc4>
				
				/* single press */
				while(DIO_u8LOW == Local_u8PinState)
				{
					DIO_enuGetPinVal(Local_Au8RowsPorts[Local_u8RowIndex], Local_Au8RowsPins[Local_u8RowIndex], &Local_u8PinState);
    721a:	8a 81       	ldd	r24, Y+2	; 0x02
    721c:	88 2f       	mov	r24, r24
    721e:	90 e0       	ldi	r25, 0x00	; 0
    7220:	fc 01       	movw	r30, r24
    7222:	e8 51       	subi	r30, 0x18	; 24
    7224:	fe 4f       	sbci	r31, 0xFE	; 254
    7226:	40 81       	ld	r20, Z
    7228:	8a 81       	ldd	r24, Y+2	; 0x02
    722a:	88 2f       	mov	r24, r24
    722c:	90 e0       	ldi	r25, 0x00	; 0
    722e:	fc 01       	movw	r30, r24
    7230:	ec 51       	subi	r30, 0x1C	; 28
    7232:	fe 4f       	sbci	r31, 0xFE	; 254
    7234:	90 81       	ld	r25, Z
    7236:	9e 01       	movw	r18, r28
    7238:	2c 5f       	subi	r18, 0xFC	; 252
    723a:	3f 4f       	sbci	r19, 0xFF	; 255
    723c:	84 2f       	mov	r24, r20
    723e:	69 2f       	mov	r22, r25
    7240:	a9 01       	movw	r20, r18
    7242:	0e 94 04 18 	call	0x3008	; 0x3008 <DIO_enuGetPinVal>
			if(DIO_u8LOW == Local_u8PinState)
			{
				Local_u8PressedKey = Local_KEYPAD_CHAR[Local_u8RowIndex][Local_u8ColumnIndex];
				
				/* single press */
				while(DIO_u8LOW == Local_u8PinState)
    7246:	8c 81       	ldd	r24, Y+4	; 0x04
    7248:	88 23       	and	r24, r24
    724a:	39 f3       	breq	.-50     	; 0x721a <KEYPAD_u8GetPressedKey+0x98>
				{
					DIO_enuGetPinVal(Local_Au8RowsPorts[Local_u8RowIndex], Local_Au8RowsPins[Local_u8RowIndex], &Local_u8PinState);
				}
				return Local_u8PressedKey;
    724c:	89 81       	ldd	r24, Y+1	; 0x01
    724e:	8d 83       	std	Y+5, r24	; 0x05
    7250:	23 c0       	rjmp	.+70     	; 0x7298 <KEYPAD_u8GetPressedKey+0x116>
	for(Local_u8ColumnIndex = 0; Local_u8ColumnIndex < COLUMN_NUM; Local_u8ColumnIndex++)
	{
		/* Active the current column */
		DIO_enuSetPinVal(Local_Au8ColumnsPorts[Local_u8ColumnIndex], Local_Au8ColumnsPins[Local_u8ColumnIndex], DIO_u8LOW);
		
		for(Local_u8RowIndex = 0; Local_u8RowIndex < ROW_NUM; Local_u8RowIndex++)
    7252:	8a 81       	ldd	r24, Y+2	; 0x02
    7254:	8f 5f       	subi	r24, 0xFF	; 255
    7256:	8a 83       	std	Y+2, r24	; 0x02
    7258:	8a 81       	ldd	r24, Y+2	; 0x02
    725a:	84 30       	cpi	r24, 0x04	; 4
    725c:	08 f4       	brcc	.+2      	; 0x7260 <KEYPAD_u8GetPressedKey+0xde>
    725e:	b1 cf       	rjmp	.-158    	; 0x71c2 <KEYPAD_u8GetPressedKey+0x40>
				return Local_u8PressedKey;
			}
		}
		
		/* Deactive the current column */
		DIO_enuSetPinVal(Local_Au8ColumnsPorts[Local_u8ColumnIndex], Local_Au8ColumnsPins[Local_u8ColumnIndex], DIO_u8HIGH);
    7260:	8b 81       	ldd	r24, Y+3	; 0x03
    7262:	88 2f       	mov	r24, r24
    7264:	90 e0       	ldi	r25, 0x00	; 0
    7266:	fc 01       	movw	r30, r24
    7268:	e0 51       	subi	r30, 0x10	; 16
    726a:	fe 4f       	sbci	r31, 0xFE	; 254
    726c:	20 81       	ld	r18, Z
    726e:	8b 81       	ldd	r24, Y+3	; 0x03
    7270:	88 2f       	mov	r24, r24
    7272:	90 e0       	ldi	r25, 0x00	; 0
    7274:	fc 01       	movw	r30, r24
    7276:	e4 51       	subi	r30, 0x14	; 20
    7278:	fe 4f       	sbci	r31, 0xFE	; 254
    727a:	90 81       	ld	r25, Z
    727c:	82 2f       	mov	r24, r18
    727e:	69 2f       	mov	r22, r25
    7280:	41 e0       	ldi	r20, 0x01	; 1
    7282:	0e 94 18 17 	call	0x2e30	; 0x2e30 <DIO_enuSetPinVal>
	static u8 Local_KEYPAD_CHAR[ROW_NUM][COLUMN_NUM] = KEYPAD_CHARACTERS;
	
	u8 Local_u8ColumnIndex, Local_u8RowIndex, Local_u8PinState;
	u8 Local_u8PressedKey = KEYPAD_No_Key_Pressed;
	
	for(Local_u8ColumnIndex = 0; Local_u8ColumnIndex < COLUMN_NUM; Local_u8ColumnIndex++)
    7286:	8b 81       	ldd	r24, Y+3	; 0x03
    7288:	8f 5f       	subi	r24, 0xFF	; 255
    728a:	8b 83       	std	Y+3, r24	; 0x03
    728c:	8b 81       	ldd	r24, Y+3	; 0x03
    728e:	84 30       	cpi	r24, 0x04	; 4
    7290:	08 f4       	brcc	.+2      	; 0x7294 <KEYPAD_u8GetPressedKey+0x112>
    7292:	82 cf       	rjmp	.-252    	; 0x7198 <KEYPAD_u8GetPressedKey+0x16>
		/* Deactive the current column */
		DIO_enuSetPinVal(Local_Au8ColumnsPorts[Local_u8ColumnIndex], Local_Au8ColumnsPins[Local_u8ColumnIndex], DIO_u8HIGH);
	}
	
	
	return Local_u8PressedKey;
    7294:	89 81       	ldd	r24, Y+1	; 0x01
    7296:	8d 83       	std	Y+5, r24	; 0x05
    7298:	8d 81       	ldd	r24, Y+5	; 0x05
}
    729a:	0f 90       	pop	r0
    729c:	0f 90       	pop	r0
    729e:	0f 90       	pop	r0
    72a0:	0f 90       	pop	r0
    72a2:	0f 90       	pop	r0
    72a4:	cf 91       	pop	r28
    72a6:	df 91       	pop	r29
    72a8:	08 95       	ret

000072aa <main>:
**/
#define F_CPU 1000000UL


int main(void)
{
    72aa:	df 93       	push	r29
    72ac:	cf 93       	push	r28
    72ae:	cd b7       	in	r28, 0x3d	; 61
    72b0:	de b7       	in	r29, 0x3e	; 62
    72b2:	ff cf       	rjmp	.-2      	; 0x72b2 <main+0x8>

000072b4 <__prologue_saves__>:
    72b4:	2f 92       	push	r2
    72b6:	3f 92       	push	r3
    72b8:	4f 92       	push	r4
    72ba:	5f 92       	push	r5
    72bc:	6f 92       	push	r6
    72be:	7f 92       	push	r7
    72c0:	8f 92       	push	r8
    72c2:	9f 92       	push	r9
    72c4:	af 92       	push	r10
    72c6:	bf 92       	push	r11
    72c8:	cf 92       	push	r12
    72ca:	df 92       	push	r13
    72cc:	ef 92       	push	r14
    72ce:	ff 92       	push	r15
    72d0:	0f 93       	push	r16
    72d2:	1f 93       	push	r17
    72d4:	cf 93       	push	r28
    72d6:	df 93       	push	r29
    72d8:	cd b7       	in	r28, 0x3d	; 61
    72da:	de b7       	in	r29, 0x3e	; 62
    72dc:	ca 1b       	sub	r28, r26
    72de:	db 0b       	sbc	r29, r27
    72e0:	0f b6       	in	r0, 0x3f	; 63
    72e2:	f8 94       	cli
    72e4:	de bf       	out	0x3e, r29	; 62
    72e6:	0f be       	out	0x3f, r0	; 63
    72e8:	cd bf       	out	0x3d, r28	; 61
    72ea:	09 94       	ijmp

000072ec <__epilogue_restores__>:
    72ec:	2a 88       	ldd	r2, Y+18	; 0x12
    72ee:	39 88       	ldd	r3, Y+17	; 0x11
    72f0:	48 88       	ldd	r4, Y+16	; 0x10
    72f2:	5f 84       	ldd	r5, Y+15	; 0x0f
    72f4:	6e 84       	ldd	r6, Y+14	; 0x0e
    72f6:	7d 84       	ldd	r7, Y+13	; 0x0d
    72f8:	8c 84       	ldd	r8, Y+12	; 0x0c
    72fa:	9b 84       	ldd	r9, Y+11	; 0x0b
    72fc:	aa 84       	ldd	r10, Y+10	; 0x0a
    72fe:	b9 84       	ldd	r11, Y+9	; 0x09
    7300:	c8 84       	ldd	r12, Y+8	; 0x08
    7302:	df 80       	ldd	r13, Y+7	; 0x07
    7304:	ee 80       	ldd	r14, Y+6	; 0x06
    7306:	fd 80       	ldd	r15, Y+5	; 0x05
    7308:	0c 81       	ldd	r16, Y+4	; 0x04
    730a:	1b 81       	ldd	r17, Y+3	; 0x03
    730c:	aa 81       	ldd	r26, Y+2	; 0x02
    730e:	b9 81       	ldd	r27, Y+1	; 0x01
    7310:	ce 0f       	add	r28, r30
    7312:	d1 1d       	adc	r29, r1
    7314:	0f b6       	in	r0, 0x3f	; 63
    7316:	f8 94       	cli
    7318:	de bf       	out	0x3e, r29	; 62
    731a:	0f be       	out	0x3f, r0	; 63
    731c:	cd bf       	out	0x3d, r28	; 61
    731e:	ed 01       	movw	r28, r26
    7320:	08 95       	ret

00007322 <sprintf>:
    7322:	ae e0       	ldi	r26, 0x0E	; 14
    7324:	b0 e0       	ldi	r27, 0x00	; 0
    7326:	e7 e9       	ldi	r30, 0x97	; 151
    7328:	f9 e3       	ldi	r31, 0x39	; 57
    732a:	0c 94 68 39 	jmp	0x72d0	; 0x72d0 <__prologue_saves__+0x1c>
    732e:	0d 89       	ldd	r16, Y+21	; 0x15
    7330:	1e 89       	ldd	r17, Y+22	; 0x16
    7332:	86 e0       	ldi	r24, 0x06	; 6
    7334:	8c 83       	std	Y+4, r24	; 0x04
    7336:	1a 83       	std	Y+2, r17	; 0x02
    7338:	09 83       	std	Y+1, r16	; 0x01
    733a:	8f ef       	ldi	r24, 0xFF	; 255
    733c:	9f e7       	ldi	r25, 0x7F	; 127
    733e:	9e 83       	std	Y+6, r25	; 0x06
    7340:	8d 83       	std	Y+5, r24	; 0x05
    7342:	9e 01       	movw	r18, r28
    7344:	27 5e       	subi	r18, 0xE7	; 231
    7346:	3f 4f       	sbci	r19, 0xFF	; 255
    7348:	ce 01       	movw	r24, r28
    734a:	01 96       	adiw	r24, 0x01	; 1
    734c:	6f 89       	ldd	r22, Y+23	; 0x17
    734e:	78 8d       	ldd	r23, Y+24	; 0x18
    7350:	a9 01       	movw	r20, r18
    7352:	0e 94 b5 39 	call	0x736a	; 0x736a <vfprintf>
    7356:	2f 81       	ldd	r18, Y+7	; 0x07
    7358:	38 85       	ldd	r19, Y+8	; 0x08
    735a:	02 0f       	add	r16, r18
    735c:	13 1f       	adc	r17, r19
    735e:	f8 01       	movw	r30, r16
    7360:	10 82       	st	Z, r1
    7362:	2e 96       	adiw	r28, 0x0e	; 14
    7364:	e4 e0       	ldi	r30, 0x04	; 4
    7366:	0c 94 84 39 	jmp	0x7308	; 0x7308 <__epilogue_restores__+0x1c>

0000736a <vfprintf>:
    736a:	ab e0       	ldi	r26, 0x0B	; 11
    736c:	b0 e0       	ldi	r27, 0x00	; 0
    736e:	eb eb       	ldi	r30, 0xBB	; 187
    7370:	f9 e3       	ldi	r31, 0x39	; 57
    7372:	0c 94 5a 39 	jmp	0x72b4	; 0x72b4 <__prologue_saves__>
    7376:	3c 01       	movw	r6, r24
    7378:	2b 01       	movw	r4, r22
    737a:	5a 01       	movw	r10, r20
    737c:	fc 01       	movw	r30, r24
    737e:	17 82       	std	Z+7, r1	; 0x07
    7380:	16 82       	std	Z+6, r1	; 0x06
    7382:	83 81       	ldd	r24, Z+3	; 0x03
    7384:	81 fd       	sbrc	r24, 1
    7386:	03 c0       	rjmp	.+6      	; 0x738e <vfprintf+0x24>
    7388:	6f ef       	ldi	r22, 0xFF	; 255
    738a:	7f ef       	ldi	r23, 0xFF	; 255
    738c:	c6 c1       	rjmp	.+908    	; 0x771a <vfprintf+0x3b0>
    738e:	9a e0       	ldi	r25, 0x0A	; 10
    7390:	89 2e       	mov	r8, r25
    7392:	1e 01       	movw	r2, r28
    7394:	08 94       	sec
    7396:	21 1c       	adc	r2, r1
    7398:	31 1c       	adc	r3, r1
    739a:	f3 01       	movw	r30, r6
    739c:	23 81       	ldd	r18, Z+3	; 0x03
    739e:	f2 01       	movw	r30, r4
    73a0:	23 fd       	sbrc	r18, 3
    73a2:	85 91       	lpm	r24, Z+
    73a4:	23 ff       	sbrs	r18, 3
    73a6:	81 91       	ld	r24, Z+
    73a8:	2f 01       	movw	r4, r30
    73aa:	88 23       	and	r24, r24
    73ac:	09 f4       	brne	.+2      	; 0x73b0 <vfprintf+0x46>
    73ae:	b2 c1       	rjmp	.+868    	; 0x7714 <vfprintf+0x3aa>
    73b0:	85 32       	cpi	r24, 0x25	; 37
    73b2:	39 f4       	brne	.+14     	; 0x73c2 <vfprintf+0x58>
    73b4:	23 fd       	sbrc	r18, 3
    73b6:	85 91       	lpm	r24, Z+
    73b8:	23 ff       	sbrs	r18, 3
    73ba:	81 91       	ld	r24, Z+
    73bc:	2f 01       	movw	r4, r30
    73be:	85 32       	cpi	r24, 0x25	; 37
    73c0:	29 f4       	brne	.+10     	; 0x73cc <vfprintf+0x62>
    73c2:	90 e0       	ldi	r25, 0x00	; 0
    73c4:	b3 01       	movw	r22, r6
    73c6:	0e 94 a8 3b 	call	0x7750	; 0x7750 <fputc>
    73ca:	e7 cf       	rjmp	.-50     	; 0x739a <vfprintf+0x30>
    73cc:	98 2f       	mov	r25, r24
    73ce:	ff 24       	eor	r15, r15
    73d0:	ee 24       	eor	r14, r14
    73d2:	99 24       	eor	r9, r9
    73d4:	ff e1       	ldi	r31, 0x1F	; 31
    73d6:	ff 15       	cp	r31, r15
    73d8:	d0 f0       	brcs	.+52     	; 0x740e <vfprintf+0xa4>
    73da:	9b 32       	cpi	r25, 0x2B	; 43
    73dc:	69 f0       	breq	.+26     	; 0x73f8 <vfprintf+0x8e>
    73de:	9c 32       	cpi	r25, 0x2C	; 44
    73e0:	28 f4       	brcc	.+10     	; 0x73ec <vfprintf+0x82>
    73e2:	90 32       	cpi	r25, 0x20	; 32
    73e4:	59 f0       	breq	.+22     	; 0x73fc <vfprintf+0x92>
    73e6:	93 32       	cpi	r25, 0x23	; 35
    73e8:	91 f4       	brne	.+36     	; 0x740e <vfprintf+0xa4>
    73ea:	0e c0       	rjmp	.+28     	; 0x7408 <vfprintf+0x9e>
    73ec:	9d 32       	cpi	r25, 0x2D	; 45
    73ee:	49 f0       	breq	.+18     	; 0x7402 <vfprintf+0x98>
    73f0:	90 33       	cpi	r25, 0x30	; 48
    73f2:	69 f4       	brne	.+26     	; 0x740e <vfprintf+0xa4>
    73f4:	41 e0       	ldi	r20, 0x01	; 1
    73f6:	24 c0       	rjmp	.+72     	; 0x7440 <vfprintf+0xd6>
    73f8:	52 e0       	ldi	r21, 0x02	; 2
    73fa:	f5 2a       	or	r15, r21
    73fc:	84 e0       	ldi	r24, 0x04	; 4
    73fe:	f8 2a       	or	r15, r24
    7400:	28 c0       	rjmp	.+80     	; 0x7452 <vfprintf+0xe8>
    7402:	98 e0       	ldi	r25, 0x08	; 8
    7404:	f9 2a       	or	r15, r25
    7406:	25 c0       	rjmp	.+74     	; 0x7452 <vfprintf+0xe8>
    7408:	e0 e1       	ldi	r30, 0x10	; 16
    740a:	fe 2a       	or	r15, r30
    740c:	22 c0       	rjmp	.+68     	; 0x7452 <vfprintf+0xe8>
    740e:	f7 fc       	sbrc	r15, 7
    7410:	29 c0       	rjmp	.+82     	; 0x7464 <vfprintf+0xfa>
    7412:	89 2f       	mov	r24, r25
    7414:	80 53       	subi	r24, 0x30	; 48
    7416:	8a 30       	cpi	r24, 0x0A	; 10
    7418:	70 f4       	brcc	.+28     	; 0x7436 <vfprintf+0xcc>
    741a:	f6 fe       	sbrs	r15, 6
    741c:	05 c0       	rjmp	.+10     	; 0x7428 <vfprintf+0xbe>
    741e:	98 9c       	mul	r9, r8
    7420:	90 2c       	mov	r9, r0
    7422:	11 24       	eor	r1, r1
    7424:	98 0e       	add	r9, r24
    7426:	15 c0       	rjmp	.+42     	; 0x7452 <vfprintf+0xe8>
    7428:	e8 9c       	mul	r14, r8
    742a:	e0 2c       	mov	r14, r0
    742c:	11 24       	eor	r1, r1
    742e:	e8 0e       	add	r14, r24
    7430:	f0 e2       	ldi	r31, 0x20	; 32
    7432:	ff 2a       	or	r15, r31
    7434:	0e c0       	rjmp	.+28     	; 0x7452 <vfprintf+0xe8>
    7436:	9e 32       	cpi	r25, 0x2E	; 46
    7438:	29 f4       	brne	.+10     	; 0x7444 <vfprintf+0xda>
    743a:	f6 fc       	sbrc	r15, 6
    743c:	6b c1       	rjmp	.+726    	; 0x7714 <vfprintf+0x3aa>
    743e:	40 e4       	ldi	r20, 0x40	; 64
    7440:	f4 2a       	or	r15, r20
    7442:	07 c0       	rjmp	.+14     	; 0x7452 <vfprintf+0xe8>
    7444:	9c 36       	cpi	r25, 0x6C	; 108
    7446:	19 f4       	brne	.+6      	; 0x744e <vfprintf+0xe4>
    7448:	50 e8       	ldi	r21, 0x80	; 128
    744a:	f5 2a       	or	r15, r21
    744c:	02 c0       	rjmp	.+4      	; 0x7452 <vfprintf+0xe8>
    744e:	98 36       	cpi	r25, 0x68	; 104
    7450:	49 f4       	brne	.+18     	; 0x7464 <vfprintf+0xfa>
    7452:	f2 01       	movw	r30, r4
    7454:	23 fd       	sbrc	r18, 3
    7456:	95 91       	lpm	r25, Z+
    7458:	23 ff       	sbrs	r18, 3
    745a:	91 91       	ld	r25, Z+
    745c:	2f 01       	movw	r4, r30
    745e:	99 23       	and	r25, r25
    7460:	09 f0       	breq	.+2      	; 0x7464 <vfprintf+0xfa>
    7462:	b8 cf       	rjmp	.-144    	; 0x73d4 <vfprintf+0x6a>
    7464:	89 2f       	mov	r24, r25
    7466:	85 54       	subi	r24, 0x45	; 69
    7468:	83 30       	cpi	r24, 0x03	; 3
    746a:	18 f0       	brcs	.+6      	; 0x7472 <vfprintf+0x108>
    746c:	80 52       	subi	r24, 0x20	; 32
    746e:	83 30       	cpi	r24, 0x03	; 3
    7470:	38 f4       	brcc	.+14     	; 0x7480 <vfprintf+0x116>
    7472:	44 e0       	ldi	r20, 0x04	; 4
    7474:	50 e0       	ldi	r21, 0x00	; 0
    7476:	a4 0e       	add	r10, r20
    7478:	b5 1e       	adc	r11, r21
    747a:	5f e3       	ldi	r21, 0x3F	; 63
    747c:	59 83       	std	Y+1, r21	; 0x01
    747e:	0f c0       	rjmp	.+30     	; 0x749e <vfprintf+0x134>
    7480:	93 36       	cpi	r25, 0x63	; 99
    7482:	31 f0       	breq	.+12     	; 0x7490 <vfprintf+0x126>
    7484:	93 37       	cpi	r25, 0x73	; 115
    7486:	79 f0       	breq	.+30     	; 0x74a6 <vfprintf+0x13c>
    7488:	93 35       	cpi	r25, 0x53	; 83
    748a:	09 f0       	breq	.+2      	; 0x748e <vfprintf+0x124>
    748c:	56 c0       	rjmp	.+172    	; 0x753a <vfprintf+0x1d0>
    748e:	20 c0       	rjmp	.+64     	; 0x74d0 <vfprintf+0x166>
    7490:	f5 01       	movw	r30, r10
    7492:	80 81       	ld	r24, Z
    7494:	89 83       	std	Y+1, r24	; 0x01
    7496:	42 e0       	ldi	r20, 0x02	; 2
    7498:	50 e0       	ldi	r21, 0x00	; 0
    749a:	a4 0e       	add	r10, r20
    749c:	b5 1e       	adc	r11, r21
    749e:	61 01       	movw	r12, r2
    74a0:	01 e0       	ldi	r16, 0x01	; 1
    74a2:	10 e0       	ldi	r17, 0x00	; 0
    74a4:	12 c0       	rjmp	.+36     	; 0x74ca <vfprintf+0x160>
    74a6:	f5 01       	movw	r30, r10
    74a8:	c0 80       	ld	r12, Z
    74aa:	d1 80       	ldd	r13, Z+1	; 0x01
    74ac:	f6 fc       	sbrc	r15, 6
    74ae:	03 c0       	rjmp	.+6      	; 0x74b6 <vfprintf+0x14c>
    74b0:	6f ef       	ldi	r22, 0xFF	; 255
    74b2:	7f ef       	ldi	r23, 0xFF	; 255
    74b4:	02 c0       	rjmp	.+4      	; 0x74ba <vfprintf+0x150>
    74b6:	69 2d       	mov	r22, r9
    74b8:	70 e0       	ldi	r23, 0x00	; 0
    74ba:	42 e0       	ldi	r20, 0x02	; 2
    74bc:	50 e0       	ldi	r21, 0x00	; 0
    74be:	a4 0e       	add	r10, r20
    74c0:	b5 1e       	adc	r11, r21
    74c2:	c6 01       	movw	r24, r12
    74c4:	0e 94 9d 3b 	call	0x773a	; 0x773a <strnlen>
    74c8:	8c 01       	movw	r16, r24
    74ca:	5f e7       	ldi	r21, 0x7F	; 127
    74cc:	f5 22       	and	r15, r21
    74ce:	14 c0       	rjmp	.+40     	; 0x74f8 <vfprintf+0x18e>
    74d0:	f5 01       	movw	r30, r10
    74d2:	c0 80       	ld	r12, Z
    74d4:	d1 80       	ldd	r13, Z+1	; 0x01
    74d6:	f6 fc       	sbrc	r15, 6
    74d8:	03 c0       	rjmp	.+6      	; 0x74e0 <vfprintf+0x176>
    74da:	6f ef       	ldi	r22, 0xFF	; 255
    74dc:	7f ef       	ldi	r23, 0xFF	; 255
    74de:	02 c0       	rjmp	.+4      	; 0x74e4 <vfprintf+0x17a>
    74e0:	69 2d       	mov	r22, r9
    74e2:	70 e0       	ldi	r23, 0x00	; 0
    74e4:	42 e0       	ldi	r20, 0x02	; 2
    74e6:	50 e0       	ldi	r21, 0x00	; 0
    74e8:	a4 0e       	add	r10, r20
    74ea:	b5 1e       	adc	r11, r21
    74ec:	c6 01       	movw	r24, r12
    74ee:	0e 94 92 3b 	call	0x7724	; 0x7724 <strnlen_P>
    74f2:	8c 01       	movw	r16, r24
    74f4:	50 e8       	ldi	r21, 0x80	; 128
    74f6:	f5 2a       	or	r15, r21
    74f8:	f3 fe       	sbrs	r15, 3
    74fa:	07 c0       	rjmp	.+14     	; 0x750a <vfprintf+0x1a0>
    74fc:	1a c0       	rjmp	.+52     	; 0x7532 <vfprintf+0x1c8>
    74fe:	80 e2       	ldi	r24, 0x20	; 32
    7500:	90 e0       	ldi	r25, 0x00	; 0
    7502:	b3 01       	movw	r22, r6
    7504:	0e 94 a8 3b 	call	0x7750	; 0x7750 <fputc>
    7508:	ea 94       	dec	r14
    750a:	8e 2d       	mov	r24, r14
    750c:	90 e0       	ldi	r25, 0x00	; 0
    750e:	08 17       	cp	r16, r24
    7510:	19 07       	cpc	r17, r25
    7512:	a8 f3       	brcs	.-22     	; 0x74fe <vfprintf+0x194>
    7514:	0e c0       	rjmp	.+28     	; 0x7532 <vfprintf+0x1c8>
    7516:	f6 01       	movw	r30, r12
    7518:	f7 fc       	sbrc	r15, 7
    751a:	85 91       	lpm	r24, Z+
    751c:	f7 fe       	sbrs	r15, 7
    751e:	81 91       	ld	r24, Z+
    7520:	6f 01       	movw	r12, r30
    7522:	90 e0       	ldi	r25, 0x00	; 0
    7524:	b3 01       	movw	r22, r6
    7526:	0e 94 a8 3b 	call	0x7750	; 0x7750 <fputc>
    752a:	e1 10       	cpse	r14, r1
    752c:	ea 94       	dec	r14
    752e:	01 50       	subi	r16, 0x01	; 1
    7530:	10 40       	sbci	r17, 0x00	; 0
    7532:	01 15       	cp	r16, r1
    7534:	11 05       	cpc	r17, r1
    7536:	79 f7       	brne	.-34     	; 0x7516 <vfprintf+0x1ac>
    7538:	ea c0       	rjmp	.+468    	; 0x770e <vfprintf+0x3a4>
    753a:	94 36       	cpi	r25, 0x64	; 100
    753c:	11 f0       	breq	.+4      	; 0x7542 <vfprintf+0x1d8>
    753e:	99 36       	cpi	r25, 0x69	; 105
    7540:	69 f5       	brne	.+90     	; 0x759c <vfprintf+0x232>
    7542:	f7 fe       	sbrs	r15, 7
    7544:	08 c0       	rjmp	.+16     	; 0x7556 <vfprintf+0x1ec>
    7546:	f5 01       	movw	r30, r10
    7548:	20 81       	ld	r18, Z
    754a:	31 81       	ldd	r19, Z+1	; 0x01
    754c:	42 81       	ldd	r20, Z+2	; 0x02
    754e:	53 81       	ldd	r21, Z+3	; 0x03
    7550:	84 e0       	ldi	r24, 0x04	; 4
    7552:	90 e0       	ldi	r25, 0x00	; 0
    7554:	0a c0       	rjmp	.+20     	; 0x756a <vfprintf+0x200>
    7556:	f5 01       	movw	r30, r10
    7558:	80 81       	ld	r24, Z
    755a:	91 81       	ldd	r25, Z+1	; 0x01
    755c:	9c 01       	movw	r18, r24
    755e:	44 27       	eor	r20, r20
    7560:	37 fd       	sbrc	r19, 7
    7562:	40 95       	com	r20
    7564:	54 2f       	mov	r21, r20
    7566:	82 e0       	ldi	r24, 0x02	; 2
    7568:	90 e0       	ldi	r25, 0x00	; 0
    756a:	a8 0e       	add	r10, r24
    756c:	b9 1e       	adc	r11, r25
    756e:	9f e6       	ldi	r25, 0x6F	; 111
    7570:	f9 22       	and	r15, r25
    7572:	57 ff       	sbrs	r21, 7
    7574:	09 c0       	rjmp	.+18     	; 0x7588 <vfprintf+0x21e>
    7576:	50 95       	com	r21
    7578:	40 95       	com	r20
    757a:	30 95       	com	r19
    757c:	21 95       	neg	r18
    757e:	3f 4f       	sbci	r19, 0xFF	; 255
    7580:	4f 4f       	sbci	r20, 0xFF	; 255
    7582:	5f 4f       	sbci	r21, 0xFF	; 255
    7584:	e0 e8       	ldi	r30, 0x80	; 128
    7586:	fe 2a       	or	r15, r30
    7588:	ca 01       	movw	r24, r20
    758a:	b9 01       	movw	r22, r18
    758c:	a1 01       	movw	r20, r2
    758e:	2a e0       	ldi	r18, 0x0A	; 10
    7590:	30 e0       	ldi	r19, 0x00	; 0
    7592:	0e 94 d4 3b 	call	0x77a8	; 0x77a8 <__ultoa_invert>
    7596:	d8 2e       	mov	r13, r24
    7598:	d2 18       	sub	r13, r2
    759a:	40 c0       	rjmp	.+128    	; 0x761c <vfprintf+0x2b2>
    759c:	95 37       	cpi	r25, 0x75	; 117
    759e:	29 f4       	brne	.+10     	; 0x75aa <vfprintf+0x240>
    75a0:	1f 2d       	mov	r17, r15
    75a2:	1f 7e       	andi	r17, 0xEF	; 239
    75a4:	2a e0       	ldi	r18, 0x0A	; 10
    75a6:	30 e0       	ldi	r19, 0x00	; 0
    75a8:	1d c0       	rjmp	.+58     	; 0x75e4 <vfprintf+0x27a>
    75aa:	1f 2d       	mov	r17, r15
    75ac:	19 7f       	andi	r17, 0xF9	; 249
    75ae:	9f 36       	cpi	r25, 0x6F	; 111
    75b0:	61 f0       	breq	.+24     	; 0x75ca <vfprintf+0x260>
    75b2:	90 37       	cpi	r25, 0x70	; 112
    75b4:	20 f4       	brcc	.+8      	; 0x75be <vfprintf+0x254>
    75b6:	98 35       	cpi	r25, 0x58	; 88
    75b8:	09 f0       	breq	.+2      	; 0x75bc <vfprintf+0x252>
    75ba:	ac c0       	rjmp	.+344    	; 0x7714 <vfprintf+0x3aa>
    75bc:	0f c0       	rjmp	.+30     	; 0x75dc <vfprintf+0x272>
    75be:	90 37       	cpi	r25, 0x70	; 112
    75c0:	39 f0       	breq	.+14     	; 0x75d0 <vfprintf+0x266>
    75c2:	98 37       	cpi	r25, 0x78	; 120
    75c4:	09 f0       	breq	.+2      	; 0x75c8 <vfprintf+0x25e>
    75c6:	a6 c0       	rjmp	.+332    	; 0x7714 <vfprintf+0x3aa>
    75c8:	04 c0       	rjmp	.+8      	; 0x75d2 <vfprintf+0x268>
    75ca:	28 e0       	ldi	r18, 0x08	; 8
    75cc:	30 e0       	ldi	r19, 0x00	; 0
    75ce:	0a c0       	rjmp	.+20     	; 0x75e4 <vfprintf+0x27a>
    75d0:	10 61       	ori	r17, 0x10	; 16
    75d2:	14 fd       	sbrc	r17, 4
    75d4:	14 60       	ori	r17, 0x04	; 4
    75d6:	20 e1       	ldi	r18, 0x10	; 16
    75d8:	30 e0       	ldi	r19, 0x00	; 0
    75da:	04 c0       	rjmp	.+8      	; 0x75e4 <vfprintf+0x27a>
    75dc:	14 fd       	sbrc	r17, 4
    75de:	16 60       	ori	r17, 0x06	; 6
    75e0:	20 e1       	ldi	r18, 0x10	; 16
    75e2:	32 e0       	ldi	r19, 0x02	; 2
    75e4:	17 ff       	sbrs	r17, 7
    75e6:	08 c0       	rjmp	.+16     	; 0x75f8 <vfprintf+0x28e>
    75e8:	f5 01       	movw	r30, r10
    75ea:	60 81       	ld	r22, Z
    75ec:	71 81       	ldd	r23, Z+1	; 0x01
    75ee:	82 81       	ldd	r24, Z+2	; 0x02
    75f0:	93 81       	ldd	r25, Z+3	; 0x03
    75f2:	44 e0       	ldi	r20, 0x04	; 4
    75f4:	50 e0       	ldi	r21, 0x00	; 0
    75f6:	08 c0       	rjmp	.+16     	; 0x7608 <vfprintf+0x29e>
    75f8:	f5 01       	movw	r30, r10
    75fa:	80 81       	ld	r24, Z
    75fc:	91 81       	ldd	r25, Z+1	; 0x01
    75fe:	bc 01       	movw	r22, r24
    7600:	80 e0       	ldi	r24, 0x00	; 0
    7602:	90 e0       	ldi	r25, 0x00	; 0
    7604:	42 e0       	ldi	r20, 0x02	; 2
    7606:	50 e0       	ldi	r21, 0x00	; 0
    7608:	a4 0e       	add	r10, r20
    760a:	b5 1e       	adc	r11, r21
    760c:	a1 01       	movw	r20, r2
    760e:	0e 94 d4 3b 	call	0x77a8	; 0x77a8 <__ultoa_invert>
    7612:	d8 2e       	mov	r13, r24
    7614:	d2 18       	sub	r13, r2
    7616:	8f e7       	ldi	r24, 0x7F	; 127
    7618:	f8 2e       	mov	r15, r24
    761a:	f1 22       	and	r15, r17
    761c:	f6 fe       	sbrs	r15, 6
    761e:	0b c0       	rjmp	.+22     	; 0x7636 <vfprintf+0x2cc>
    7620:	5e ef       	ldi	r21, 0xFE	; 254
    7622:	f5 22       	and	r15, r21
    7624:	d9 14       	cp	r13, r9
    7626:	38 f4       	brcc	.+14     	; 0x7636 <vfprintf+0x2cc>
    7628:	f4 fe       	sbrs	r15, 4
    762a:	07 c0       	rjmp	.+14     	; 0x763a <vfprintf+0x2d0>
    762c:	f2 fc       	sbrc	r15, 2
    762e:	05 c0       	rjmp	.+10     	; 0x763a <vfprintf+0x2d0>
    7630:	8f ee       	ldi	r24, 0xEF	; 239
    7632:	f8 22       	and	r15, r24
    7634:	02 c0       	rjmp	.+4      	; 0x763a <vfprintf+0x2d0>
    7636:	1d 2d       	mov	r17, r13
    7638:	01 c0       	rjmp	.+2      	; 0x763c <vfprintf+0x2d2>
    763a:	19 2d       	mov	r17, r9
    763c:	f4 fe       	sbrs	r15, 4
    763e:	0d c0       	rjmp	.+26     	; 0x765a <vfprintf+0x2f0>
    7640:	fe 01       	movw	r30, r28
    7642:	ed 0d       	add	r30, r13
    7644:	f1 1d       	adc	r31, r1
    7646:	80 81       	ld	r24, Z
    7648:	80 33       	cpi	r24, 0x30	; 48
    764a:	19 f4       	brne	.+6      	; 0x7652 <vfprintf+0x2e8>
    764c:	99 ee       	ldi	r25, 0xE9	; 233
    764e:	f9 22       	and	r15, r25
    7650:	08 c0       	rjmp	.+16     	; 0x7662 <vfprintf+0x2f8>
    7652:	1f 5f       	subi	r17, 0xFF	; 255
    7654:	f2 fe       	sbrs	r15, 2
    7656:	05 c0       	rjmp	.+10     	; 0x7662 <vfprintf+0x2f8>
    7658:	03 c0       	rjmp	.+6      	; 0x7660 <vfprintf+0x2f6>
    765a:	8f 2d       	mov	r24, r15
    765c:	86 78       	andi	r24, 0x86	; 134
    765e:	09 f0       	breq	.+2      	; 0x7662 <vfprintf+0x2f8>
    7660:	1f 5f       	subi	r17, 0xFF	; 255
    7662:	0f 2d       	mov	r16, r15
    7664:	f3 fc       	sbrc	r15, 3
    7666:	14 c0       	rjmp	.+40     	; 0x7690 <vfprintf+0x326>
    7668:	f0 fe       	sbrs	r15, 0
    766a:	0f c0       	rjmp	.+30     	; 0x768a <vfprintf+0x320>
    766c:	1e 15       	cp	r17, r14
    766e:	10 f0       	brcs	.+4      	; 0x7674 <vfprintf+0x30a>
    7670:	9d 2c       	mov	r9, r13
    7672:	0b c0       	rjmp	.+22     	; 0x768a <vfprintf+0x320>
    7674:	9d 2c       	mov	r9, r13
    7676:	9e 0c       	add	r9, r14
    7678:	91 1a       	sub	r9, r17
    767a:	1e 2d       	mov	r17, r14
    767c:	06 c0       	rjmp	.+12     	; 0x768a <vfprintf+0x320>
    767e:	80 e2       	ldi	r24, 0x20	; 32
    7680:	90 e0       	ldi	r25, 0x00	; 0
    7682:	b3 01       	movw	r22, r6
    7684:	0e 94 a8 3b 	call	0x7750	; 0x7750 <fputc>
    7688:	1f 5f       	subi	r17, 0xFF	; 255
    768a:	1e 15       	cp	r17, r14
    768c:	c0 f3       	brcs	.-16     	; 0x767e <vfprintf+0x314>
    768e:	04 c0       	rjmp	.+8      	; 0x7698 <vfprintf+0x32e>
    7690:	1e 15       	cp	r17, r14
    7692:	10 f4       	brcc	.+4      	; 0x7698 <vfprintf+0x32e>
    7694:	e1 1a       	sub	r14, r17
    7696:	01 c0       	rjmp	.+2      	; 0x769a <vfprintf+0x330>
    7698:	ee 24       	eor	r14, r14
    769a:	04 ff       	sbrs	r16, 4
    769c:	0f c0       	rjmp	.+30     	; 0x76bc <vfprintf+0x352>
    769e:	80 e3       	ldi	r24, 0x30	; 48
    76a0:	90 e0       	ldi	r25, 0x00	; 0
    76a2:	b3 01       	movw	r22, r6
    76a4:	0e 94 a8 3b 	call	0x7750	; 0x7750 <fputc>
    76a8:	02 ff       	sbrs	r16, 2
    76aa:	1d c0       	rjmp	.+58     	; 0x76e6 <vfprintf+0x37c>
    76ac:	01 fd       	sbrc	r16, 1
    76ae:	03 c0       	rjmp	.+6      	; 0x76b6 <vfprintf+0x34c>
    76b0:	88 e7       	ldi	r24, 0x78	; 120
    76b2:	90 e0       	ldi	r25, 0x00	; 0
    76b4:	0e c0       	rjmp	.+28     	; 0x76d2 <vfprintf+0x368>
    76b6:	88 e5       	ldi	r24, 0x58	; 88
    76b8:	90 e0       	ldi	r25, 0x00	; 0
    76ba:	0b c0       	rjmp	.+22     	; 0x76d2 <vfprintf+0x368>
    76bc:	80 2f       	mov	r24, r16
    76be:	86 78       	andi	r24, 0x86	; 134
    76c0:	91 f0       	breq	.+36     	; 0x76e6 <vfprintf+0x37c>
    76c2:	01 ff       	sbrs	r16, 1
    76c4:	02 c0       	rjmp	.+4      	; 0x76ca <vfprintf+0x360>
    76c6:	8b e2       	ldi	r24, 0x2B	; 43
    76c8:	01 c0       	rjmp	.+2      	; 0x76cc <vfprintf+0x362>
    76ca:	80 e2       	ldi	r24, 0x20	; 32
    76cc:	f7 fc       	sbrc	r15, 7
    76ce:	8d e2       	ldi	r24, 0x2D	; 45
    76d0:	90 e0       	ldi	r25, 0x00	; 0
    76d2:	b3 01       	movw	r22, r6
    76d4:	0e 94 a8 3b 	call	0x7750	; 0x7750 <fputc>
    76d8:	06 c0       	rjmp	.+12     	; 0x76e6 <vfprintf+0x37c>
    76da:	80 e3       	ldi	r24, 0x30	; 48
    76dc:	90 e0       	ldi	r25, 0x00	; 0
    76de:	b3 01       	movw	r22, r6
    76e0:	0e 94 a8 3b 	call	0x7750	; 0x7750 <fputc>
    76e4:	9a 94       	dec	r9
    76e6:	d9 14       	cp	r13, r9
    76e8:	c0 f3       	brcs	.-16     	; 0x76da <vfprintf+0x370>
    76ea:	da 94       	dec	r13
    76ec:	f1 01       	movw	r30, r2
    76ee:	ed 0d       	add	r30, r13
    76f0:	f1 1d       	adc	r31, r1
    76f2:	80 81       	ld	r24, Z
    76f4:	90 e0       	ldi	r25, 0x00	; 0
    76f6:	b3 01       	movw	r22, r6
    76f8:	0e 94 a8 3b 	call	0x7750	; 0x7750 <fputc>
    76fc:	dd 20       	and	r13, r13
    76fe:	a9 f7       	brne	.-22     	; 0x76ea <vfprintf+0x380>
    7700:	06 c0       	rjmp	.+12     	; 0x770e <vfprintf+0x3a4>
    7702:	80 e2       	ldi	r24, 0x20	; 32
    7704:	90 e0       	ldi	r25, 0x00	; 0
    7706:	b3 01       	movw	r22, r6
    7708:	0e 94 a8 3b 	call	0x7750	; 0x7750 <fputc>
    770c:	ea 94       	dec	r14
    770e:	ee 20       	and	r14, r14
    7710:	c1 f7       	brne	.-16     	; 0x7702 <vfprintf+0x398>
    7712:	43 ce       	rjmp	.-890    	; 0x739a <vfprintf+0x30>
    7714:	f3 01       	movw	r30, r6
    7716:	66 81       	ldd	r22, Z+6	; 0x06
    7718:	77 81       	ldd	r23, Z+7	; 0x07
    771a:	cb 01       	movw	r24, r22
    771c:	2b 96       	adiw	r28, 0x0b	; 11
    771e:	e2 e1       	ldi	r30, 0x12	; 18
    7720:	0c 94 76 39 	jmp	0x72ec	; 0x72ec <__epilogue_restores__>

00007724 <strnlen_P>:
    7724:	fc 01       	movw	r30, r24
    7726:	05 90       	lpm	r0, Z+
    7728:	61 50       	subi	r22, 0x01	; 1
    772a:	70 40       	sbci	r23, 0x00	; 0
    772c:	01 10       	cpse	r0, r1
    772e:	d8 f7       	brcc	.-10     	; 0x7726 <strnlen_P+0x2>
    7730:	80 95       	com	r24
    7732:	90 95       	com	r25
    7734:	8e 0f       	add	r24, r30
    7736:	9f 1f       	adc	r25, r31
    7738:	08 95       	ret

0000773a <strnlen>:
    773a:	fc 01       	movw	r30, r24
    773c:	61 50       	subi	r22, 0x01	; 1
    773e:	70 40       	sbci	r23, 0x00	; 0
    7740:	01 90       	ld	r0, Z+
    7742:	01 10       	cpse	r0, r1
    7744:	d8 f7       	brcc	.-10     	; 0x773c <strnlen+0x2>
    7746:	80 95       	com	r24
    7748:	90 95       	com	r25
    774a:	8e 0f       	add	r24, r30
    774c:	9f 1f       	adc	r25, r31
    774e:	08 95       	ret

00007750 <fputc>:
    7750:	0f 93       	push	r16
    7752:	1f 93       	push	r17
    7754:	cf 93       	push	r28
    7756:	df 93       	push	r29
    7758:	8c 01       	movw	r16, r24
    775a:	eb 01       	movw	r28, r22
    775c:	8b 81       	ldd	r24, Y+3	; 0x03
    775e:	81 ff       	sbrs	r24, 1
    7760:	1b c0       	rjmp	.+54     	; 0x7798 <fputc+0x48>
    7762:	82 ff       	sbrs	r24, 2
    7764:	0d c0       	rjmp	.+26     	; 0x7780 <fputc+0x30>
    7766:	2e 81       	ldd	r18, Y+6	; 0x06
    7768:	3f 81       	ldd	r19, Y+7	; 0x07
    776a:	8c 81       	ldd	r24, Y+4	; 0x04
    776c:	9d 81       	ldd	r25, Y+5	; 0x05
    776e:	28 17       	cp	r18, r24
    7770:	39 07       	cpc	r19, r25
    7772:	64 f4       	brge	.+24     	; 0x778c <fputc+0x3c>
    7774:	e8 81       	ld	r30, Y
    7776:	f9 81       	ldd	r31, Y+1	; 0x01
    7778:	01 93       	st	Z+, r16
    777a:	f9 83       	std	Y+1, r31	; 0x01
    777c:	e8 83       	st	Y, r30
    777e:	06 c0       	rjmp	.+12     	; 0x778c <fputc+0x3c>
    7780:	e8 85       	ldd	r30, Y+8	; 0x08
    7782:	f9 85       	ldd	r31, Y+9	; 0x09
    7784:	80 2f       	mov	r24, r16
    7786:	09 95       	icall
    7788:	89 2b       	or	r24, r25
    778a:	31 f4       	brne	.+12     	; 0x7798 <fputc+0x48>
    778c:	8e 81       	ldd	r24, Y+6	; 0x06
    778e:	9f 81       	ldd	r25, Y+7	; 0x07
    7790:	01 96       	adiw	r24, 0x01	; 1
    7792:	9f 83       	std	Y+7, r25	; 0x07
    7794:	8e 83       	std	Y+6, r24	; 0x06
    7796:	02 c0       	rjmp	.+4      	; 0x779c <fputc+0x4c>
    7798:	0f ef       	ldi	r16, 0xFF	; 255
    779a:	1f ef       	ldi	r17, 0xFF	; 255
    779c:	c8 01       	movw	r24, r16
    779e:	df 91       	pop	r29
    77a0:	cf 91       	pop	r28
    77a2:	1f 91       	pop	r17
    77a4:	0f 91       	pop	r16
    77a6:	08 95       	ret

000077a8 <__ultoa_invert>:
    77a8:	fa 01       	movw	r30, r20
    77aa:	aa 27       	eor	r26, r26
    77ac:	28 30       	cpi	r18, 0x08	; 8
    77ae:	51 f1       	breq	.+84     	; 0x7804 <__ultoa_invert+0x5c>
    77b0:	20 31       	cpi	r18, 0x10	; 16
    77b2:	81 f1       	breq	.+96     	; 0x7814 <__ultoa_invert+0x6c>
    77b4:	e8 94       	clt
    77b6:	6f 93       	push	r22
    77b8:	6e 7f       	andi	r22, 0xFE	; 254
    77ba:	6e 5f       	subi	r22, 0xFE	; 254
    77bc:	7f 4f       	sbci	r23, 0xFF	; 255
    77be:	8f 4f       	sbci	r24, 0xFF	; 255
    77c0:	9f 4f       	sbci	r25, 0xFF	; 255
    77c2:	af 4f       	sbci	r26, 0xFF	; 255
    77c4:	b1 e0       	ldi	r27, 0x01	; 1
    77c6:	3e d0       	rcall	.+124    	; 0x7844 <__ultoa_invert+0x9c>
    77c8:	b4 e0       	ldi	r27, 0x04	; 4
    77ca:	3c d0       	rcall	.+120    	; 0x7844 <__ultoa_invert+0x9c>
    77cc:	67 0f       	add	r22, r23
    77ce:	78 1f       	adc	r23, r24
    77d0:	89 1f       	adc	r24, r25
    77d2:	9a 1f       	adc	r25, r26
    77d4:	a1 1d       	adc	r26, r1
    77d6:	68 0f       	add	r22, r24
    77d8:	79 1f       	adc	r23, r25
    77da:	8a 1f       	adc	r24, r26
    77dc:	91 1d       	adc	r25, r1
    77de:	a1 1d       	adc	r26, r1
    77e0:	6a 0f       	add	r22, r26
    77e2:	71 1d       	adc	r23, r1
    77e4:	81 1d       	adc	r24, r1
    77e6:	91 1d       	adc	r25, r1
    77e8:	a1 1d       	adc	r26, r1
    77ea:	20 d0       	rcall	.+64     	; 0x782c <__ultoa_invert+0x84>
    77ec:	09 f4       	brne	.+2      	; 0x77f0 <__ultoa_invert+0x48>
    77ee:	68 94       	set
    77f0:	3f 91       	pop	r19
    77f2:	2a e0       	ldi	r18, 0x0A	; 10
    77f4:	26 9f       	mul	r18, r22
    77f6:	11 24       	eor	r1, r1
    77f8:	30 19       	sub	r19, r0
    77fa:	30 5d       	subi	r19, 0xD0	; 208
    77fc:	31 93       	st	Z+, r19
    77fe:	de f6       	brtc	.-74     	; 0x77b6 <__ultoa_invert+0xe>
    7800:	cf 01       	movw	r24, r30
    7802:	08 95       	ret
    7804:	46 2f       	mov	r20, r22
    7806:	47 70       	andi	r20, 0x07	; 7
    7808:	40 5d       	subi	r20, 0xD0	; 208
    780a:	41 93       	st	Z+, r20
    780c:	b3 e0       	ldi	r27, 0x03	; 3
    780e:	0f d0       	rcall	.+30     	; 0x782e <__ultoa_invert+0x86>
    7810:	c9 f7       	brne	.-14     	; 0x7804 <__ultoa_invert+0x5c>
    7812:	f6 cf       	rjmp	.-20     	; 0x7800 <__ultoa_invert+0x58>
    7814:	46 2f       	mov	r20, r22
    7816:	4f 70       	andi	r20, 0x0F	; 15
    7818:	40 5d       	subi	r20, 0xD0	; 208
    781a:	4a 33       	cpi	r20, 0x3A	; 58
    781c:	18 f0       	brcs	.+6      	; 0x7824 <__ultoa_invert+0x7c>
    781e:	49 5d       	subi	r20, 0xD9	; 217
    7820:	31 fd       	sbrc	r19, 1
    7822:	40 52       	subi	r20, 0x20	; 32
    7824:	41 93       	st	Z+, r20
    7826:	02 d0       	rcall	.+4      	; 0x782c <__ultoa_invert+0x84>
    7828:	a9 f7       	brne	.-22     	; 0x7814 <__ultoa_invert+0x6c>
    782a:	ea cf       	rjmp	.-44     	; 0x7800 <__ultoa_invert+0x58>
    782c:	b4 e0       	ldi	r27, 0x04	; 4
    782e:	a6 95       	lsr	r26
    7830:	97 95       	ror	r25
    7832:	87 95       	ror	r24
    7834:	77 95       	ror	r23
    7836:	67 95       	ror	r22
    7838:	ba 95       	dec	r27
    783a:	c9 f7       	brne	.-14     	; 0x782e <__ultoa_invert+0x86>
    783c:	00 97       	sbiw	r24, 0x00	; 0
    783e:	61 05       	cpc	r22, r1
    7840:	71 05       	cpc	r23, r1
    7842:	08 95       	ret
    7844:	9b 01       	movw	r18, r22
    7846:	ac 01       	movw	r20, r24
    7848:	0a 2e       	mov	r0, r26
    784a:	06 94       	lsr	r0
    784c:	57 95       	ror	r21
    784e:	47 95       	ror	r20
    7850:	37 95       	ror	r19
    7852:	27 95       	ror	r18
    7854:	ba 95       	dec	r27
    7856:	c9 f7       	brne	.-14     	; 0x784a <__ultoa_invert+0xa2>
    7858:	62 0f       	add	r22, r18
    785a:	73 1f       	adc	r23, r19
    785c:	84 1f       	adc	r24, r20
    785e:	95 1f       	adc	r25, r21
    7860:	a0 1d       	adc	r26, r0
    7862:	08 95       	ret

00007864 <_exit>:
    7864:	f8 94       	cli

00007866 <__stop_program>:
    7866:	ff cf       	rjmp	.-2      	; 0x7866 <__stop_program>
