
Automated_Greenhouse_Monitoring_System_Microchip.elf:     file format elf32-avr

Sections:
Idx Name          Size      VMA       LMA       File off  Algn
  0 .text         000013ca  00000000  00000000  00000094  2**1
                  CONTENTS, ALLOC, LOAD, READONLY, CODE
  1 .data         0000002c  00800060  000013ca  0000145e  2**0
                  CONTENTS, ALLOC, LOAD, DATA
  2 .bss          00000029  0080008c  0080008c  0000148a  2**0
                  ALLOC
  3 .comment      00000030  00000000  00000000  0000148a  2**0
                  CONTENTS, READONLY
  4 .note.gnu.avr.deviceinfo 0000003c  00000000  00000000  000014bc  2**2
                  CONTENTS, READONLY
  5 .debug_info   000004e6  00000000  00000000  000014f8  2**0
                  CONTENTS, READONLY, DEBUGGING
  6 .debug_abbrev 000004a3  00000000  00000000  000019de  2**0
                  CONTENTS, READONLY, DEBUGGING
  7 .debug_line   00000116  00000000  00000000  00001e81  2**0
                  CONTENTS, READONLY, DEBUGGING
  8 .debug_str    00000196  00000000  00000000  00001f97  2**0
                  CONTENTS, READONLY, DEBUGGING

Disassembly of section .text:

00000000 <__vectors>:
       0:	0c 94 2a 00 	jmp	0x54	; 0x54 <__ctors_end>
       4:	0c 94 7f 06 	jmp	0xcfe	; 0xcfe <__vector_1>
       8:	0c 94 ac 06 	jmp	0xd58	; 0xd58 <__vector_2>
       c:	0c 94 d9 06 	jmp	0xdb2	; 0xdb2 <__vector_3>
      10:	0c 94 47 00 	jmp	0x8e	; 0x8e <__bad_interrupt>
      14:	0c 94 47 00 	jmp	0x8e	; 0x8e <__bad_interrupt>
      18:	0c 94 47 00 	jmp	0x8e	; 0x8e <__bad_interrupt>
      1c:	0c 94 47 00 	jmp	0x8e	; 0x8e <__bad_interrupt>
      20:	0c 94 47 00 	jmp	0x8e	; 0x8e <__bad_interrupt>
      24:	0c 94 47 00 	jmp	0x8e	; 0x8e <__bad_interrupt>
      28:	0c 94 47 00 	jmp	0x8e	; 0x8e <__bad_interrupt>
      2c:	0c 94 47 00 	jmp	0x8e	; 0x8e <__bad_interrupt>
      30:	0c 94 47 00 	jmp	0x8e	; 0x8e <__bad_interrupt>
      34:	0c 94 47 00 	jmp	0x8e	; 0x8e <__bad_interrupt>
      38:	0c 94 47 00 	jmp	0x8e	; 0x8e <__bad_interrupt>
      3c:	0c 94 47 00 	jmp	0x8e	; 0x8e <__bad_interrupt>
      40:	0c 94 e5 04 	jmp	0x9ca	; 0x9ca <__vector_16>
      44:	0c 94 47 00 	jmp	0x8e	; 0x8e <__bad_interrupt>
      48:	0c 94 47 00 	jmp	0x8e	; 0x8e <__bad_interrupt>
      4c:	0c 94 47 00 	jmp	0x8e	; 0x8e <__bad_interrupt>
      50:	0c 94 47 00 	jmp	0x8e	; 0x8e <__bad_interrupt>

00000054 <__ctors_end>:
      54:	11 24       	eor	r1, r1
      56:	1f be       	out	0x3f, r1	; 63
      58:	cf e5       	ldi	r28, 0x5F	; 95
      5a:	d8 e0       	ldi	r29, 0x08	; 8
      5c:	de bf       	out	0x3e, r29	; 62
      5e:	cd bf       	out	0x3d, r28	; 61

00000060 <__do_copy_data>:
      60:	10 e0       	ldi	r17, 0x00	; 0
      62:	a0 e6       	ldi	r26, 0x60	; 96
      64:	b0 e0       	ldi	r27, 0x00	; 0
      66:	ea ec       	ldi	r30, 0xCA	; 202
      68:	f3 e1       	ldi	r31, 0x13	; 19
      6a:	02 c0       	rjmp	.+4      	; 0x70 <__do_copy_data+0x10>
      6c:	05 90       	lpm	r0, Z+
      6e:	0d 92       	st	X+, r0
      70:	ac 38       	cpi	r26, 0x8C	; 140
      72:	b1 07       	cpc	r27, r17
      74:	d9 f7       	brne	.-10     	; 0x6c <__do_copy_data+0xc>

00000076 <__do_clear_bss>:
      76:	20 e0       	ldi	r18, 0x00	; 0
      78:	ac e8       	ldi	r26, 0x8C	; 140
      7a:	b0 e0       	ldi	r27, 0x00	; 0
      7c:	01 c0       	rjmp	.+2      	; 0x80 <.do_clear_bss_start>

0000007e <.do_clear_bss_loop>:
      7e:	1d 92       	st	X+, r1

00000080 <.do_clear_bss_start>:
      80:	a5 3b       	cpi	r26, 0xB5	; 181
      82:	b2 07       	cpc	r27, r18
      84:	e1 f7       	brne	.-8      	; 0x7e <.do_clear_bss_loop>
      86:	0e 94 8e 04 	call	0x91c	; 0x91c <main>
      8a:	0c 94 e3 09 	jmp	0x13c6	; 0x13c6 <_exit>

0000008e <__bad_interrupt>:
      8e:	0c 94 00 00 	jmp	0	; 0x0 <__vectors>

00000092 <AGMS_enuInit_AutomaticControl>:
      92:	0e 94 88 01 	call	0x310	; 0x310 <Sensors_enuInit>
      96:	0e 94 21 08 	call	0x1042	; 0x1042 <Communication_enuInitMaster>
      9a:	0e 94 8f 00 	call	0x11e	; 0x11e <AC_enuInitSystem>
      9e:	81 e0       	ldi	r24, 0x01	; 1
      a0:	08 95       	ret

000000a2 <AGMS_enuRunning_AutomaticControl>:
      a2:	0f 93       	push	r16
      a4:	1f 93       	push	r17
      a6:	cf 93       	push	r28
      a8:	df 93       	push	r29
      aa:	00 d0       	rcall	.+0      	; 0xac <AGMS_enuRunning_AutomaticControl+0xa>
      ac:	00 d0       	rcall	.+0      	; 0xae <AGMS_enuRunning_AutomaticControl+0xc>
      ae:	00 d0       	rcall	.+0      	; 0xb0 <AGMS_enuRunning_AutomaticControl+0xe>
      b0:	cd b7       	in	r28, 0x3d	; 61
      b2:	de b7       	in	r29, 0x3e	; 62
      b4:	8b ea       	ldi	r24, 0xAB	; 171
      b6:	90 e0       	ldi	r25, 0x00	; 0
      b8:	0e 94 96 01 	call	0x32c	; 0x32c <Sensors_enuGetReadings>
      bc:	0b ea       	ldi	r16, 0xAB	; 171
      be:	10 e0       	ldi	r17, 0x00	; 0
      c0:	f8 01       	movw	r30, r16
      c2:	80 81       	ld	r24, Z
      c4:	89 83       	std	Y+1, r24	; 0x01
      c6:	81 81       	ldd	r24, Z+1	; 0x01
      c8:	8a 83       	std	Y+2, r24	; 0x02
      ca:	82 81       	ldd	r24, Z+2	; 0x02
      cc:	8b 83       	std	Y+3, r24	; 0x03
      ce:	83 81       	ldd	r24, Z+3	; 0x03
      d0:	8c 83       	std	Y+4, r24	; 0x04
      d2:	84 81       	ldd	r24, Z+4	; 0x04
      d4:	8d 83       	std	Y+5, r24	; 0x05
      d6:	ce 01       	movw	r24, r28
      d8:	01 96       	adiw	r24, 0x01	; 1
      da:	0e 94 23 08 	call	0x1046	; 0x1046 <Communication_enuSendFrame>
      de:	f8 01       	movw	r30, r16
      e0:	61 81       	ldd	r22, Z+1	; 0x01
      e2:	80 81       	ld	r24, Z
      e4:	0e 94 c7 00 	call	0x18e	; 0x18e <AC_enuControlHeatSystem>
      e8:	f8 01       	movw	r30, r16
      ea:	82 81       	ldd	r24, Z+2	; 0x02
      ec:	0e 94 0c 01 	call	0x218	; 0x218 <AC_enuControlIrrigationSystem>
      f0:	f8 01       	movw	r30, r16
      f2:	83 81       	ldd	r24, Z+3	; 0x03
      f4:	0e 94 2f 01 	call	0x25e	; 0x25e <AC_enuControlLightIntensitySystem>
      f8:	c8 01       	movw	r24, r16
      fa:	0e 94 4d 01 	call	0x29a	; 0x29a <AC_enuControlAlertSystem>
      fe:	81 e0       	ldi	r24, 0x01	; 1
     100:	26 96       	adiw	r28, 0x06	; 6
     102:	0f b6       	in	r0, 0x3f	; 63
     104:	f8 94       	cli
     106:	de bf       	out	0x3e, r29	; 62
     108:	0f be       	out	0x3f, r0	; 63
     10a:	cd bf       	out	0x3d, r28	; 61
     10c:	df 91       	pop	r29
     10e:	cf 91       	pop	r28
     110:	1f 91       	pop	r17
     112:	0f 91       	pop	r16
     114:	08 95       	ret

00000116 <AC_Buzzer_stvidCallBack>:
     116:	81 e0       	ldi	r24, 0x01	; 1
     118:	80 93 60 00 	sts	0x0060, r24	; 0x800060 <__DATA_REGION_ORIGIN__>
     11c:	08 95       	ret

0000011e <AC_enuInitSystem>:
     11e:	83 e7       	ldi	r24, 0x73	; 115
     120:	90 e0       	ldi	r25, 0x00	; 0
     122:	0e 94 97 03 	call	0x72e	; 0x72e <LED_enuINIT>
     126:	84 e6       	ldi	r24, 0x64	; 100
     128:	90 e0       	ldi	r25, 0x00	; 0
     12a:	0e 94 22 02 	call	0x444	; 0x444 <DC_MOTOR_enuInit>
     12e:	81 e6       	ldi	r24, 0x61	; 97
     130:	90 e0       	ldi	r25, 0x00	; 0
     132:	0e 94 e0 01 	call	0x3c0	; 0x3c0 <BUZZER_enuInit>
     136:	41 e0       	ldi	r20, 0x01	; 1
     138:	63 e0       	ldi	r22, 0x03	; 3
     13a:	81 e0       	ldi	r24, 0x01	; 1
     13c:	0e 94 12 05 	call	0xa24	; 0xa24 <DIO_enuSetPinDirection>
     140:	41 e0       	ldi	r20, 0x01	; 1
     142:	64 e0       	ldi	r22, 0x04	; 4
     144:	83 e0       	ldi	r24, 0x03	; 3
     146:	0e 94 12 05 	call	0xa24	; 0xa24 <DIO_enuSetPinDirection>
     14a:	41 e0       	ldi	r20, 0x01	; 1
     14c:	65 e0       	ldi	r22, 0x05	; 5
     14e:	83 e0       	ldi	r24, 0x03	; 3
     150:	0e 94 12 05 	call	0xa24	; 0xa24 <DIO_enuSetPinDirection>
     154:	41 e0       	ldi	r20, 0x01	; 1
     156:	67 e0       	ldi	r22, 0x07	; 7
     158:	83 e0       	ldi	r24, 0x03	; 3
     15a:	0e 94 12 05 	call	0xa24	; 0xa24 <DIO_enuSetPinDirection>
     15e:	0e 94 5b 07 	call	0xeb6	; 0xeb6 <TIMER0_enuInit>
     162:	0e 94 97 07 	call	0xf2e	; 0xf2e <TIMER1_enuInit>
     166:	0e 94 e5 07 	call	0xfca	; 0xfca <TIMER2_enuInit>
     16a:	83 e8       	ldi	r24, 0x83	; 131
     16c:	90 e0       	ldi	r25, 0x00	; 0
     16e:	0e 94 df 05 	call	0xbbe	; 0xbbe <EXTI_enuInit>
     172:	41 e0       	ldi	r20, 0x01	; 1
     174:	60 e0       	ldi	r22, 0x00	; 0
     176:	70 e0       	ldi	r23, 0x00	; 0
     178:	8b e8       	ldi	r24, 0x8B	; 139
     17a:	90 e0       	ldi	r25, 0x00	; 0
     17c:	0e 94 68 06 	call	0xcd0	; 0xcd0 <EXTI_enuCallBackFunc>
     180:	81 e0       	ldi	r24, 0x01	; 1
     182:	0e 94 4c 06 	call	0xc98	; 0xc98 <EXTI_enuEnable>
     186:	0e 94 06 07 	call	0xe0c	; 0xe0c <GIE_enuGloable_Interrupt_Enable>
     18a:	80 e0       	ldi	r24, 0x00	; 0
     18c:	08 95       	ret

0000018e <AC_enuControlHeatSystem>:
     18e:	0f 93       	push	r16
     190:	1f 93       	push	r17
     192:	08 2f       	mov	r16, r24
     194:	16 2f       	mov	r17, r22
     196:	82 31       	cpi	r24, 0x12	; 18
     198:	a8 f4       	brcc	.+42     	; 0x1c4 <AC_enuControlHeatSystem+0x36>
     19a:	68 32       	cpi	r22, 0x28	; 40
     19c:	b8 f5       	brcc	.+110    	; 0x20c <AC_enuControlHeatSystem+0x7e>
     19e:	81 e0       	ldi	r24, 0x01	; 1
     1a0:	0e 94 42 02 	call	0x484	; 0x484 <DC_MOTOR_enuOnCW>
     1a4:	10 e0       	ldi	r17, 0x00	; 0
     1a6:	2a e0       	ldi	r18, 0x0A	; 10
     1a8:	30 e0       	ldi	r19, 0x00	; 0
     1aa:	42 e1       	ldi	r20, 0x12	; 18
     1ac:	50 e0       	ldi	r21, 0x00	; 0
     1ae:	64 e6       	ldi	r22, 0x64	; 100
     1b0:	70 e0       	ldi	r23, 0x00	; 0
     1b2:	82 e3       	ldi	r24, 0x32	; 50
     1b4:	90 e0       	ldi	r25, 0x00	; 0
     1b6:	0e 94 6f 04 	call	0x8de	; 0x8de <Math_Mapping>
     1ba:	68 2f       	mov	r22, r24
     1bc:	81 e0       	ldi	r24, 0x01	; 1
     1be:	0e 94 76 02 	call	0x4ec	; 0x4ec <DC_MOTOR_SetSpeed>
     1c2:	20 c0       	rjmp	.+64     	; 0x204 <AC_enuControlHeatSystem+0x76>
     1c4:	85 31       	cpi	r24, 0x15	; 21
     1c6:	10 f1       	brcs	.+68     	; 0x20c <AC_enuControlHeatSystem+0x7e>
     1c8:	6e 32       	cpi	r22, 0x2E	; 46
     1ca:	18 f0       	brcs	.+6      	; 0x1d2 <AC_enuControlHeatSystem+0x44>
     1cc:	81 e0       	ldi	r24, 0x01	; 1
     1ce:	0e 94 5c 02 	call	0x4b8	; 0x4b8 <DC_MOTOR_enuOff>
     1d2:	0b 31       	cpi	r16, 0x1B	; 27
     1d4:	d8 f0       	brcs	.+54     	; 0x20c <AC_enuControlHeatSystem+0x7e>
     1d6:	17 34       	cpi	r17, 0x47	; 71
     1d8:	98 f0       	brcs	.+38     	; 0x200 <AC_enuControlHeatSystem+0x72>
     1da:	80 e0       	ldi	r24, 0x00	; 0
     1dc:	0e 94 42 02 	call	0x484	; 0x484 <DC_MOTOR_enuOnCW>
     1e0:	10 e0       	ldi	r17, 0x00	; 0
     1e2:	28 e2       	ldi	r18, 0x28	; 40
     1e4:	30 e0       	ldi	r19, 0x00	; 0
     1e6:	4a e1       	ldi	r20, 0x1A	; 26
     1e8:	50 e0       	ldi	r21, 0x00	; 0
     1ea:	64 e6       	ldi	r22, 0x64	; 100
     1ec:	70 e0       	ldi	r23, 0x00	; 0
     1ee:	82 e3       	ldi	r24, 0x32	; 50
     1f0:	90 e0       	ldi	r25, 0x00	; 0
     1f2:	0e 94 6f 04 	call	0x8de	; 0x8de <Math_Mapping>
     1f6:	68 2f       	mov	r22, r24
     1f8:	80 e0       	ldi	r24, 0x00	; 0
     1fa:	0e 94 76 02 	call	0x4ec	; 0x4ec <DC_MOTOR_SetSpeed>
     1fe:	08 c0       	rjmp	.+16     	; 0x210 <AC_enuControlHeatSystem+0x82>
     200:	0b 31       	cpi	r16, 0x1B	; 27
     202:	31 f4       	brne	.+12     	; 0x210 <AC_enuControlHeatSystem+0x82>
     204:	80 e0       	ldi	r24, 0x00	; 0
     206:	0e 94 5c 02 	call	0x4b8	; 0x4b8 <DC_MOTOR_enuOff>
     20a:	02 c0       	rjmp	.+4      	; 0x210 <AC_enuControlHeatSystem+0x82>
     20c:	1b 34       	cpi	r17, 0x4B	; 75
     20e:	d0 f3       	brcs	.-12     	; 0x204 <AC_enuControlHeatSystem+0x76>
     210:	81 e0       	ldi	r24, 0x01	; 1
     212:	1f 91       	pop	r17
     214:	0f 91       	pop	r16
     216:	08 95       	ret

00000218 <AC_enuControlIrrigationSystem>:
     218:	0f 93       	push	r16
     21a:	1f 93       	push	r17
     21c:	08 2f       	mov	r16, r24
     21e:	85 ef       	ldi	r24, 0xF5	; 245
     220:	80 0f       	add	r24, r16
     222:	83 31       	cpi	r24, 0x13	; 19
     224:	98 f4       	brcc	.+38     	; 0x24c <AC_enuControlIrrigationSystem+0x34>
     226:	82 e0       	ldi	r24, 0x02	; 2
     228:	0e 94 42 02 	call	0x484	; 0x484 <DC_MOTOR_enuOnCW>
     22c:	10 e0       	ldi	r17, 0x00	; 0
     22e:	2a e0       	ldi	r18, 0x0A	; 10
     230:	30 e0       	ldi	r19, 0x00	; 0
     232:	4e e1       	ldi	r20, 0x1E	; 30
     234:	50 e0       	ldi	r21, 0x00	; 0
     236:	64 e6       	ldi	r22, 0x64	; 100
     238:	70 e0       	ldi	r23, 0x00	; 0
     23a:	82 e3       	ldi	r24, 0x32	; 50
     23c:	90 e0       	ldi	r25, 0x00	; 0
     23e:	0e 94 6f 04 	call	0x8de	; 0x8de <Math_Mapping>
     242:	68 2f       	mov	r22, r24
     244:	82 e0       	ldi	r24, 0x02	; 2
     246:	0e 94 76 02 	call	0x4ec	; 0x4ec <DC_MOTOR_SetSpeed>
     24a:	05 c0       	rjmp	.+10     	; 0x256 <AC_enuControlIrrigationSystem+0x3e>
     24c:	0d 33       	cpi	r16, 0x3D	; 61
     24e:	18 f0       	brcs	.+6      	; 0x256 <AC_enuControlIrrigationSystem+0x3e>
     250:	82 e0       	ldi	r24, 0x02	; 2
     252:	0e 94 5c 02 	call	0x4b8	; 0x4b8 <DC_MOTOR_enuOff>
     256:	81 e0       	ldi	r24, 0x01	; 1
     258:	1f 91       	pop	r17
     25a:	0f 91       	pop	r16
     25c:	08 95       	ret

0000025e <AC_enuControlLightIntensitySystem>:
     25e:	0f 93       	push	r16
     260:	1f 93       	push	r17
     262:	9b ee       	ldi	r25, 0xEB	; 235
     264:	98 0f       	add	r25, r24
     266:	98 31       	cpi	r25, 0x18	; 24
     268:	70 f4       	brcc	.+28     	; 0x286 <AC_enuControlLightIntensitySystem+0x28>
     26a:	08 2f       	mov	r16, r24
     26c:	10 e0       	ldi	r17, 0x00	; 0
     26e:	24 e1       	ldi	r18, 0x14	; 20
     270:	30 e0       	ldi	r19, 0x00	; 0
     272:	4d e2       	ldi	r20, 0x2D	; 45
     274:	50 e0       	ldi	r21, 0x00	; 0
     276:	64 e6       	ldi	r22, 0x64	; 100
     278:	70 e0       	ldi	r23, 0x00	; 0
     27a:	82 e3       	ldi	r24, 0x32	; 50
     27c:	90 e0       	ldi	r25, 0x00	; 0
     27e:	0e 94 6f 04 	call	0x8de	; 0x8de <Math_Mapping>
     282:	68 2f       	mov	r22, r24
     284:	03 c0       	rjmp	.+6      	; 0x28c <AC_enuControlLightIntensitySystem+0x2e>
     286:	8c 34       	cpi	r24, 0x4C	; 76
     288:	20 f0       	brcs	.+8      	; 0x292 <AC_enuControlLightIntensitySystem+0x34>
     28a:	60 e0       	ldi	r22, 0x00	; 0
     28c:	81 e0       	ldi	r24, 0x01	; 1
     28e:	0e 94 05 04 	call	0x80a	; 0x80a <LED_enuSetIntensity>
     292:	81 e0       	ldi	r24, 0x01	; 1
     294:	1f 91       	pop	r17
     296:	0f 91       	pop	r16
     298:	08 95       	ret

0000029a <AC_enuControlAlertSystem>:
     29a:	cf 93       	push	r28
     29c:	df 93       	push	r29
     29e:	ec 01       	movw	r28, r24
     2a0:	88 81       	ld	r24, Y
     2a2:	8a 50       	subi	r24, 0x0A	; 10
     2a4:	8f 31       	cpi	r24, 0x1F	; 31
     2a6:	60 f4       	brcc	.+24     	; 0x2c0 <AC_enuControlAlertSystem+0x26>
     2a8:	89 81       	ldd	r24, Y+1	; 0x01
     2aa:	84 51       	subi	r24, 0x14	; 20
     2ac:	8d 33       	cpi	r24, 0x3D	; 61
     2ae:	40 f4       	brcc	.+16     	; 0x2c0 <AC_enuControlAlertSystem+0x26>
     2b0:	8a 81       	ldd	r24, Y+2	; 0x02
     2b2:	8a 50       	subi	r24, 0x0A	; 10
     2b4:	87 34       	cpi	r24, 0x47	; 71
     2b6:	20 f4       	brcc	.+8      	; 0x2c0 <AC_enuControlAlertSystem+0x26>
     2b8:	8b 81       	ldd	r24, Y+3	; 0x03
     2ba:	84 51       	subi	r24, 0x14	; 20
     2bc:	87 34       	cpi	r24, 0x47	; 71
     2be:	a8 f0       	brcs	.+42     	; 0x2ea <AC_enuControlAlertSystem+0x50>
     2c0:	80 91 60 00 	lds	r24, 0x0060	; 0x800060 <__DATA_REGION_ORIGIN__>
     2c4:	81 30       	cpi	r24, 0x01	; 1
     2c6:	21 f4       	brne	.+8      	; 0x2d0 <AC_enuControlAlertSystem+0x36>
     2c8:	80 e0       	ldi	r24, 0x00	; 0
     2ca:	0e 94 10 02 	call	0x420	; 0x420 <BUZZER_enuTurnOFF>
     2ce:	03 c0       	rjmp	.+6      	; 0x2d6 <AC_enuControlAlertSystem+0x3c>
     2d0:	80 e0       	ldi	r24, 0x00	; 0
     2d2:	0e 94 fe 01 	call	0x3fc	; 0x3fc <BUZZER_enuTurnON>
     2d6:	1c 82       	std	Y+4, r1	; 0x04
     2d8:	83 e7       	ldi	r24, 0x73	; 115
     2da:	90 e0       	ldi	r25, 0x00	; 0
     2dc:	0e 94 e7 03 	call	0x7ce	; 0x7ce <LED_enuTurnOFF>
     2e0:	8d e7       	ldi	r24, 0x7D	; 125
     2e2:	90 e0       	ldi	r25, 0x00	; 0
     2e4:	0e 94 c9 03 	call	0x792	; 0x792 <LED_enuTurnON>
     2e8:	0f c0       	rjmp	.+30     	; 0x308 <AC_enuControlAlertSystem+0x6e>
     2ea:	81 e0       	ldi	r24, 0x01	; 1
     2ec:	8c 83       	std	Y+4, r24	; 0x04
     2ee:	10 92 60 00 	sts	0x0060, r1	; 0x800060 <__DATA_REGION_ORIGIN__>
     2f2:	80 e0       	ldi	r24, 0x00	; 0
     2f4:	0e 94 10 02 	call	0x420	; 0x420 <BUZZER_enuTurnOFF>
     2f8:	83 e7       	ldi	r24, 0x73	; 115
     2fa:	90 e0       	ldi	r25, 0x00	; 0
     2fc:	0e 94 c9 03 	call	0x792	; 0x792 <LED_enuTurnON>
     300:	8d e7       	ldi	r24, 0x7D	; 125
     302:	90 e0       	ldi	r25, 0x00	; 0
     304:	0e 94 e7 03 	call	0x7ce	; 0x7ce <LED_enuTurnOFF>
     308:	81 e0       	ldi	r24, 0x01	; 1
     30a:	df 91       	pop	r29
     30c:	cf 91       	pop	r28
     30e:	08 95       	ret

00000310 <Sensors_enuInit>:
     310:	0e 94 93 04 	call	0x926	; 0x926 <ADC_enuInit>
     314:	8c e8       	ldi	r24, 0x8C	; 140
     316:	90 e0       	ldi	r25, 0x00	; 0
     318:	0e 94 83 03 	call	0x706	; 0x706 <LDR_enuInit>
     31c:	82 e8       	ldi	r24, 0x82	; 130
     31e:	90 e0       	ldi	r25, 0x00	; 0
     320:	0e 94 4c 04 	call	0x898	; 0x898 <Soil_Moisture_enuInit>
     324:	0e 94 9d 02 	call	0x53a	; 0x53a <DHT11_Init>
     328:	80 e0       	ldi	r24, 0x00	; 0
     32a:	08 95       	ret

0000032c <Sensors_enuGetReadings>:
     32c:	ef 92       	push	r14
     32e:	ff 92       	push	r15
     330:	0f 93       	push	r16
     332:	1f 93       	push	r17
     334:	cf 93       	push	r28
     336:	df 93       	push	r29
     338:	00 d0       	rcall	.+0      	; 0x33a <Sensors_enuGetReadings+0xe>
     33a:	00 d0       	rcall	.+0      	; 0x33c <Sensors_enuGetReadings+0x10>
     33c:	cd b7       	in	r28, 0x3d	; 61
     33e:	de b7       	in	r29, 0x3e	; 62
     340:	1c 82       	std	Y+4, r1	; 0x04
     342:	1b 82       	std	Y+3, r1	; 0x03
     344:	00 97       	sbiw	r24, 0x00	; 0
     346:	81 f1       	breq	.+96     	; 0x3a8 <Sensors_enuGetReadings+0x7c>
     348:	7c 01       	movw	r14, r24
     34a:	60 e0       	ldi	r22, 0x00	; 0
     34c:	ce 01       	movw	r24, r28
     34e:	03 96       	adiw	r24, 0x03	; 3
     350:	0e 94 8f 03 	call	0x71e	; 0x71e <LDR_enuGetValue>
     354:	0b 81       	ldd	r16, Y+3	; 0x03
     356:	1c 81       	ldd	r17, Y+4	; 0x04
     358:	2f ef       	ldi	r18, 0xFF	; 255
     35a:	33 e0       	ldi	r19, 0x03	; 3
     35c:	40 e0       	ldi	r20, 0x00	; 0
     35e:	50 e0       	ldi	r21, 0x00	; 0
     360:	64 e6       	ldi	r22, 0x64	; 100
     362:	70 e0       	ldi	r23, 0x00	; 0
     364:	80 e0       	ldi	r24, 0x00	; 0
     366:	90 e0       	ldi	r25, 0x00	; 0
     368:	0e 94 6f 04 	call	0x8de	; 0x8de <Math_Mapping>
     36c:	f7 01       	movw	r30, r14
     36e:	83 83       	std	Z+3, r24	; 0x03
     370:	be 01       	movw	r22, r28
     372:	6f 5f       	subi	r22, 0xFF	; 255
     374:	7f 4f       	sbci	r23, 0xFF	; 255
     376:	80 e0       	ldi	r24, 0x00	; 0
     378:	0e 94 5f 04 	call	0x8be	; 0x8be <Soil_Moisture_enuGetMoisureVal>
     37c:	09 81       	ldd	r16, Y+1	; 0x01
     37e:	1a 81       	ldd	r17, Y+2	; 0x02
     380:	2f ef       	ldi	r18, 0xFF	; 255
     382:	33 e0       	ldi	r19, 0x03	; 3
     384:	40 e0       	ldi	r20, 0x00	; 0
     386:	50 e0       	ldi	r21, 0x00	; 0
     388:	64 e6       	ldi	r22, 0x64	; 100
     38a:	70 e0       	ldi	r23, 0x00	; 0
     38c:	80 e0       	ldi	r24, 0x00	; 0
     38e:	90 e0       	ldi	r25, 0x00	; 0
     390:	0e 94 6f 04 	call	0x8de	; 0x8de <Math_Mapping>
     394:	f7 01       	movw	r30, r14
     396:	82 83       	std	Z+2, r24	; 0x02
     398:	b7 01       	movw	r22, r14
     39a:	6f 5f       	subi	r22, 0xFF	; 255
     39c:	7f 4f       	sbci	r23, 0xFF	; 255
     39e:	c7 01       	movw	r24, r14
     3a0:	0e 94 b1 02 	call	0x562	; 0x562 <DHT_GetReadings>
     3a4:	80 e0       	ldi	r24, 0x00	; 0
     3a6:	01 c0       	rjmp	.+2      	; 0x3aa <Sensors_enuGetReadings+0x7e>
     3a8:	82 e0       	ldi	r24, 0x02	; 2
     3aa:	0f 90       	pop	r0
     3ac:	0f 90       	pop	r0
     3ae:	0f 90       	pop	r0
     3b0:	0f 90       	pop	r0
     3b2:	df 91       	pop	r29
     3b4:	cf 91       	pop	r28
     3b6:	1f 91       	pop	r17
     3b8:	0f 91       	pop	r16
     3ba:	ff 90       	pop	r15
     3bc:	ef 90       	pop	r14
     3be:	08 95       	ret

000003c0 <BUZZER_enuInit>:
     3c0:	cf 93       	push	r28
     3c2:	df 93       	push	r29
     3c4:	00 97       	sbiw	r24, 0x00	; 0
     3c6:	b1 f0       	breq	.+44     	; 0x3f4 <BUZZER_enuInit+0x34>
     3c8:	ec 01       	movw	r28, r24
     3ca:	41 e0       	ldi	r20, 0x01	; 1
     3cc:	69 81       	ldd	r22, Y+1	; 0x01
     3ce:	88 81       	ld	r24, Y
     3d0:	0e 94 12 05 	call	0xa24	; 0xa24 <DIO_enuSetPinDirection>
     3d4:	8a 81       	ldd	r24, Y+2	; 0x02
     3d6:	8a 30       	cpi	r24, 0x0A	; 10
     3d8:	11 f4       	brne	.+4      	; 0x3de <BUZZER_enuInit+0x1e>
     3da:	41 e0       	ldi	r20, 0x01	; 1
     3dc:	03 c0       	rjmp	.+6      	; 0x3e4 <BUZZER_enuInit+0x24>
     3de:	8b 30       	cpi	r24, 0x0B	; 11
     3e0:	39 f4       	brne	.+14     	; 0x3f0 <BUZZER_enuInit+0x30>
     3e2:	40 e0       	ldi	r20, 0x00	; 0
     3e4:	69 81       	ldd	r22, Y+1	; 0x01
     3e6:	88 81       	ld	r24, Y
     3e8:	df 91       	pop	r29
     3ea:	cf 91       	pop	r28
     3ec:	0c 94 68 05 	jmp	0xad0	; 0xad0 <DIO_enuSetPinVal>
     3f0:	83 e0       	ldi	r24, 0x03	; 3
     3f2:	01 c0       	rjmp	.+2      	; 0x3f6 <BUZZER_enuInit+0x36>
     3f4:	82 e0       	ldi	r24, 0x02	; 2
     3f6:	df 91       	pop	r29
     3f8:	cf 91       	pop	r28
     3fa:	08 95       	ret

000003fc <BUZZER_enuTurnON>:
     3fc:	81 11       	cpse	r24, r1
     3fe:	0e c0       	rjmp	.+28     	; 0x41c <__EEPROM_REGION_LENGTH__+0x1c>
     400:	41 e0       	ldi	r20, 0x01	; 1
     402:	60 91 62 00 	lds	r22, 0x0062	; 0x800062 <BUZZER_AstrBuzzerConfig+0x1>
     406:	80 91 61 00 	lds	r24, 0x0061	; 0x800061 <BUZZER_AstrBuzzerConfig>
     40a:	0e 94 12 05 	call	0xa24	; 0xa24 <DIO_enuSetPinDirection>
     40e:	41 e0       	ldi	r20, 0x01	; 1
     410:	60 91 62 00 	lds	r22, 0x0062	; 0x800062 <BUZZER_AstrBuzzerConfig+0x1>
     414:	80 91 61 00 	lds	r24, 0x0061	; 0x800061 <BUZZER_AstrBuzzerConfig>
     418:	0c 94 68 05 	jmp	0xad0	; 0xad0 <DIO_enuSetPinVal>
     41c:	83 e0       	ldi	r24, 0x03	; 3
     41e:	08 95       	ret

00000420 <BUZZER_enuTurnOFF>:
     420:	81 11       	cpse	r24, r1
     422:	0e c0       	rjmp	.+28     	; 0x440 <BUZZER_enuTurnOFF+0x20>
     424:	41 e0       	ldi	r20, 0x01	; 1
     426:	60 91 62 00 	lds	r22, 0x0062	; 0x800062 <BUZZER_AstrBuzzerConfig+0x1>
     42a:	80 91 61 00 	lds	r24, 0x0061	; 0x800061 <BUZZER_AstrBuzzerConfig>
     42e:	0e 94 12 05 	call	0xa24	; 0xa24 <DIO_enuSetPinDirection>
     432:	40 e0       	ldi	r20, 0x00	; 0
     434:	60 91 62 00 	lds	r22, 0x0062	; 0x800062 <BUZZER_AstrBuzzerConfig+0x1>
     438:	80 91 61 00 	lds	r24, 0x0061	; 0x800061 <BUZZER_AstrBuzzerConfig>
     43c:	0c 94 68 05 	jmp	0xad0	; 0xad0 <DIO_enuSetPinVal>
     440:	83 e0       	ldi	r24, 0x03	; 3
     442:	08 95       	ret

00000444 <DC_MOTOR_enuInit>:
     444:	0f 93       	push	r16
     446:	1f 93       	push	r17
     448:	cf 93       	push	r28
     44a:	df 93       	push	r29
     44c:	00 97       	sbiw	r24, 0x00	; 0
     44e:	a1 f0       	breq	.+40     	; 0x478 <DC_MOTOR_enuInit+0x34>
     450:	ec 01       	movw	r28, r24
     452:	8c 01       	movw	r16, r24
     454:	01 5f       	subi	r16, 0xF1	; 241
     456:	1f 4f       	sbci	r17, 0xFF	; 255
     458:	41 e0       	ldi	r20, 0x01	; 1
     45a:	69 81       	ldd	r22, Y+1	; 0x01
     45c:	88 81       	ld	r24, Y
     45e:	0e 94 12 05 	call	0xa24	; 0xa24 <DIO_enuSetPinDirection>
     462:	41 e0       	ldi	r20, 0x01	; 1
     464:	6b 81       	ldd	r22, Y+3	; 0x03
     466:	8a 81       	ldd	r24, Y+2	; 0x02
     468:	0e 94 12 05 	call	0xa24	; 0xa24 <DIO_enuSetPinDirection>
     46c:	25 96       	adiw	r28, 0x05	; 5
     46e:	c0 17       	cp	r28, r16
     470:	d1 07       	cpc	r29, r17
     472:	91 f7       	brne	.-28     	; 0x458 <DC_MOTOR_enuInit+0x14>
     474:	80 e0       	ldi	r24, 0x00	; 0
     476:	01 c0       	rjmp	.+2      	; 0x47a <DC_MOTOR_enuInit+0x36>
     478:	82 e0       	ldi	r24, 0x02	; 2
     47a:	df 91       	pop	r29
     47c:	cf 91       	pop	r28
     47e:	1f 91       	pop	r17
     480:	0f 91       	pop	r16
     482:	08 95       	ret

00000484 <DC_MOTOR_enuOnCW>:
     484:	cf 93       	push	r28
     486:	df 93       	push	r29
     488:	83 30       	cpi	r24, 0x03	; 3
     48a:	90 f4       	brcc	.+36     	; 0x4b0 <DC_MOTOR_enuOnCW+0x2c>
     48c:	95 e0       	ldi	r25, 0x05	; 5
     48e:	89 9f       	mul	r24, r25
     490:	e0 01       	movw	r28, r0
     492:	11 24       	eor	r1, r1
     494:	cc 59       	subi	r28, 0x9C	; 156
     496:	df 4f       	sbci	r29, 0xFF	; 255
     498:	41 e0       	ldi	r20, 0x01	; 1
     49a:	69 81       	ldd	r22, Y+1	; 0x01
     49c:	88 81       	ld	r24, Y
     49e:	0e 94 68 05 	call	0xad0	; 0xad0 <DIO_enuSetPinVal>
     4a2:	40 e0       	ldi	r20, 0x00	; 0
     4a4:	6b 81       	ldd	r22, Y+3	; 0x03
     4a6:	8a 81       	ldd	r24, Y+2	; 0x02
     4a8:	0e 94 68 05 	call	0xad0	; 0xad0 <DIO_enuSetPinVal>
     4ac:	80 e0       	ldi	r24, 0x00	; 0
     4ae:	01 c0       	rjmp	.+2      	; 0x4b2 <DC_MOTOR_enuOnCW+0x2e>
     4b0:	83 e0       	ldi	r24, 0x03	; 3
     4b2:	df 91       	pop	r29
     4b4:	cf 91       	pop	r28
     4b6:	08 95       	ret

000004b8 <DC_MOTOR_enuOff>:
     4b8:	cf 93       	push	r28
     4ba:	df 93       	push	r29
     4bc:	83 30       	cpi	r24, 0x03	; 3
     4be:	90 f4       	brcc	.+36     	; 0x4e4 <DC_MOTOR_enuOff+0x2c>
     4c0:	95 e0       	ldi	r25, 0x05	; 5
     4c2:	89 9f       	mul	r24, r25
     4c4:	e0 01       	movw	r28, r0
     4c6:	11 24       	eor	r1, r1
     4c8:	cc 59       	subi	r28, 0x9C	; 156
     4ca:	df 4f       	sbci	r29, 0xFF	; 255
     4cc:	40 e0       	ldi	r20, 0x00	; 0
     4ce:	69 81       	ldd	r22, Y+1	; 0x01
     4d0:	88 81       	ld	r24, Y
     4d2:	0e 94 68 05 	call	0xad0	; 0xad0 <DIO_enuSetPinVal>
     4d6:	40 e0       	ldi	r20, 0x00	; 0
     4d8:	6b 81       	ldd	r22, Y+3	; 0x03
     4da:	8a 81       	ldd	r24, Y+2	; 0x02
     4dc:	0e 94 68 05 	call	0xad0	; 0xad0 <DIO_enuSetPinVal>
     4e0:	80 e0       	ldi	r24, 0x00	; 0
     4e2:	01 c0       	rjmp	.+2      	; 0x4e6 <DC_MOTOR_enuOff+0x2e>
     4e4:	83 e0       	ldi	r24, 0x03	; 3
     4e6:	df 91       	pop	r29
     4e8:	cf 91       	pop	r28
     4ea:	08 95       	ret

000004ec <DC_MOTOR_SetSpeed>:
     4ec:	e8 2f       	mov	r30, r24
     4ee:	83 30       	cpi	r24, 0x03	; 3
     4f0:	00 f5       	brcc	.+64     	; 0x532 <DC_MOTOR_SetSpeed+0x46>
     4f2:	65 36       	cpi	r22, 0x65	; 101
     4f4:	f0 f4       	brcc	.+60     	; 0x532 <DC_MOTOR_SetSpeed+0x46>
     4f6:	86 2f       	mov	r24, r22
     4f8:	95 e0       	ldi	r25, 0x05	; 5
     4fa:	e9 9f       	mul	r30, r25
     4fc:	f0 01       	movw	r30, r0
     4fe:	11 24       	eor	r1, r1
     500:	ec 59       	subi	r30, 0x9C	; 156
     502:	ff 4f       	sbci	r31, 0xFF	; 255
     504:	94 81       	ldd	r25, Z+4	; 0x04
     506:	92 30       	cpi	r25, 0x02	; 2
     508:	69 f0       	breq	.+26     	; 0x524 <DC_MOTOR_SetSpeed+0x38>
     50a:	28 f4       	brcc	.+10     	; 0x516 <DC_MOTOR_SetSpeed+0x2a>
     50c:	91 30       	cpi	r25, 0x01	; 1
     50e:	99 f4       	brne	.+38     	; 0x536 <DC_MOTOR_SetSpeed+0x4a>
     510:	0e 94 7b 07 	call	0xef6	; 0xef6 <TIMER0_enuGeneratePWM>
     514:	0c c0       	rjmp	.+24     	; 0x52e <DC_MOTOR_SetSpeed+0x42>
     516:	93 30       	cpi	r25, 0x03	; 3
     518:	41 f0       	breq	.+16     	; 0x52a <DC_MOTOR_SetSpeed+0x3e>
     51a:	94 30       	cpi	r25, 0x04	; 4
     51c:	61 f4       	brne	.+24     	; 0x536 <DC_MOTOR_SetSpeed+0x4a>
     51e:	0e 94 05 08 	call	0x100a	; 0x100a <TIMER2_enuGeneratePWM>
     522:	05 c0       	rjmp	.+10     	; 0x52e <DC_MOTOR_SetSpeed+0x42>
     524:	0e 94 c3 07 	call	0xf86	; 0xf86 <TIMER1_enuGeneratePWM_OCR1A>
     528:	02 c0       	rjmp	.+4      	; 0x52e <DC_MOTOR_SetSpeed+0x42>
     52a:	0e 94 d4 07 	call	0xfa8	; 0xfa8 <TIMER1_enuGeneratePWM_OCR1B>
     52e:	80 e0       	ldi	r24, 0x00	; 0
     530:	08 95       	ret
     532:	83 e0       	ldi	r24, 0x03	; 3
     534:	08 95       	ret
     536:	81 e0       	ldi	r24, 0x01	; 1
     538:	08 95       	ret

0000053a <DHT11_Init>:
     53a:	41 e0       	ldi	r20, 0x01	; 1
     53c:	66 e0       	ldi	r22, 0x06	; 6
     53e:	83 e0       	ldi	r24, 0x03	; 3
     540:	0e 94 12 05 	call	0xa24	; 0xa24 <DIO_enuSetPinDirection>
     544:	41 e0       	ldi	r20, 0x01	; 1
     546:	66 e0       	ldi	r22, 0x06	; 6
     548:	83 e0       	ldi	r24, 0x03	; 3
     54a:	0e 94 68 05 	call	0xad0	; 0xad0 <DIO_enuSetPinVal>
     54e:	2f ef       	ldi	r18, 0xFF	; 255
     550:	89 e6       	ldi	r24, 0x69	; 105
     552:	98 e1       	ldi	r25, 0x18	; 24
     554:	21 50       	subi	r18, 0x01	; 1
     556:	80 40       	sbci	r24, 0x00	; 0
     558:	90 40       	sbci	r25, 0x00	; 0
     55a:	e1 f7       	brne	.-8      	; 0x554 <DHT11_Init+0x1a>
     55c:	00 c0       	rjmp	.+0      	; 0x55e <DHT11_Init+0x24>
     55e:	00 00       	nop
     560:	08 95       	ret

00000562 <DHT_GetReadings>:
     562:	5f 92       	push	r5
     564:	6f 92       	push	r6
     566:	7f 92       	push	r7
     568:	8f 92       	push	r8
     56a:	9f 92       	push	r9
     56c:	af 92       	push	r10
     56e:	bf 92       	push	r11
     570:	cf 92       	push	r12
     572:	df 92       	push	r13
     574:	ef 92       	push	r14
     576:	ff 92       	push	r15
     578:	0f 93       	push	r16
     57a:	1f 93       	push	r17
     57c:	cf 93       	push	r28
     57e:	df 93       	push	r29
     580:	1f 92       	push	r1
     582:	cd b7       	in	r28, 0x3d	; 61
     584:	de b7       	in	r29, 0x3e	; 62
     586:	4c 01       	movw	r8, r24
     588:	5b 01       	movw	r10, r22
     58a:	41 e0       	ldi	r20, 0x01	; 1
     58c:	66 e0       	ldi	r22, 0x06	; 6
     58e:	83 e0       	ldi	r24, 0x03	; 3
     590:	0e 94 12 05 	call	0xa24	; 0xa24 <DIO_enuSetPinDirection>
     594:	40 e0       	ldi	r20, 0x00	; 0
     596:	66 e0       	ldi	r22, 0x06	; 6
     598:	83 e0       	ldi	r24, 0x03	; 3
     59a:	0e 94 68 05 	call	0xad0	; 0xad0 <DIO_enuSetPinVal>
     59e:	8f e9       	ldi	r24, 0x9F	; 159
     5a0:	9c e8       	ldi	r25, 0x8C	; 140
     5a2:	01 97       	sbiw	r24, 0x01	; 1
     5a4:	f1 f7       	brne	.-4      	; 0x5a2 <DHT_GetReadings+0x40>
     5a6:	00 c0       	rjmp	.+0      	; 0x5a8 <DHT_GetReadings+0x46>
     5a8:	00 00       	nop
     5aa:	41 e0       	ldi	r20, 0x01	; 1
     5ac:	66 e0       	ldi	r22, 0x06	; 6
     5ae:	83 e0       	ldi	r24, 0x03	; 3
     5b0:	0e 94 68 05 	call	0xad0	; 0xad0 <DIO_enuSetPinVal>
     5b4:	40 e0       	ldi	r20, 0x00	; 0
     5b6:	66 e0       	ldi	r22, 0x06	; 6
     5b8:	83 e0       	ldi	r24, 0x03	; 3
     5ba:	0e 94 12 05 	call	0xa24	; 0xa24 <DIO_enuSetPinDirection>
     5be:	9a e6       	ldi	r25, 0x6A	; 106
     5c0:	9a 95       	dec	r25
     5c2:	f1 f7       	brne	.-4      	; 0x5c0 <DHT_GetReadings+0x5e>
     5c4:	00 c0       	rjmp	.+0      	; 0x5c6 <DHT_GetReadings+0x64>
     5c6:	ae 01       	movw	r20, r28
     5c8:	4f 5f       	subi	r20, 0xFF	; 255
     5ca:	5f 4f       	sbci	r21, 0xFF	; 255
     5cc:	66 e0       	ldi	r22, 0x06	; 6
     5ce:	83 e0       	ldi	r24, 0x03	; 3
     5d0:	0e 94 be 05 	call	0xb7c	; 0xb7c <DIO_enuGetPinVal>
     5d4:	89 81       	ldd	r24, Y+1	; 0x01
     5d6:	81 11       	cpse	r24, r1
     5d8:	7c c0       	rjmp	.+248    	; 0x6d2 <DHT_GetReadings+0x170>
     5da:	e5 ed       	ldi	r30, 0xD5	; 213
     5dc:	ea 95       	dec	r30
     5de:	f1 f7       	brne	.-4      	; 0x5dc <DHT_GetReadings+0x7a>
     5e0:	00 00       	nop
     5e2:	ae 01       	movw	r20, r28
     5e4:	4f 5f       	subi	r20, 0xFF	; 255
     5e6:	5f 4f       	sbci	r21, 0xFF	; 255
     5e8:	66 e0       	ldi	r22, 0x06	; 6
     5ea:	83 e0       	ldi	r24, 0x03	; 3
     5ec:	0e 94 be 05 	call	0xb7c	; 0xb7c <DIO_enuGetPinVal>
     5f0:	11 e0       	ldi	r17, 0x01	; 1
     5f2:	89 81       	ldd	r24, Y+1	; 0x01
     5f4:	81 30       	cpi	r24, 0x01	; 1
     5f6:	09 f0       	breq	.+2      	; 0x5fa <DHT_GetReadings+0x98>
     5f8:	10 e0       	ldi	r17, 0x00	; 0
     5fa:	89 81       	ldd	r24, Y+1	; 0x01
     5fc:	81 30       	cpi	r24, 0x01	; 1
     5fe:	41 f4       	brne	.+16     	; 0x610 <DHT_GetReadings+0xae>
     600:	ae 01       	movw	r20, r28
     602:	4f 5f       	subi	r20, 0xFF	; 255
     604:	5f 4f       	sbci	r21, 0xFF	; 255
     606:	66 e0       	ldi	r22, 0x06	; 6
     608:	83 e0       	ldi	r24, 0x03	; 3
     60a:	0e 94 be 05 	call	0xb7c	; 0xb7c <DIO_enuGetPinVal>
     60e:	f5 cf       	rjmp	.-22     	; 0x5fa <DHT_GetReadings+0x98>
     610:	11 23       	and	r17, r17
     612:	09 f4       	brne	.+2      	; 0x616 <DHT_GetReadings+0xb4>
     614:	5e c0       	rjmp	.+188    	; 0x6d2 <DHT_GetReadings+0x170>
     616:	80 eb       	ldi	r24, 0xB0	; 176
     618:	e8 2e       	mov	r14, r24
     61a:	80 e0       	ldi	r24, 0x00	; 0
     61c:	f8 2e       	mov	r15, r24
     61e:	95 eb       	ldi	r25, 0xB5	; 181
     620:	69 2e       	mov	r6, r25
     622:	90 e0       	ldi	r25, 0x00	; 0
     624:	79 2e       	mov	r7, r25
     626:	cc 24       	eor	r12, r12
     628:	c3 94       	inc	r12
     62a:	d1 2c       	mov	r13, r1
     62c:	07 e0       	ldi	r16, 0x07	; 7
     62e:	10 e0       	ldi	r17, 0x00	; 0
     630:	51 2c       	mov	r5, r1
     632:	89 81       	ldd	r24, Y+1	; 0x01
     634:	81 11       	cpse	r24, r1
     636:	08 c0       	rjmp	.+16     	; 0x648 <DHT_GetReadings+0xe6>
     638:	ae 01       	movw	r20, r28
     63a:	4f 5f       	subi	r20, 0xFF	; 255
     63c:	5f 4f       	sbci	r21, 0xFF	; 255
     63e:	66 e0       	ldi	r22, 0x06	; 6
     640:	83 e0       	ldi	r24, 0x03	; 3
     642:	0e 94 be 05 	call	0xb7c	; 0xb7c <DIO_enuGetPinVal>
     646:	f5 cf       	rjmp	.-22     	; 0x632 <DHT_GetReadings+0xd0>
     648:	f0 e5       	ldi	r31, 0x50	; 80
     64a:	fa 95       	dec	r31
     64c:	f1 f7       	brne	.-4      	; 0x64a <DHT_GetReadings+0xe8>
     64e:	ae 01       	movw	r20, r28
     650:	4f 5f       	subi	r20, 0xFF	; 255
     652:	5f 4f       	sbci	r21, 0xFF	; 255
     654:	66 e0       	ldi	r22, 0x06	; 6
     656:	83 e0       	ldi	r24, 0x03	; 3
     658:	0e 94 be 05 	call	0xb7c	; 0xb7c <DIO_enuGetPinVal>
     65c:	89 81       	ldd	r24, Y+1	; 0x01
     65e:	81 30       	cpi	r24, 0x01	; 1
     660:	41 f4       	brne	.+16     	; 0x672 <DHT_GetReadings+0x110>
     662:	c6 01       	movw	r24, r12
     664:	00 2e       	mov	r0, r16
     666:	01 c0       	rjmp	.+2      	; 0x66a <DHT_GetReadings+0x108>
     668:	88 0f       	add	r24, r24
     66a:	0a 94       	dec	r0
     66c:	ea f7       	brpl	.-6      	; 0x668 <DHT_GetReadings+0x106>
     66e:	58 2a       	or	r5, r24
     670:	09 c0       	rjmp	.+18     	; 0x684 <DHT_GetReadings+0x122>
     672:	c6 01       	movw	r24, r12
     674:	00 2e       	mov	r0, r16
     676:	01 c0       	rjmp	.+2      	; 0x67a <DHT_GetReadings+0x118>
     678:	88 0f       	add	r24, r24
     67a:	0a 94       	dec	r0
     67c:	ea f7       	brpl	.-6      	; 0x678 <DHT_GetReadings+0x116>
     67e:	80 95       	com	r24
     680:	58 22       	and	r5, r24
     682:	0b c0       	rjmp	.+22     	; 0x69a <DHT_GetReadings+0x138>
     684:	89 81       	ldd	r24, Y+1	; 0x01
     686:	81 30       	cpi	r24, 0x01	; 1
     688:	41 f4       	brne	.+16     	; 0x69a <DHT_GetReadings+0x138>
     68a:	ae 01       	movw	r20, r28
     68c:	4f 5f       	subi	r20, 0xFF	; 255
     68e:	5f 4f       	sbci	r21, 0xFF	; 255
     690:	66 e0       	ldi	r22, 0x06	; 6
     692:	83 e0       	ldi	r24, 0x03	; 3
     694:	0e 94 be 05 	call	0xb7c	; 0xb7c <DIO_enuGetPinVal>
     698:	f5 cf       	rjmp	.-22     	; 0x684 <DHT_GetReadings+0x122>
     69a:	01 50       	subi	r16, 0x01	; 1
     69c:	11 09       	sbc	r17, r1
     69e:	48 f6       	brcc	.-110    	; 0x632 <DHT_GetReadings+0xd0>
     6a0:	f7 01       	movw	r30, r14
     6a2:	51 92       	st	Z+, r5
     6a4:	7f 01       	movw	r14, r30
     6a6:	6e 16       	cp	r6, r30
     6a8:	7f 06       	cpc	r7, r31
     6aa:	09 f0       	breq	.+2      	; 0x6ae <DHT_GetReadings+0x14c>
     6ac:	bf cf       	rjmp	.-130    	; 0x62c <DHT_GetReadings+0xca>
     6ae:	90 91 b0 00 	lds	r25, 0x00B0	; 0x8000b0 <DHT_Reading>
     6b2:	80 91 b1 00 	lds	r24, 0x00B1	; 0x8000b1 <DHT_Reading+0x1>
     6b6:	98 0f       	add	r25, r24
     6b8:	80 91 b2 00 	lds	r24, 0x00B2	; 0x8000b2 <DHT_Reading+0x2>
     6bc:	98 0f       	add	r25, r24
     6be:	80 91 b3 00 	lds	r24, 0x00B3	; 0x8000b3 <DHT_Reading+0x3>
     6c2:	98 0f       	add	r25, r24
     6c4:	81 e0       	ldi	r24, 0x01	; 1
     6c6:	20 91 b4 00 	lds	r18, 0x00B4	; 0x8000b4 <DHT_Reading+0x4>
     6ca:	92 13       	cpse	r25, r18
     6cc:	03 c0       	rjmp	.+6      	; 0x6d4 <DHT_GetReadings+0x172>
     6ce:	80 e0       	ldi	r24, 0x00	; 0
     6d0:	01 c0       	rjmp	.+2      	; 0x6d4 <DHT_GetReadings+0x172>
     6d2:	81 e0       	ldi	r24, 0x01	; 1
     6d4:	90 91 b2 00 	lds	r25, 0x00B2	; 0x8000b2 <DHT_Reading+0x2>
     6d8:	f4 01       	movw	r30, r8
     6da:	90 83       	st	Z, r25
     6dc:	90 91 b0 00 	lds	r25, 0x00B0	; 0x8000b0 <DHT_Reading>
     6e0:	f5 01       	movw	r30, r10
     6e2:	90 83       	st	Z, r25
     6e4:	0f 90       	pop	r0
     6e6:	df 91       	pop	r29
     6e8:	cf 91       	pop	r28
     6ea:	1f 91       	pop	r17
     6ec:	0f 91       	pop	r16
     6ee:	ff 90       	pop	r15
     6f0:	ef 90       	pop	r14
     6f2:	df 90       	pop	r13
     6f4:	cf 90       	pop	r12
     6f6:	bf 90       	pop	r11
     6f8:	af 90       	pop	r10
     6fa:	9f 90       	pop	r9
     6fc:	8f 90       	pop	r8
     6fe:	7f 90       	pop	r7
     700:	6f 90       	pop	r6
     702:	5f 90       	pop	r5
     704:	08 95       	ret

00000706 <LDR_enuInit>:
     706:	fc 01       	movw	r30, r24
     708:	60 81       	ld	r22, Z
     70a:	71 81       	ldd	r23, Z+1	; 0x01
     70c:	6f 3f       	cpi	r22, 0xFF	; 255
     70e:	71 05       	cpc	r23, r1
     710:	21 f0       	breq	.+8      	; 0x71a <LDR_enuInit+0x14>
     712:	40 e0       	ldi	r20, 0x00	; 0
     714:	80 e0       	ldi	r24, 0x00	; 0
     716:	0c 94 12 05 	jmp	0xa24	; 0xa24 <DIO_enuSetPinDirection>
     71a:	81 e0       	ldi	r24, 0x01	; 1
     71c:	08 95       	ret

0000071e <LDR_enuGetValue>:
     71e:	00 97       	sbiw	r24, 0x00	; 0
     720:	21 f0       	breq	.+8      	; 0x72a <LDR_enuGetValue+0xc>
     722:	0e 94 c9 04 	call	0x992	; 0x992 <ADC_Read_From_Ch>
     726:	80 e0       	ldi	r24, 0x00	; 0
     728:	08 95       	ret
     72a:	82 e0       	ldi	r24, 0x02	; 2
     72c:	08 95       	ret

0000072e <LED_enuINIT>:
     72e:	0f 93       	push	r16
     730:	1f 93       	push	r17
     732:	cf 93       	push	r28
     734:	df 93       	push	r29
     736:	00 97       	sbiw	r24, 0x00	; 0
     738:	31 f1       	breq	.+76     	; 0x786 <LED_enuINIT+0x58>
     73a:	ec 01       	movw	r28, r24
     73c:	8c 01       	movw	r16, r24
     73e:	01 5f       	subi	r16, 0xF1	; 241
     740:	1f 4f       	sbci	r17, 0xFF	; 255
     742:	41 e0       	ldi	r20, 0x01	; 1
     744:	69 81       	ldd	r22, Y+1	; 0x01
     746:	88 81       	ld	r24, Y
     748:	0e 94 12 05 	call	0xa24	; 0xa24 <DIO_enuSetPinDirection>
     74c:	8a 81       	ldd	r24, Y+2	; 0x02
     74e:	8c 30       	cpi	r24, 0x0C	; 12
     750:	59 f4       	brne	.+22     	; 0x768 <LED_enuINIT+0x3a>
     752:	8b 81       	ldd	r24, Y+3	; 0x03
     754:	8a 30       	cpi	r24, 0x0A	; 10
     756:	79 f0       	breq	.+30     	; 0x776 <LED_enuINIT+0x48>
     758:	8b 30       	cpi	r24, 0x0B	; 11
     75a:	79 f4       	brne	.+30     	; 0x77a <LED_enuINIT+0x4c>
     75c:	41 e0       	ldi	r20, 0x01	; 1
     75e:	69 81       	ldd	r22, Y+1	; 0x01
     760:	88 81       	ld	r24, Y
     762:	0e 94 68 05 	call	0xad0	; 0xad0 <DIO_enuSetPinVal>
     766:	0a c0       	rjmp	.+20     	; 0x77c <LED_enuINIT+0x4e>
     768:	8d 30       	cpi	r24, 0x0D	; 13
     76a:	39 f4       	brne	.+14     	; 0x77a <LED_enuINIT+0x4c>
     76c:	8b 81       	ldd	r24, Y+3	; 0x03
     76e:	8a 30       	cpi	r24, 0x0A	; 10
     770:	a9 f3       	breq	.-22     	; 0x75c <LED_enuINIT+0x2e>
     772:	8b 30       	cpi	r24, 0x0B	; 11
     774:	11 f4       	brne	.+4      	; 0x77a <LED_enuINIT+0x4c>
     776:	40 e0       	ldi	r20, 0x00	; 0
     778:	f2 cf       	rjmp	.-28     	; 0x75e <LED_enuINIT+0x30>
     77a:	83 e0       	ldi	r24, 0x03	; 3
     77c:	25 96       	adiw	r28, 0x05	; 5
     77e:	c0 17       	cp	r28, r16
     780:	d1 07       	cpc	r29, r17
     782:	f9 f6       	brne	.-66     	; 0x742 <LED_enuINIT+0x14>
     784:	01 c0       	rjmp	.+2      	; 0x788 <LED_enuINIT+0x5a>
     786:	82 e0       	ldi	r24, 0x02	; 2
     788:	df 91       	pop	r29
     78a:	cf 91       	pop	r28
     78c:	1f 91       	pop	r17
     78e:	0f 91       	pop	r16
     790:	08 95       	ret

00000792 <LED_enuTurnON>:
     792:	cf 93       	push	r28
     794:	df 93       	push	r29
     796:	00 97       	sbiw	r24, 0x00	; 0
     798:	a1 f0       	breq	.+40     	; 0x7c2 <LED_enuTurnON+0x30>
     79a:	ec 01       	movw	r28, r24
     79c:	41 e0       	ldi	r20, 0x01	; 1
     79e:	69 81       	ldd	r22, Y+1	; 0x01
     7a0:	88 81       	ld	r24, Y
     7a2:	0e 94 12 05 	call	0xa24	; 0xa24 <DIO_enuSetPinDirection>
     7a6:	8a 81       	ldd	r24, Y+2	; 0x02
     7a8:	8c 30       	cpi	r24, 0x0C	; 12
     7aa:	11 f4       	brne	.+4      	; 0x7b0 <LED_enuTurnON+0x1e>
     7ac:	40 e0       	ldi	r20, 0x00	; 0
     7ae:	03 c0       	rjmp	.+6      	; 0x7b6 <LED_enuTurnON+0x24>
     7b0:	8d 30       	cpi	r24, 0x0D	; 13
     7b2:	49 f4       	brne	.+18     	; 0x7c6 <LED_enuTurnON+0x34>
     7b4:	41 e0       	ldi	r20, 0x01	; 1
     7b6:	69 81       	ldd	r22, Y+1	; 0x01
     7b8:	88 81       	ld	r24, Y
     7ba:	df 91       	pop	r29
     7bc:	cf 91       	pop	r28
     7be:	0c 94 68 05 	jmp	0xad0	; 0xad0 <DIO_enuSetPinVal>
     7c2:	82 e0       	ldi	r24, 0x02	; 2
     7c4:	01 c0       	rjmp	.+2      	; 0x7c8 <LED_enuTurnON+0x36>
     7c6:	83 e0       	ldi	r24, 0x03	; 3
     7c8:	df 91       	pop	r29
     7ca:	cf 91       	pop	r28
     7cc:	08 95       	ret

000007ce <LED_enuTurnOFF>:
     7ce:	cf 93       	push	r28
     7d0:	df 93       	push	r29
     7d2:	00 97       	sbiw	r24, 0x00	; 0
     7d4:	a1 f0       	breq	.+40     	; 0x7fe <LED_enuTurnOFF+0x30>
     7d6:	ec 01       	movw	r28, r24
     7d8:	41 e0       	ldi	r20, 0x01	; 1
     7da:	69 81       	ldd	r22, Y+1	; 0x01
     7dc:	88 81       	ld	r24, Y
     7de:	0e 94 12 05 	call	0xa24	; 0xa24 <DIO_enuSetPinDirection>
     7e2:	8a 81       	ldd	r24, Y+2	; 0x02
     7e4:	8c 30       	cpi	r24, 0x0C	; 12
     7e6:	11 f4       	brne	.+4      	; 0x7ec <LED_enuTurnOFF+0x1e>
     7e8:	41 e0       	ldi	r20, 0x01	; 1
     7ea:	03 c0       	rjmp	.+6      	; 0x7f2 <LED_enuTurnOFF+0x24>
     7ec:	8d 30       	cpi	r24, 0x0D	; 13
     7ee:	49 f4       	brne	.+18     	; 0x802 <__DATA_REGION_LENGTH__+0x2>
     7f0:	40 e0       	ldi	r20, 0x00	; 0
     7f2:	69 81       	ldd	r22, Y+1	; 0x01
     7f4:	88 81       	ld	r24, Y
     7f6:	df 91       	pop	r29
     7f8:	cf 91       	pop	r28
     7fa:	0c 94 68 05 	jmp	0xad0	; 0xad0 <DIO_enuSetPinVal>
     7fe:	82 e0       	ldi	r24, 0x02	; 2
     800:	01 c0       	rjmp	.+2      	; 0x804 <__DATA_REGION_LENGTH__+0x4>
     802:	83 e0       	ldi	r24, 0x03	; 3
     804:	df 91       	pop	r29
     806:	cf 91       	pop	r28
     808:	08 95       	ret

0000080a <LED_enuSetIntensity>:
     80a:	28 2f       	mov	r18, r24
     80c:	83 30       	cpi	r24, 0x03	; 3
     80e:	08 f0       	brcs	.+2      	; 0x812 <LED_enuSetIntensity+0x8>
     810:	3f c0       	rjmp	.+126    	; 0x890 <__stack+0x31>
     812:	65 36       	cpi	r22, 0x65	; 101
     814:	e8 f5       	brcc	.+122    	; 0x890 <__stack+0x31>
     816:	86 2f       	mov	r24, r22
     818:	30 e0       	ldi	r19, 0x00	; 0
     81a:	61 11       	cpse	r22, r1
     81c:	0a c0       	rjmp	.+20     	; 0x832 <LED_enuSetIntensity+0x28>
     81e:	85 e0       	ldi	r24, 0x05	; 5
     820:	82 9f       	mul	r24, r18
     822:	f0 01       	movw	r30, r0
     824:	83 9f       	mul	r24, r19
     826:	f0 0d       	add	r31, r0
     828:	11 24       	eor	r1, r1
     82a:	ed 58       	subi	r30, 0x8D	; 141
     82c:	ff 4f       	sbci	r31, 0xFF	; 255
     82e:	40 e0       	ldi	r20, 0x00	; 0
     830:	0b c0       	rjmp	.+22     	; 0x848 <LED_enuSetIntensity+0x3e>
     832:	64 36       	cpi	r22, 0x64	; 100
     834:	71 f4       	brne	.+28     	; 0x852 <LED_enuSetIntensity+0x48>
     836:	85 e0       	ldi	r24, 0x05	; 5
     838:	82 9f       	mul	r24, r18
     83a:	f0 01       	movw	r30, r0
     83c:	83 9f       	mul	r24, r19
     83e:	f0 0d       	add	r31, r0
     840:	11 24       	eor	r1, r1
     842:	ed 58       	subi	r30, 0x8D	; 141
     844:	ff 4f       	sbci	r31, 0xFF	; 255
     846:	41 e0       	ldi	r20, 0x01	; 1
     848:	61 81       	ldd	r22, Z+1	; 0x01
     84a:	80 81       	ld	r24, Z
     84c:	0e 94 68 05 	call	0xad0	; 0xad0 <DIO_enuSetPinVal>
     850:	21 c0       	rjmp	.+66     	; 0x894 <__stack+0x35>
     852:	95 e0       	ldi	r25, 0x05	; 5
     854:	92 9f       	mul	r25, r18
     856:	f0 01       	movw	r30, r0
     858:	93 9f       	mul	r25, r19
     85a:	f0 0d       	add	r31, r0
     85c:	11 24       	eor	r1, r1
     85e:	ed 58       	subi	r30, 0x8D	; 141
     860:	ff 4f       	sbci	r31, 0xFF	; 255
     862:	94 81       	ldd	r25, Z+4	; 0x04
     864:	92 30       	cpi	r25, 0x02	; 2
     866:	69 f0       	breq	.+26     	; 0x882 <__stack+0x23>
     868:	28 f4       	brcc	.+10     	; 0x874 <__stack+0x15>
     86a:	91 30       	cpi	r25, 0x01	; 1
     86c:	99 f4       	brne	.+38     	; 0x894 <__stack+0x35>
     86e:	0e 94 7b 07 	call	0xef6	; 0xef6 <TIMER0_enuGeneratePWM>
     872:	0c c0       	rjmp	.+24     	; 0x88c <__stack+0x2d>
     874:	93 30       	cpi	r25, 0x03	; 3
     876:	41 f0       	breq	.+16     	; 0x888 <__stack+0x29>
     878:	94 30       	cpi	r25, 0x04	; 4
     87a:	61 f4       	brne	.+24     	; 0x894 <__stack+0x35>
     87c:	0e 94 05 08 	call	0x100a	; 0x100a <TIMER2_enuGeneratePWM>
     880:	05 c0       	rjmp	.+10     	; 0x88c <__stack+0x2d>
     882:	0e 94 c3 07 	call	0xf86	; 0xf86 <TIMER1_enuGeneratePWM_OCR1A>
     886:	02 c0       	rjmp	.+4      	; 0x88c <__stack+0x2d>
     888:	0e 94 d4 07 	call	0xfa8	; 0xfa8 <TIMER1_enuGeneratePWM_OCR1B>
     88c:	80 e0       	ldi	r24, 0x00	; 0
     88e:	08 95       	ret
     890:	83 e0       	ldi	r24, 0x03	; 3
     892:	08 95       	ret
     894:	81 e0       	ldi	r24, 0x01	; 1
     896:	08 95       	ret

00000898 <Soil_Moisture_enuInit>:
     898:	cf 93       	push	r28
     89a:	df 93       	push	r29
     89c:	ec 01       	movw	r28, r24
     89e:	0e 94 93 04 	call	0x926	; 0x926 <ADC_enuInit>
     8a2:	40 e0       	ldi	r20, 0x00	; 0
     8a4:	68 81       	ld	r22, Y
     8a6:	80 e0       	ldi	r24, 0x00	; 0
     8a8:	0e 94 12 05 	call	0xa24	; 0xa24 <DIO_enuSetPinDirection>
     8ac:	88 81       	ld	r24, Y
     8ae:	0e 94 ab 04 	call	0x956	; 0x956 <ADC_enuSelectChannel>
     8b2:	0e 94 a2 04 	call	0x944	; 0x944 <ADC_enuEnable>
     8b6:	80 e0       	ldi	r24, 0x00	; 0
     8b8:	df 91       	pop	r29
     8ba:	cf 91       	pop	r28
     8bc:	08 95       	ret

000008be <Soil_Moisture_enuGetMoisureVal>:
     8be:	61 15       	cp	r22, r1
     8c0:	71 05       	cpc	r23, r1
     8c2:	49 f0       	breq	.+18     	; 0x8d6 <Soil_Moisture_enuGetMoisureVal+0x18>
     8c4:	81 11       	cpse	r24, r1
     8c6:	09 c0       	rjmp	.+18     	; 0x8da <Soil_Moisture_enuGetMoisureVal+0x1c>
     8c8:	cb 01       	movw	r24, r22
     8ca:	60 91 82 00 	lds	r22, 0x0082	; 0x800082 <Soil_Moisture_AstrSoilMoistureConfig>
     8ce:	0e 94 c9 04 	call	0x992	; 0x992 <ADC_Read_From_Ch>
     8d2:	81 e0       	ldi	r24, 0x01	; 1
     8d4:	08 95       	ret
     8d6:	82 e0       	ldi	r24, 0x02	; 2
     8d8:	08 95       	ret
     8da:	83 e0       	ldi	r24, 0x03	; 3
     8dc:	08 95       	ret

000008de <Math_Mapping>:
     8de:	0f 93       	push	r16
     8e0:	1f 93       	push	r17
     8e2:	cf 93       	push	r28
     8e4:	df 93       	push	r29
     8e6:	ec 01       	movw	r28, r24
     8e8:	f9 01       	movw	r30, r18
     8ea:	9b 01       	movw	r18, r22
     8ec:	28 1b       	sub	r18, r24
     8ee:	39 0b       	sbc	r19, r25
     8f0:	d8 01       	movw	r26, r16
     8f2:	a4 1b       	sub	r26, r20
     8f4:	b5 0b       	sbc	r27, r21
     8f6:	0e 94 c5 09 	call	0x138a	; 0x138a <__mulhisi3>
     8fa:	9f 01       	movw	r18, r30
     8fc:	24 1b       	sub	r18, r20
     8fe:	35 0b       	sbc	r19, r21
     900:	03 2e       	mov	r0, r19
     902:	00 0c       	add	r0, r0
     904:	44 0b       	sbc	r20, r20
     906:	55 0b       	sbc	r21, r21
     908:	0e 94 a6 09 	call	0x134c	; 0x134c <__divmodsi4>
     90c:	ce 01       	movw	r24, r28
     90e:	82 0f       	add	r24, r18
     910:	93 1f       	adc	r25, r19
     912:	df 91       	pop	r29
     914:	cf 91       	pop	r28
     916:	1f 91       	pop	r17
     918:	0f 91       	pop	r16
     91a:	08 95       	ret

0000091c <main>:
     91c:	0e 94 49 00 	call	0x92	; 0x92 <AGMS_enuInit_AutomaticControl>
     920:	0e 94 51 00 	call	0xa2	; 0xa2 <AGMS_enuRunning_AutomaticControl>
     924:	fd cf       	rjmp	.-6      	; 0x920 <main+0x4>

00000926 <ADC_enuInit>:
     926:	87 b1       	in	r24, 0x07	; 7
     928:	8f 73       	andi	r24, 0x3F	; 63
     92a:	87 b9       	out	0x07, r24	; 7
     92c:	3e 98       	cbi	0x07, 6	; 7
     92e:	3f 98       	cbi	0x07, 7	; 7
     930:	3d 98       	cbi	0x07, 5	; 7
     932:	3d 98       	cbi	0x07, 5	; 7
     934:	86 b1       	in	r24, 0x06	; 6
     936:	88 7f       	andi	r24, 0xF8	; 248
     938:	86 b9       	out	0x06, r24	; 6
     93a:	30 9a       	sbi	0x06, 0	; 6
     93c:	31 9a       	sbi	0x06, 1	; 6
     93e:	32 98       	cbi	0x06, 2	; 6
     940:	81 e0       	ldi	r24, 0x01	; 1
     942:	08 95       	ret

00000944 <ADC_enuEnable>:
     944:	37 9a       	sbi	0x06, 7	; 6
     946:	81 e0       	ldi	r24, 0x01	; 1
     948:	08 95       	ret

0000094a <ADC_enuDisable>:
     94a:	37 98       	cbi	0x06, 7	; 6
     94c:	81 e0       	ldi	r24, 0x01	; 1
     94e:	08 95       	ret

00000950 <ADC_enuStartConversion>:
     950:	36 9a       	sbi	0x06, 6	; 6
     952:	81 e0       	ldi	r24, 0x01	; 1
     954:	08 95       	ret

00000956 <ADC_enuSelectChannel>:
     956:	97 b1       	in	r25, 0x07	; 7
     958:	90 7e       	andi	r25, 0xE0	; 224
     95a:	97 b9       	out	0x07, r25	; 7
     95c:	97 b1       	in	r25, 0x07	; 7
     95e:	89 2b       	or	r24, r25
     960:	87 b9       	out	0x07, r24	; 7
     962:	81 e0       	ldi	r24, 0x01	; 1
     964:	08 95       	ret

00000966 <ADC_enuPollingSystem>:
     966:	34 9b       	sbis	0x06, 4	; 6
     968:	fe cf       	rjmp	.-4      	; 0x966 <ADC_enuPollingSystem>
     96a:	34 9a       	sbi	0x06, 4	; 6
     96c:	81 e0       	ldi	r24, 0x01	; 1
     96e:	08 95       	ret

00000970 <ADC_enuDisableInterrupt>:
     970:	33 98       	cbi	0x06, 3	; 6
     972:	81 e0       	ldi	r24, 0x01	; 1
     974:	08 95       	ret

00000976 <ADC_enuReadADCValue>:
     976:	24 b1       	in	r18, 0x04	; 4
     978:	30 e0       	ldi	r19, 0x00	; 0
     97a:	fc 01       	movw	r30, r24
     97c:	31 83       	std	Z+1, r19	; 0x01
     97e:	20 83       	st	Z, r18
     980:	45 b1       	in	r20, 0x05	; 5
     982:	34 2b       	or	r19, r20
     984:	31 83       	std	Z+1, r19	; 0x01
     986:	20 83       	st	Z, r18
     988:	81 e0       	ldi	r24, 0x01	; 1
     98a:	08 95       	ret

0000098c <ADC_enuDisableTrigger>:
     98c:	35 98       	cbi	0x06, 5	; 6
     98e:	81 e0       	ldi	r24, 0x01	; 1
     990:	08 95       	ret

00000992 <ADC_Read_From_Ch>:
     992:	1f 93       	push	r17
     994:	cf 93       	push	r28
     996:	df 93       	push	r29
     998:	ec 01       	movw	r28, r24
     99a:	16 2f       	mov	r17, r22
     99c:	0e 94 a2 04 	call	0x944	; 0x944 <ADC_enuEnable>
     9a0:	0e 94 c6 04 	call	0x98c	; 0x98c <ADC_enuDisableTrigger>
     9a4:	81 2f       	mov	r24, r17
     9a6:	0e 94 ab 04 	call	0x956	; 0x956 <ADC_enuSelectChannel>
     9aa:	0e 94 a8 04 	call	0x950	; 0x950 <ADC_enuStartConversion>
     9ae:	0e 94 b8 04 	call	0x970	; 0x970 <ADC_enuDisableInterrupt>
     9b2:	0e 94 b3 04 	call	0x966	; 0x966 <ADC_enuPollingSystem>
     9b6:	ce 01       	movw	r24, r28
     9b8:	0e 94 bb 04 	call	0x976	; 0x976 <ADC_enuReadADCValue>
     9bc:	0e 94 a5 04 	call	0x94a	; 0x94a <ADC_enuDisable>
     9c0:	81 e0       	ldi	r24, 0x01	; 1
     9c2:	df 91       	pop	r29
     9c4:	cf 91       	pop	r28
     9c6:	1f 91       	pop	r17
     9c8:	08 95       	ret

000009ca <__vector_16>:
     9ca:	1f 92       	push	r1
     9cc:	0f 92       	push	r0
     9ce:	0f b6       	in	r0, 0x3f	; 63
     9d0:	0f 92       	push	r0
     9d2:	11 24       	eor	r1, r1
     9d4:	2f 93       	push	r18
     9d6:	3f 93       	push	r19
     9d8:	4f 93       	push	r20
     9da:	5f 93       	push	r21
     9dc:	6f 93       	push	r22
     9de:	7f 93       	push	r23
     9e0:	8f 93       	push	r24
     9e2:	9f 93       	push	r25
     9e4:	af 93       	push	r26
     9e6:	bf 93       	push	r27
     9e8:	ef 93       	push	r30
     9ea:	ff 93       	push	r31
     9ec:	e0 91 90 00 	lds	r30, 0x0090	; 0x800090 <ADC_PFuncISRFunc>
     9f0:	f0 91 91 00 	lds	r31, 0x0091	; 0x800091 <ADC_PFuncISRFunc+0x1>
     9f4:	30 97       	sbiw	r30, 0x00	; 0
     9f6:	29 f0       	breq	.+10     	; 0xa02 <__vector_16+0x38>
     9f8:	80 91 8e 00 	lds	r24, 0x008E	; 0x80008e <ADC_PvidISRParameter>
     9fc:	90 91 8f 00 	lds	r25, 0x008F	; 0x80008f <ADC_PvidISRParameter+0x1>
     a00:	09 95       	icall
     a02:	ff 91       	pop	r31
     a04:	ef 91       	pop	r30
     a06:	bf 91       	pop	r27
     a08:	af 91       	pop	r26
     a0a:	9f 91       	pop	r25
     a0c:	8f 91       	pop	r24
     a0e:	7f 91       	pop	r23
     a10:	6f 91       	pop	r22
     a12:	5f 91       	pop	r21
     a14:	4f 91       	pop	r20
     a16:	3f 91       	pop	r19
     a18:	2f 91       	pop	r18
     a1a:	0f 90       	pop	r0
     a1c:	0f be       	out	0x3f, r0	; 63
     a1e:	0f 90       	pop	r0
     a20:	1f 90       	pop	r1
     a22:	18 95       	reti

00000a24 <DIO_enuSetPinDirection>:
     a24:	84 30       	cpi	r24, 0x04	; 4
     a26:	08 f0       	brcs	.+2      	; 0xa2a <DIO_enuSetPinDirection+0x6>
     a28:	51 c0       	rjmp	.+162    	; 0xacc <DIO_enuSetPinDirection+0xa8>
     a2a:	68 30       	cpi	r22, 0x08	; 8
     a2c:	08 f0       	brcs	.+2      	; 0xa30 <DIO_enuSetPinDirection+0xc>
     a2e:	4e c0       	rjmp	.+156    	; 0xacc <DIO_enuSetPinDirection+0xa8>
     a30:	42 30       	cpi	r20, 0x02	; 2
     a32:	08 f0       	brcs	.+2      	; 0xa36 <DIO_enuSetPinDirection+0x12>
     a34:	4b c0       	rjmp	.+150    	; 0xacc <DIO_enuSetPinDirection+0xa8>
     a36:	82 30       	cpi	r24, 0x02	; 2
     a38:	39 f1       	breq	.+78     	; 0xa88 <DIO_enuSetPinDirection+0x64>
     a3a:	83 30       	cpi	r24, 0x03	; 3
     a3c:	b1 f1       	breq	.+108    	; 0xaaa <DIO_enuSetPinDirection+0x86>
     a3e:	81 30       	cpi	r24, 0x01	; 1
     a40:	89 f0       	breq	.+34     	; 0xa64 <DIO_enuSetPinDirection+0x40>
     a42:	81 e0       	ldi	r24, 0x01	; 1
     a44:	90 e0       	ldi	r25, 0x00	; 0
     a46:	06 2e       	mov	r0, r22
     a48:	01 c0       	rjmp	.+2      	; 0xa4c <DIO_enuSetPinDirection+0x28>
     a4a:	88 0f       	add	r24, r24
     a4c:	0a 94       	dec	r0
     a4e:	ea f7       	brpl	.-6      	; 0xa4a <DIO_enuSetPinDirection+0x26>
     a50:	80 95       	com	r24
     a52:	9a b3       	in	r25, 0x1a	; 26
     a54:	89 23       	and	r24, r25
     a56:	01 c0       	rjmp	.+2      	; 0xa5a <DIO_enuSetPinDirection+0x36>
     a58:	44 0f       	add	r20, r20
     a5a:	6a 95       	dec	r22
     a5c:	ea f7       	brpl	.-6      	; 0xa58 <DIO_enuSetPinDirection+0x34>
     a5e:	48 2b       	or	r20, r24
     a60:	4a bb       	out	0x1a, r20	; 26
     a62:	10 c0       	rjmp	.+32     	; 0xa84 <DIO_enuSetPinDirection+0x60>
     a64:	81 e0       	ldi	r24, 0x01	; 1
     a66:	90 e0       	ldi	r25, 0x00	; 0
     a68:	06 2e       	mov	r0, r22
     a6a:	01 c0       	rjmp	.+2      	; 0xa6e <DIO_enuSetPinDirection+0x4a>
     a6c:	88 0f       	add	r24, r24
     a6e:	0a 94       	dec	r0
     a70:	ea f7       	brpl	.-6      	; 0xa6c <DIO_enuSetPinDirection+0x48>
     a72:	80 95       	com	r24
     a74:	97 b3       	in	r25, 0x17	; 23
     a76:	89 23       	and	r24, r25
     a78:	01 c0       	rjmp	.+2      	; 0xa7c <DIO_enuSetPinDirection+0x58>
     a7a:	44 0f       	add	r20, r20
     a7c:	6a 95       	dec	r22
     a7e:	ea f7       	brpl	.-6      	; 0xa7a <DIO_enuSetPinDirection+0x56>
     a80:	48 2b       	or	r20, r24
     a82:	47 bb       	out	0x17, r20	; 23
     a84:	80 e0       	ldi	r24, 0x00	; 0
     a86:	08 95       	ret
     a88:	81 e0       	ldi	r24, 0x01	; 1
     a8a:	90 e0       	ldi	r25, 0x00	; 0
     a8c:	06 2e       	mov	r0, r22
     a8e:	01 c0       	rjmp	.+2      	; 0xa92 <DIO_enuSetPinDirection+0x6e>
     a90:	88 0f       	add	r24, r24
     a92:	0a 94       	dec	r0
     a94:	ea f7       	brpl	.-6      	; 0xa90 <DIO_enuSetPinDirection+0x6c>
     a96:	80 95       	com	r24
     a98:	94 b3       	in	r25, 0x14	; 20
     a9a:	89 23       	and	r24, r25
     a9c:	01 c0       	rjmp	.+2      	; 0xaa0 <DIO_enuSetPinDirection+0x7c>
     a9e:	44 0f       	add	r20, r20
     aa0:	6a 95       	dec	r22
     aa2:	ea f7       	brpl	.-6      	; 0xa9e <DIO_enuSetPinDirection+0x7a>
     aa4:	48 2b       	or	r20, r24
     aa6:	44 bb       	out	0x14, r20	; 20
     aa8:	ed cf       	rjmp	.-38     	; 0xa84 <DIO_enuSetPinDirection+0x60>
     aaa:	81 e0       	ldi	r24, 0x01	; 1
     aac:	90 e0       	ldi	r25, 0x00	; 0
     aae:	06 2e       	mov	r0, r22
     ab0:	01 c0       	rjmp	.+2      	; 0xab4 <DIO_enuSetPinDirection+0x90>
     ab2:	88 0f       	add	r24, r24
     ab4:	0a 94       	dec	r0
     ab6:	ea f7       	brpl	.-6      	; 0xab2 <DIO_enuSetPinDirection+0x8e>
     ab8:	80 95       	com	r24
     aba:	91 b3       	in	r25, 0x11	; 17
     abc:	89 23       	and	r24, r25
     abe:	01 c0       	rjmp	.+2      	; 0xac2 <DIO_enuSetPinDirection+0x9e>
     ac0:	44 0f       	add	r20, r20
     ac2:	6a 95       	dec	r22
     ac4:	ea f7       	brpl	.-6      	; 0xac0 <DIO_enuSetPinDirection+0x9c>
     ac6:	48 2b       	or	r20, r24
     ac8:	41 bb       	out	0x11, r20	; 17
     aca:	dc cf       	rjmp	.-72     	; 0xa84 <DIO_enuSetPinDirection+0x60>
     acc:	83 e0       	ldi	r24, 0x03	; 3
     ace:	08 95       	ret

00000ad0 <DIO_enuSetPinVal>:
     ad0:	84 30       	cpi	r24, 0x04	; 4
     ad2:	08 f0       	brcs	.+2      	; 0xad6 <DIO_enuSetPinVal+0x6>
     ad4:	51 c0       	rjmp	.+162    	; 0xb78 <DIO_enuSetPinVal+0xa8>
     ad6:	68 30       	cpi	r22, 0x08	; 8
     ad8:	08 f0       	brcs	.+2      	; 0xadc <DIO_enuSetPinVal+0xc>
     ada:	4e c0       	rjmp	.+156    	; 0xb78 <DIO_enuSetPinVal+0xa8>
     adc:	42 30       	cpi	r20, 0x02	; 2
     ade:	08 f0       	brcs	.+2      	; 0xae2 <DIO_enuSetPinVal+0x12>
     ae0:	4b c0       	rjmp	.+150    	; 0xb78 <DIO_enuSetPinVal+0xa8>
     ae2:	82 30       	cpi	r24, 0x02	; 2
     ae4:	39 f1       	breq	.+78     	; 0xb34 <DIO_enuSetPinVal+0x64>
     ae6:	83 30       	cpi	r24, 0x03	; 3
     ae8:	b1 f1       	breq	.+108    	; 0xb56 <DIO_enuSetPinVal+0x86>
     aea:	81 30       	cpi	r24, 0x01	; 1
     aec:	89 f0       	breq	.+34     	; 0xb10 <DIO_enuSetPinVal+0x40>
     aee:	81 e0       	ldi	r24, 0x01	; 1
     af0:	90 e0       	ldi	r25, 0x00	; 0
     af2:	06 2e       	mov	r0, r22
     af4:	01 c0       	rjmp	.+2      	; 0xaf8 <DIO_enuSetPinVal+0x28>
     af6:	88 0f       	add	r24, r24
     af8:	0a 94       	dec	r0
     afa:	ea f7       	brpl	.-6      	; 0xaf6 <DIO_enuSetPinVal+0x26>
     afc:	80 95       	com	r24
     afe:	9b b3       	in	r25, 0x1b	; 27
     b00:	89 23       	and	r24, r25
     b02:	01 c0       	rjmp	.+2      	; 0xb06 <DIO_enuSetPinVal+0x36>
     b04:	44 0f       	add	r20, r20
     b06:	6a 95       	dec	r22
     b08:	ea f7       	brpl	.-6      	; 0xb04 <DIO_enuSetPinVal+0x34>
     b0a:	48 2b       	or	r20, r24
     b0c:	4b bb       	out	0x1b, r20	; 27
     b0e:	10 c0       	rjmp	.+32     	; 0xb30 <DIO_enuSetPinVal+0x60>
     b10:	81 e0       	ldi	r24, 0x01	; 1
     b12:	90 e0       	ldi	r25, 0x00	; 0
     b14:	06 2e       	mov	r0, r22
     b16:	01 c0       	rjmp	.+2      	; 0xb1a <DIO_enuSetPinVal+0x4a>
     b18:	88 0f       	add	r24, r24
     b1a:	0a 94       	dec	r0
     b1c:	ea f7       	brpl	.-6      	; 0xb18 <DIO_enuSetPinVal+0x48>
     b1e:	80 95       	com	r24
     b20:	98 b3       	in	r25, 0x18	; 24
     b22:	89 23       	and	r24, r25
     b24:	01 c0       	rjmp	.+2      	; 0xb28 <DIO_enuSetPinVal+0x58>
     b26:	44 0f       	add	r20, r20
     b28:	6a 95       	dec	r22
     b2a:	ea f7       	brpl	.-6      	; 0xb26 <DIO_enuSetPinVal+0x56>
     b2c:	48 2b       	or	r20, r24
     b2e:	48 bb       	out	0x18, r20	; 24
     b30:	80 e0       	ldi	r24, 0x00	; 0
     b32:	08 95       	ret
     b34:	81 e0       	ldi	r24, 0x01	; 1
     b36:	90 e0       	ldi	r25, 0x00	; 0
     b38:	06 2e       	mov	r0, r22
     b3a:	01 c0       	rjmp	.+2      	; 0xb3e <DIO_enuSetPinVal+0x6e>
     b3c:	88 0f       	add	r24, r24
     b3e:	0a 94       	dec	r0
     b40:	ea f7       	brpl	.-6      	; 0xb3c <DIO_enuSetPinVal+0x6c>
     b42:	80 95       	com	r24
     b44:	95 b3       	in	r25, 0x15	; 21
     b46:	89 23       	and	r24, r25
     b48:	01 c0       	rjmp	.+2      	; 0xb4c <DIO_enuSetPinVal+0x7c>
     b4a:	44 0f       	add	r20, r20
     b4c:	6a 95       	dec	r22
     b4e:	ea f7       	brpl	.-6      	; 0xb4a <DIO_enuSetPinVal+0x7a>
     b50:	48 2b       	or	r20, r24
     b52:	45 bb       	out	0x15, r20	; 21
     b54:	ed cf       	rjmp	.-38     	; 0xb30 <DIO_enuSetPinVal+0x60>
     b56:	81 e0       	ldi	r24, 0x01	; 1
     b58:	90 e0       	ldi	r25, 0x00	; 0
     b5a:	06 2e       	mov	r0, r22
     b5c:	01 c0       	rjmp	.+2      	; 0xb60 <DIO_enuSetPinVal+0x90>
     b5e:	88 0f       	add	r24, r24
     b60:	0a 94       	dec	r0
     b62:	ea f7       	brpl	.-6      	; 0xb5e <DIO_enuSetPinVal+0x8e>
     b64:	80 95       	com	r24
     b66:	92 b3       	in	r25, 0x12	; 18
     b68:	89 23       	and	r24, r25
     b6a:	01 c0       	rjmp	.+2      	; 0xb6e <DIO_enuSetPinVal+0x9e>
     b6c:	44 0f       	add	r20, r20
     b6e:	6a 95       	dec	r22
     b70:	ea f7       	brpl	.-6      	; 0xb6c <DIO_enuSetPinVal+0x9c>
     b72:	48 2b       	or	r20, r24
     b74:	42 bb       	out	0x12, r20	; 18
     b76:	dc cf       	rjmp	.-72     	; 0xb30 <DIO_enuSetPinVal+0x60>
     b78:	83 e0       	ldi	r24, 0x03	; 3
     b7a:	08 95       	ret

00000b7c <DIO_enuGetPinVal>:
     b7c:	fa 01       	movw	r30, r20
     b7e:	30 97       	sbiw	r30, 0x00	; 0
     b80:	d1 f0       	breq	.+52     	; 0xbb6 <DIO_enuGetPinVal+0x3a>
     b82:	84 30       	cpi	r24, 0x04	; 4
     b84:	d0 f4       	brcc	.+52     	; 0xbba <DIO_enuGetPinVal+0x3e>
     b86:	68 30       	cpi	r22, 0x08	; 8
     b88:	c0 f4       	brcc	.+48     	; 0xbba <DIO_enuGetPinVal+0x3e>
     b8a:	82 30       	cpi	r24, 0x02	; 2
     b8c:	41 f0       	breq	.+16     	; 0xb9e <DIO_enuGetPinVal+0x22>
     b8e:	83 30       	cpi	r24, 0x03	; 3
     b90:	41 f0       	breq	.+16     	; 0xba2 <DIO_enuGetPinVal+0x26>
     b92:	81 30       	cpi	r24, 0x01	; 1
     b94:	11 f0       	breq	.+4      	; 0xb9a <DIO_enuGetPinVal+0x1e>
     b96:	89 b3       	in	r24, 0x19	; 25
     b98:	05 c0       	rjmp	.+10     	; 0xba4 <DIO_enuGetPinVal+0x28>
     b9a:	86 b3       	in	r24, 0x16	; 22
     b9c:	03 c0       	rjmp	.+6      	; 0xba4 <DIO_enuGetPinVal+0x28>
     b9e:	83 b3       	in	r24, 0x13	; 19
     ba0:	01 c0       	rjmp	.+2      	; 0xba4 <DIO_enuGetPinVal+0x28>
     ba2:	80 b3       	in	r24, 0x10	; 16
     ba4:	90 e0       	ldi	r25, 0x00	; 0
     ba6:	02 c0       	rjmp	.+4      	; 0xbac <DIO_enuGetPinVal+0x30>
     ba8:	95 95       	asr	r25
     baa:	87 95       	ror	r24
     bac:	6a 95       	dec	r22
     bae:	e2 f7       	brpl	.-8      	; 0xba8 <DIO_enuGetPinVal+0x2c>
     bb0:	81 70       	andi	r24, 0x01	; 1
     bb2:	80 83       	st	Z, r24
     bb4:	02 c0       	rjmp	.+4      	; 0xbba <DIO_enuGetPinVal+0x3e>
     bb6:	82 e0       	ldi	r24, 0x02	; 2
     bb8:	08 95       	ret
     bba:	80 e0       	ldi	r24, 0x00	; 0
     bbc:	08 95       	ret

00000bbe <EXTI_enuInit>:
     bbe:	00 97       	sbiw	r24, 0x00	; 0
     bc0:	09 f4       	brne	.+2      	; 0xbc4 <EXTI_enuInit+0x6>
     bc2:	68 c0       	rjmp	.+208    	; 0xc94 <EXTI_enuInit+0xd6>
     bc4:	fc 01       	movw	r30, r24
     bc6:	9c 01       	movw	r18, r24
     bc8:	27 5f       	subi	r18, 0xF7	; 247
     bca:	3f 4f       	sbci	r19, 0xFF	; 255
     bcc:	81 e0       	ldi	r24, 0x01	; 1
     bce:	90 81       	ld	r25, Z
     bd0:	91 30       	cpi	r25, 0x01	; 1
     bd2:	31 f1       	breq	.+76     	; 0xc20 <EXTI_enuInit+0x62>
     bd4:	20 f0       	brcs	.+8      	; 0xbde <EXTI_enuInit+0x20>
     bd6:	92 30       	cpi	r25, 0x02	; 2
     bd8:	09 f4       	brne	.+2      	; 0xbdc <EXTI_enuInit+0x1e>
     bda:	43 c0       	rjmp	.+134    	; 0xc62 <EXTI_enuInit+0xa4>
     bdc:	54 c0       	rjmp	.+168    	; 0xc86 <EXTI_enuInit+0xc8>
     bde:	91 81       	ldd	r25, Z+1	; 0x01
     be0:	91 11       	cpse	r25, r1
     be2:	52 c0       	rjmp	.+164    	; 0xc88 <EXTI_enuInit+0xca>
     be4:	95 b7       	in	r25, 0x35	; 53
     be6:	9c 7f       	andi	r25, 0xFC	; 252
     be8:	95 bf       	out	0x35, r25	; 53
     bea:	92 81       	ldd	r25, Z+2	; 0x02
     bec:	91 30       	cpi	r25, 0x01	; 1
     bee:	61 f0       	breq	.+24     	; 0xc08 <EXTI_enuInit+0x4a>
     bf0:	40 f0       	brcs	.+16     	; 0xc02 <EXTI_enuInit+0x44>
     bf2:	92 30       	cpi	r25, 0x02	; 2
     bf4:	79 f0       	breq	.+30     	; 0xc14 <EXTI_enuInit+0x56>
     bf6:	93 30       	cpi	r25, 0x03	; 3
     bf8:	09 f0       	breq	.+2      	; 0xbfc <EXTI_enuInit+0x3e>
     bfa:	45 c0       	rjmp	.+138    	; 0xc86 <EXTI_enuInit+0xc8>
     bfc:	95 b7       	in	r25, 0x35	; 53
     bfe:	91 60       	ori	r25, 0x01	; 1
     c00:	0b c0       	rjmp	.+22     	; 0xc18 <EXTI_enuInit+0x5a>
     c02:	95 b7       	in	r25, 0x35	; 53
     c04:	9e 7f       	andi	r25, 0xFE	; 254
     c06:	02 c0       	rjmp	.+4      	; 0xc0c <EXTI_enuInit+0x4e>
     c08:	95 b7       	in	r25, 0x35	; 53
     c0a:	91 60       	ori	r25, 0x01	; 1
     c0c:	95 bf       	out	0x35, r25	; 53
     c0e:	95 b7       	in	r25, 0x35	; 53
     c10:	9d 7f       	andi	r25, 0xFD	; 253
     c12:	25 c0       	rjmp	.+74     	; 0xc5e <EXTI_enuInit+0xa0>
     c14:	95 b7       	in	r25, 0x35	; 53
     c16:	9e 7f       	andi	r25, 0xFE	; 254
     c18:	95 bf       	out	0x35, r25	; 53
     c1a:	95 b7       	in	r25, 0x35	; 53
     c1c:	92 60       	ori	r25, 0x02	; 2
     c1e:	1f c0       	rjmp	.+62     	; 0xc5e <EXTI_enuInit+0xa0>
     c20:	91 81       	ldd	r25, Z+1	; 0x01
     c22:	91 11       	cpse	r25, r1
     c24:	31 c0       	rjmp	.+98     	; 0xc88 <EXTI_enuInit+0xca>
     c26:	95 b7       	in	r25, 0x35	; 53
     c28:	93 7f       	andi	r25, 0xF3	; 243
     c2a:	95 bf       	out	0x35, r25	; 53
     c2c:	92 81       	ldd	r25, Z+2	; 0x02
     c2e:	91 30       	cpi	r25, 0x01	; 1
     c30:	59 f0       	breq	.+22     	; 0xc48 <EXTI_enuInit+0x8a>
     c32:	38 f0       	brcs	.+14     	; 0xc42 <EXTI_enuInit+0x84>
     c34:	92 30       	cpi	r25, 0x02	; 2
     c36:	71 f0       	breq	.+28     	; 0xc54 <EXTI_enuInit+0x96>
     c38:	93 30       	cpi	r25, 0x03	; 3
     c3a:	29 f5       	brne	.+74     	; 0xc86 <EXTI_enuInit+0xc8>
     c3c:	95 b7       	in	r25, 0x35	; 53
     c3e:	94 60       	ori	r25, 0x04	; 4
     c40:	0b c0       	rjmp	.+22     	; 0xc58 <EXTI_enuInit+0x9a>
     c42:	95 b7       	in	r25, 0x35	; 53
     c44:	9b 7f       	andi	r25, 0xFB	; 251
     c46:	02 c0       	rjmp	.+4      	; 0xc4c <EXTI_enuInit+0x8e>
     c48:	95 b7       	in	r25, 0x35	; 53
     c4a:	94 60       	ori	r25, 0x04	; 4
     c4c:	95 bf       	out	0x35, r25	; 53
     c4e:	95 b7       	in	r25, 0x35	; 53
     c50:	97 7f       	andi	r25, 0xF7	; 247
     c52:	05 c0       	rjmp	.+10     	; 0xc5e <EXTI_enuInit+0xa0>
     c54:	95 b7       	in	r25, 0x35	; 53
     c56:	9b 7f       	andi	r25, 0xFB	; 251
     c58:	95 bf       	out	0x35, r25	; 53
     c5a:	95 b7       	in	r25, 0x35	; 53
     c5c:	98 60       	ori	r25, 0x08	; 8
     c5e:	95 bf       	out	0x35, r25	; 53
     c60:	13 c0       	rjmp	.+38     	; 0xc88 <EXTI_enuInit+0xca>
     c62:	91 81       	ldd	r25, Z+1	; 0x01
     c64:	91 11       	cpse	r25, r1
     c66:	10 c0       	rjmp	.+32     	; 0xc88 <EXTI_enuInit+0xca>
     c68:	94 b7       	in	r25, 0x34	; 52
     c6a:	9f 7b       	andi	r25, 0xBF	; 191
     c6c:	94 bf       	out	0x34, r25	; 52
     c6e:	92 81       	ldd	r25, Z+2	; 0x02
     c70:	92 30       	cpi	r25, 0x02	; 2
     c72:	29 f0       	breq	.+10     	; 0xc7e <EXTI_enuInit+0xc0>
     c74:	93 30       	cpi	r25, 0x03	; 3
     c76:	39 f4       	brne	.+14     	; 0xc86 <EXTI_enuInit+0xc8>
     c78:	94 b7       	in	r25, 0x34	; 52
     c7a:	90 64       	ori	r25, 0x40	; 64
     c7c:	02 c0       	rjmp	.+4      	; 0xc82 <EXTI_enuInit+0xc4>
     c7e:	94 b7       	in	r25, 0x34	; 52
     c80:	9f 7b       	andi	r25, 0xBF	; 191
     c82:	94 bf       	out	0x34, r25	; 52
     c84:	01 c0       	rjmp	.+2      	; 0xc88 <EXTI_enuInit+0xca>
     c86:	83 e0       	ldi	r24, 0x03	; 3
     c88:	33 96       	adiw	r30, 0x03	; 3
     c8a:	2e 17       	cp	r18, r30
     c8c:	3f 07       	cpc	r19, r31
     c8e:	09 f0       	breq	.+2      	; 0xc92 <EXTI_enuInit+0xd4>
     c90:	9e cf       	rjmp	.-196    	; 0xbce <EXTI_enuInit+0x10>
     c92:	08 95       	ret
     c94:	82 e0       	ldi	r24, 0x02	; 2
     c96:	08 95       	ret

00000c98 <EXTI_enuEnable>:
     c98:	83 30       	cpi	r24, 0x03	; 3
     c9a:	c0 f4       	brcc	.+48     	; 0xccc <EXTI_enuEnable+0x34>
     c9c:	81 30       	cpi	r24, 0x01	; 1
     c9e:	41 f0       	breq	.+16     	; 0xcb0 <EXTI_enuEnable+0x18>
     ca0:	82 30       	cpi	r24, 0x02	; 2
     ca2:	61 f0       	breq	.+24     	; 0xcbc <EXTI_enuEnable+0x24>
     ca4:	8b b7       	in	r24, 0x3b	; 59
     ca6:	8f 7b       	andi	r24, 0xBF	; 191
     ca8:	8b bf       	out	0x3b, r24	; 59
     caa:	8b b7       	in	r24, 0x3b	; 59
     cac:	80 64       	ori	r24, 0x40	; 64
     cae:	0b c0       	rjmp	.+22     	; 0xcc6 <EXTI_enuEnable+0x2e>
     cb0:	8b b7       	in	r24, 0x3b	; 59
     cb2:	8f 77       	andi	r24, 0x7F	; 127
     cb4:	8b bf       	out	0x3b, r24	; 59
     cb6:	8b b7       	in	r24, 0x3b	; 59
     cb8:	80 68       	ori	r24, 0x80	; 128
     cba:	05 c0       	rjmp	.+10     	; 0xcc6 <EXTI_enuEnable+0x2e>
     cbc:	8b b7       	in	r24, 0x3b	; 59
     cbe:	8f 7d       	andi	r24, 0xDF	; 223
     cc0:	8b bf       	out	0x3b, r24	; 59
     cc2:	8b b7       	in	r24, 0x3b	; 59
     cc4:	80 62       	ori	r24, 0x20	; 32
     cc6:	8b bf       	out	0x3b, r24	; 59
     cc8:	81 e0       	ldi	r24, 0x01	; 1
     cca:	08 95       	ret
     ccc:	83 e0       	ldi	r24, 0x03	; 3
     cce:	08 95       	ret

00000cd0 <EXTI_enuCallBackFunc>:
     cd0:	00 97       	sbiw	r24, 0x00	; 0
     cd2:	89 f0       	breq	.+34     	; 0xcf6 <EXTI_enuCallBackFunc+0x26>
     cd4:	43 30       	cpi	r20, 0x03	; 3
     cd6:	88 f4       	brcc	.+34     	; 0xcfa <EXTI_enuCallBackFunc+0x2a>
     cd8:	50 e0       	ldi	r21, 0x00	; 0
     cda:	44 0f       	add	r20, r20
     cdc:	55 1f       	adc	r21, r21
     cde:	fa 01       	movw	r30, r20
     ce0:	e8 56       	subi	r30, 0x68	; 104
     ce2:	ff 4f       	sbci	r31, 0xFF	; 255
     ce4:	91 83       	std	Z+1, r25	; 0x01
     ce6:	80 83       	st	Z, r24
     ce8:	fa 01       	movw	r30, r20
     cea:	ee 56       	subi	r30, 0x6E	; 110
     cec:	ff 4f       	sbci	r31, 0xFF	; 255
     cee:	71 83       	std	Z+1, r23	; 0x01
     cf0:	60 83       	st	Z, r22
     cf2:	80 e0       	ldi	r24, 0x00	; 0
     cf4:	08 95       	ret
     cf6:	82 e0       	ldi	r24, 0x02	; 2
     cf8:	08 95       	ret
     cfa:	83 e0       	ldi	r24, 0x03	; 3
     cfc:	08 95       	ret

00000cfe <__vector_1>:
     cfe:	1f 92       	push	r1
     d00:	0f 92       	push	r0
     d02:	0f b6       	in	r0, 0x3f	; 63
     d04:	0f 92       	push	r0
     d06:	11 24       	eor	r1, r1
     d08:	2f 93       	push	r18
     d0a:	3f 93       	push	r19
     d0c:	4f 93       	push	r20
     d0e:	5f 93       	push	r21
     d10:	6f 93       	push	r22
     d12:	7f 93       	push	r23
     d14:	8f 93       	push	r24
     d16:	9f 93       	push	r25
     d18:	af 93       	push	r26
     d1a:	bf 93       	push	r27
     d1c:	ef 93       	push	r30
     d1e:	ff 93       	push	r31
     d20:	e0 91 98 00 	lds	r30, 0x0098	; 0x800098 <EXTI_APFunc>
     d24:	f0 91 99 00 	lds	r31, 0x0099	; 0x800099 <EXTI_APFunc+0x1>
     d28:	30 97       	sbiw	r30, 0x00	; 0
     d2a:	29 f0       	breq	.+10     	; 0xd36 <__vector_1+0x38>
     d2c:	80 91 92 00 	lds	r24, 0x0092	; 0x800092 <EXTI_APvidGenericParameters>
     d30:	90 91 93 00 	lds	r25, 0x0093	; 0x800093 <EXTI_APvidGenericParameters+0x1>
     d34:	09 95       	icall
     d36:	ff 91       	pop	r31
     d38:	ef 91       	pop	r30
     d3a:	bf 91       	pop	r27
     d3c:	af 91       	pop	r26
     d3e:	9f 91       	pop	r25
     d40:	8f 91       	pop	r24
     d42:	7f 91       	pop	r23
     d44:	6f 91       	pop	r22
     d46:	5f 91       	pop	r21
     d48:	4f 91       	pop	r20
     d4a:	3f 91       	pop	r19
     d4c:	2f 91       	pop	r18
     d4e:	0f 90       	pop	r0
     d50:	0f be       	out	0x3f, r0	; 63
     d52:	0f 90       	pop	r0
     d54:	1f 90       	pop	r1
     d56:	18 95       	reti

00000d58 <__vector_2>:
     d58:	1f 92       	push	r1
     d5a:	0f 92       	push	r0
     d5c:	0f b6       	in	r0, 0x3f	; 63
     d5e:	0f 92       	push	r0
     d60:	11 24       	eor	r1, r1
     d62:	2f 93       	push	r18
     d64:	3f 93       	push	r19
     d66:	4f 93       	push	r20
     d68:	5f 93       	push	r21
     d6a:	6f 93       	push	r22
     d6c:	7f 93       	push	r23
     d6e:	8f 93       	push	r24
     d70:	9f 93       	push	r25
     d72:	af 93       	push	r26
     d74:	bf 93       	push	r27
     d76:	ef 93       	push	r30
     d78:	ff 93       	push	r31
     d7a:	e0 91 9a 00 	lds	r30, 0x009A	; 0x80009a <EXTI_APFunc+0x2>
     d7e:	f0 91 9b 00 	lds	r31, 0x009B	; 0x80009b <EXTI_APFunc+0x3>
     d82:	30 97       	sbiw	r30, 0x00	; 0
     d84:	29 f0       	breq	.+10     	; 0xd90 <__vector_2+0x38>
     d86:	80 91 94 00 	lds	r24, 0x0094	; 0x800094 <EXTI_APvidGenericParameters+0x2>
     d8a:	90 91 95 00 	lds	r25, 0x0095	; 0x800095 <EXTI_APvidGenericParameters+0x3>
     d8e:	09 95       	icall
     d90:	ff 91       	pop	r31
     d92:	ef 91       	pop	r30
     d94:	bf 91       	pop	r27
     d96:	af 91       	pop	r26
     d98:	9f 91       	pop	r25
     d9a:	8f 91       	pop	r24
     d9c:	7f 91       	pop	r23
     d9e:	6f 91       	pop	r22
     da0:	5f 91       	pop	r21
     da2:	4f 91       	pop	r20
     da4:	3f 91       	pop	r19
     da6:	2f 91       	pop	r18
     da8:	0f 90       	pop	r0
     daa:	0f be       	out	0x3f, r0	; 63
     dac:	0f 90       	pop	r0
     dae:	1f 90       	pop	r1
     db0:	18 95       	reti

00000db2 <__vector_3>:
     db2:	1f 92       	push	r1
     db4:	0f 92       	push	r0
     db6:	0f b6       	in	r0, 0x3f	; 63
     db8:	0f 92       	push	r0
     dba:	11 24       	eor	r1, r1
     dbc:	2f 93       	push	r18
     dbe:	3f 93       	push	r19
     dc0:	4f 93       	push	r20
     dc2:	5f 93       	push	r21
     dc4:	6f 93       	push	r22
     dc6:	7f 93       	push	r23
     dc8:	8f 93       	push	r24
     dca:	9f 93       	push	r25
     dcc:	af 93       	push	r26
     dce:	bf 93       	push	r27
     dd0:	ef 93       	push	r30
     dd2:	ff 93       	push	r31
     dd4:	e0 91 9c 00 	lds	r30, 0x009C	; 0x80009c <EXTI_APFunc+0x4>
     dd8:	f0 91 9d 00 	lds	r31, 0x009D	; 0x80009d <EXTI_APFunc+0x5>
     ddc:	30 97       	sbiw	r30, 0x00	; 0
     dde:	29 f0       	breq	.+10     	; 0xdea <__vector_3+0x38>
     de0:	80 91 96 00 	lds	r24, 0x0096	; 0x800096 <EXTI_APvidGenericParameters+0x4>
     de4:	90 91 97 00 	lds	r25, 0x0097	; 0x800097 <EXTI_APvidGenericParameters+0x5>
     de8:	09 95       	icall
     dea:	ff 91       	pop	r31
     dec:	ef 91       	pop	r30
     dee:	bf 91       	pop	r27
     df0:	af 91       	pop	r26
     df2:	9f 91       	pop	r25
     df4:	8f 91       	pop	r24
     df6:	7f 91       	pop	r23
     df8:	6f 91       	pop	r22
     dfa:	5f 91       	pop	r21
     dfc:	4f 91       	pop	r20
     dfe:	3f 91       	pop	r19
     e00:	2f 91       	pop	r18
     e02:	0f 90       	pop	r0
     e04:	0f be       	out	0x3f, r0	; 63
     e06:	0f 90       	pop	r0
     e08:	1f 90       	pop	r1
     e0a:	18 95       	reti

00000e0c <GIE_enuGloable_Interrupt_Enable>:
     e0c:	8f b7       	in	r24, 0x3f	; 63
     e0e:	8f 77       	andi	r24, 0x7F	; 127
     e10:	8f bf       	out	0x3f, r24	; 63
     e12:	8f b7       	in	r24, 0x3f	; 63
     e14:	80 68       	ori	r24, 0x80	; 128
     e16:	8f bf       	out	0x3f, r24	; 63
     e18:	80 e0       	ldi	r24, 0x00	; 0
     e1a:	08 95       	ret

00000e1c <I2C_enuInitMaster>:
     e1c:	81 b1       	in	r24, 0x01	; 1
     e1e:	8c 7f       	andi	r24, 0xFC	; 252
     e20:	81 b9       	out	0x01, r24	; 1
     e22:	8f ed       	ldi	r24, 0xDF	; 223
     e24:	80 b9       	out	0x00, r24	; 0
     e26:	86 b7       	in	r24, 0x36	; 54
     e28:	84 60       	ori	r24, 0x04	; 4
     e2a:	86 bf       	out	0x36, r24	; 54
     e2c:	80 e0       	ldi	r24, 0x00	; 0
     e2e:	08 95       	ret

00000e30 <I2C_enuStartCondition>:
     e30:	86 b7       	in	r24, 0x36	; 54
     e32:	80 62       	ori	r24, 0x20	; 32
     e34:	86 bf       	out	0x36, r24	; 54
     e36:	86 b7       	in	r24, 0x36	; 54
     e38:	80 68       	ori	r24, 0x80	; 128
     e3a:	86 bf       	out	0x36, r24	; 54
     e3c:	06 b6       	in	r0, 0x36	; 54
     e3e:	07 fe       	sbrs	r0, 7
     e40:	fd cf       	rjmp	.-6      	; 0xe3c <I2C_enuStartCondition+0xc>
     e42:	91 b1       	in	r25, 0x01	; 1
     e44:	98 7f       	andi	r25, 0xF8	; 248
     e46:	81 e0       	ldi	r24, 0x01	; 1
     e48:	98 30       	cpi	r25, 0x08	; 8
     e4a:	09 f4       	brne	.+2      	; 0xe4e <I2C_enuStartCondition+0x1e>
     e4c:	80 e0       	ldi	r24, 0x00	; 0
     e4e:	08 95       	ret

00000e50 <I2C_enuStopCondition>:
     e50:	86 b7       	in	r24, 0x36	; 54
     e52:	80 61       	ori	r24, 0x10	; 16
     e54:	86 bf       	out	0x36, r24	; 54
     e56:	86 b7       	in	r24, 0x36	; 54
     e58:	80 68       	ori	r24, 0x80	; 128
     e5a:	86 bf       	out	0x36, r24	; 54
     e5c:	80 e0       	ldi	r24, 0x00	; 0
     e5e:	08 95       	ret

00000e60 <I2C_enuSendSlaveAddress>:
     e60:	87 fd       	sbrc	r24, 7
     e62:	02 c0       	rjmp	.+4      	; 0xe68 <I2C_enuSendSlaveAddress+0x8>
     e64:	88 0f       	add	r24, r24
     e66:	83 b9       	out	0x03, r24	; 3
     e68:	62 30       	cpi	r22, 0x02	; 2
     e6a:	18 f4       	brcc	.+6      	; 0xe72 <I2C_enuSendSlaveAddress+0x12>
     e6c:	83 b1       	in	r24, 0x03	; 3
     e6e:	68 2b       	or	r22, r24
     e70:	63 b9       	out	0x03, r22	; 3
     e72:	86 b7       	in	r24, 0x36	; 54
     e74:	8f 7d       	andi	r24, 0xDF	; 223
     e76:	86 bf       	out	0x36, r24	; 54
     e78:	86 b7       	in	r24, 0x36	; 54
     e7a:	80 68       	ori	r24, 0x80	; 128
     e7c:	86 bf       	out	0x36, r24	; 54
     e7e:	06 b6       	in	r0, 0x36	; 54
     e80:	07 fe       	sbrs	r0, 7
     e82:	fd cf       	rjmp	.-6      	; 0xe7e <I2C_enuSendSlaveAddress+0x1e>
     e84:	81 b1       	in	r24, 0x01	; 1
     e86:	88 7f       	andi	r24, 0xF8	; 248
     e88:	88 31       	cpi	r24, 0x18	; 24
     e8a:	29 f0       	breq	.+10     	; 0xe96 <I2C_enuSendSlaveAddress+0x36>
     e8c:	91 b1       	in	r25, 0x01	; 1
     e8e:	98 7f       	andi	r25, 0xF8	; 248
     e90:	81 e0       	ldi	r24, 0x01	; 1
     e92:	90 34       	cpi	r25, 0x40	; 64
     e94:	09 f4       	brne	.+2      	; 0xe98 <I2C_enuSendSlaveAddress+0x38>
     e96:	80 e0       	ldi	r24, 0x00	; 0
     e98:	08 95       	ret

00000e9a <I2C_enuMasterSendData>:
     e9a:	83 b9       	out	0x03, r24	; 3
     e9c:	86 b7       	in	r24, 0x36	; 54
     e9e:	80 68       	ori	r24, 0x80	; 128
     ea0:	86 bf       	out	0x36, r24	; 54
     ea2:	06 b6       	in	r0, 0x36	; 54
     ea4:	07 fe       	sbrs	r0, 7
     ea6:	fd cf       	rjmp	.-6      	; 0xea2 <I2C_enuMasterSendData+0x8>
     ea8:	91 b1       	in	r25, 0x01	; 1
     eaa:	98 7f       	andi	r25, 0xF8	; 248
     eac:	81 e0       	ldi	r24, 0x01	; 1
     eae:	98 32       	cpi	r25, 0x28	; 40
     eb0:	09 f4       	brne	.+2      	; 0xeb4 <I2C_enuMasterSendData+0x1a>
     eb2:	80 e0       	ldi	r24, 0x00	; 0
     eb4:	08 95       	ret

00000eb6 <TIMER0_enuInit>:
     eb6:	83 b7       	in	r24, 0x33	; 51
     eb8:	87 7b       	andi	r24, 0xB7	; 183
     eba:	83 bf       	out	0x33, r24	; 51
     ebc:	83 b7       	in	r24, 0x33	; 51
     ebe:	80 64       	ori	r24, 0x40	; 64
     ec0:	83 bf       	out	0x33, r24	; 51
     ec2:	83 b7       	in	r24, 0x33	; 51
     ec4:	88 60       	ori	r24, 0x08	; 8
     ec6:	83 bf       	out	0x33, r24	; 51
     ec8:	83 b7       	in	r24, 0x33	; 51
     eca:	88 7f       	andi	r24, 0xF8	; 248
     ecc:	83 bf       	out	0x33, r24	; 51
     ece:	83 b7       	in	r24, 0x33	; 51
     ed0:	8e 7f       	andi	r24, 0xFE	; 254
     ed2:	83 bf       	out	0x33, r24	; 51
     ed4:	83 b7       	in	r24, 0x33	; 51
     ed6:	82 60       	ori	r24, 0x02	; 2
     ed8:	83 bf       	out	0x33, r24	; 51
     eda:	83 b7       	in	r24, 0x33	; 51
     edc:	8b 7f       	andi	r24, 0xFB	; 251
     ede:	83 bf       	out	0x33, r24	; 51
     ee0:	83 b7       	in	r24, 0x33	; 51
     ee2:	8f 7c       	andi	r24, 0xCF	; 207
     ee4:	83 bf       	out	0x33, r24	; 51
     ee6:	83 b7       	in	r24, 0x33	; 51
     ee8:	8f 7e       	andi	r24, 0xEF	; 239
     eea:	83 bf       	out	0x33, r24	; 51
     eec:	83 b7       	in	r24, 0x33	; 51
     eee:	80 62       	ori	r24, 0x20	; 32
     ef0:	83 bf       	out	0x33, r24	; 51
     ef2:	80 e0       	ldi	r24, 0x00	; 0
     ef4:	08 95       	ret

00000ef6 <TIMER0_enuGeneratePWM>:
     ef6:	90 e0       	ldi	r25, 0x00	; 0
     ef8:	a0 e0       	ldi	r26, 0x00	; 0
     efa:	b0 e0       	ldi	r27, 0x00	; 0
     efc:	66 27       	eor	r22, r22
     efe:	78 2f       	mov	r23, r24
     f00:	89 2f       	mov	r24, r25
     f02:	9a 2f       	mov	r25, r26
     f04:	0e 94 f6 08 	call	0x11ec	; 0x11ec <__floatunsisf>
     f08:	20 e0       	ldi	r18, 0x00	; 0
     f0a:	30 e0       	ldi	r19, 0x00	; 0
     f0c:	48 ec       	ldi	r20, 0xC8	; 200
     f0e:	52 e4       	ldi	r21, 0x42	; 66
     f10:	0e 94 55 08 	call	0x10aa	; 0x10aa <__divsf3>
     f14:	60 93 9e 00 	sts	0x009E, r22	; 0x80009e <TIMER0_f32OC0Value>
     f18:	70 93 9f 00 	sts	0x009F, r23	; 0x80009f <TIMER0_f32OC0Value+0x1>
     f1c:	80 93 a0 00 	sts	0x00A0, r24	; 0x8000a0 <TIMER0_f32OC0Value+0x2>
     f20:	90 93 a1 00 	sts	0x00A1, r25	; 0x8000a1 <TIMER0_f32OC0Value+0x3>
     f24:	0e 94 c7 08 	call	0x118e	; 0x118e <__fixunssfsi>
     f28:	6c bf       	out	0x3c, r22	; 60
     f2a:	80 e0       	ldi	r24, 0x00	; 0
     f2c:	08 95       	ret

00000f2e <TIMER1_enuInit>:
     f2e:	8f b5       	in	r24, 0x2f	; 47
     f30:	8c 7f       	andi	r24, 0xFC	; 252
     f32:	8f bd       	out	0x2f, r24	; 47
     f34:	8e b5       	in	r24, 0x2e	; 46
     f36:	87 7e       	andi	r24, 0xE7	; 231
     f38:	8e bd       	out	0x2e, r24	; 46
     f3a:	8f b5       	in	r24, 0x2f	; 47
     f3c:	81 60       	ori	r24, 0x01	; 1
     f3e:	8f bd       	out	0x2f, r24	; 47
     f40:	8f b5       	in	r24, 0x2f	; 47
     f42:	8d 7f       	andi	r24, 0xFD	; 253
     f44:	8f bd       	out	0x2f, r24	; 47
     f46:	8e b5       	in	r24, 0x2e	; 46
     f48:	88 60       	ori	r24, 0x08	; 8
     f4a:	8e bd       	out	0x2e, r24	; 46
     f4c:	8e b5       	in	r24, 0x2e	; 46
     f4e:	8f 7e       	andi	r24, 0xEF	; 239
     f50:	8e bd       	out	0x2e, r24	; 46
     f52:	8e b5       	in	r24, 0x2e	; 46
     f54:	88 7f       	andi	r24, 0xF8	; 248
     f56:	8e bd       	out	0x2e, r24	; 46
     f58:	8e b5       	in	r24, 0x2e	; 46
     f5a:	8e 7f       	andi	r24, 0xFE	; 254
     f5c:	8e bd       	out	0x2e, r24	; 46
     f5e:	8e b5       	in	r24, 0x2e	; 46
     f60:	82 60       	ori	r24, 0x02	; 2
     f62:	8e bd       	out	0x2e, r24	; 46
     f64:	8e b5       	in	r24, 0x2e	; 46
     f66:	8b 7f       	andi	r24, 0xFB	; 251
     f68:	8e bd       	out	0x2e, r24	; 46
     f6a:	8f b5       	in	r24, 0x2f	; 47
     f6c:	8f 7b       	andi	r24, 0xBF	; 191
     f6e:	8f bd       	out	0x2f, r24	; 47
     f70:	8f b5       	in	r24, 0x2f	; 47
     f72:	80 68       	ori	r24, 0x80	; 128
     f74:	8f bd       	out	0x2f, r24	; 47
     f76:	8f b5       	in	r24, 0x2f	; 47
     f78:	8f 7e       	andi	r24, 0xEF	; 239
     f7a:	8f bd       	out	0x2f, r24	; 47
     f7c:	8f b5       	in	r24, 0x2f	; 47
     f7e:	80 62       	ori	r24, 0x20	; 32
     f80:	8f bd       	out	0x2f, r24	; 47
     f82:	81 e0       	ldi	r24, 0x01	; 1
     f84:	08 95       	ret

00000f86 <TIMER1_enuGeneratePWM_OCR1A>:
     f86:	90 e0       	ldi	r25, 0x00	; 0
     f88:	a0 e0       	ldi	r26, 0x00	; 0
     f8a:	b0 e0       	ldi	r27, 0x00	; 0
     f8c:	66 27       	eor	r22, r22
     f8e:	78 2f       	mov	r23, r24
     f90:	89 2f       	mov	r24, r25
     f92:	9a 2f       	mov	r25, r26
     f94:	24 e6       	ldi	r18, 0x64	; 100
     f96:	30 e0       	ldi	r19, 0x00	; 0
     f98:	40 e0       	ldi	r20, 0x00	; 0
     f9a:	50 e0       	ldi	r21, 0x00	; 0
     f9c:	0e 94 84 09 	call	0x1308	; 0x1308 <__udivmodsi4>
     fa0:	3b bd       	out	0x2b, r19	; 43
     fa2:	2a bd       	out	0x2a, r18	; 42
     fa4:	80 e0       	ldi	r24, 0x00	; 0
     fa6:	08 95       	ret

00000fa8 <TIMER1_enuGeneratePWM_OCR1B>:
     fa8:	90 e0       	ldi	r25, 0x00	; 0
     faa:	a0 e0       	ldi	r26, 0x00	; 0
     fac:	b0 e0       	ldi	r27, 0x00	; 0
     fae:	66 27       	eor	r22, r22
     fb0:	78 2f       	mov	r23, r24
     fb2:	89 2f       	mov	r24, r25
     fb4:	9a 2f       	mov	r25, r26
     fb6:	24 e6       	ldi	r18, 0x64	; 100
     fb8:	30 e0       	ldi	r19, 0x00	; 0
     fba:	40 e0       	ldi	r20, 0x00	; 0
     fbc:	50 e0       	ldi	r21, 0x00	; 0
     fbe:	0e 94 84 09 	call	0x1308	; 0x1308 <__udivmodsi4>
     fc2:	39 bd       	out	0x29, r19	; 41
     fc4:	28 bd       	out	0x28, r18	; 40
     fc6:	80 e0       	ldi	r24, 0x00	; 0
     fc8:	08 95       	ret

00000fca <TIMER2_enuInit>:
     fca:	85 b5       	in	r24, 0x25	; 37
     fcc:	87 7b       	andi	r24, 0xB7	; 183
     fce:	85 bd       	out	0x25, r24	; 37
     fd0:	85 b5       	in	r24, 0x25	; 37
     fd2:	80 64       	ori	r24, 0x40	; 64
     fd4:	85 bd       	out	0x25, r24	; 37
     fd6:	85 b5       	in	r24, 0x25	; 37
     fd8:	88 60       	ori	r24, 0x08	; 8
     fda:	85 bd       	out	0x25, r24	; 37
     fdc:	85 b5       	in	r24, 0x25	; 37
     fde:	88 7f       	andi	r24, 0xF8	; 248
     fe0:	85 bd       	out	0x25, r24	; 37
     fe2:	85 b5       	in	r24, 0x25	; 37
     fe4:	8e 7f       	andi	r24, 0xFE	; 254
     fe6:	85 bd       	out	0x25, r24	; 37
     fe8:	85 b5       	in	r24, 0x25	; 37
     fea:	82 60       	ori	r24, 0x02	; 2
     fec:	85 bd       	out	0x25, r24	; 37
     fee:	85 b5       	in	r24, 0x25	; 37
     ff0:	8b 7f       	andi	r24, 0xFB	; 251
     ff2:	85 bd       	out	0x25, r24	; 37
     ff4:	85 b5       	in	r24, 0x25	; 37
     ff6:	8f 7c       	andi	r24, 0xCF	; 207
     ff8:	85 bd       	out	0x25, r24	; 37
     ffa:	85 b5       	in	r24, 0x25	; 37
     ffc:	8f 7e       	andi	r24, 0xEF	; 239
     ffe:	85 bd       	out	0x25, r24	; 37
    1000:	85 b5       	in	r24, 0x25	; 37
    1002:	80 62       	ori	r24, 0x20	; 32
    1004:	85 bd       	out	0x25, r24	; 37
    1006:	80 e0       	ldi	r24, 0x00	; 0
    1008:	08 95       	ret

0000100a <TIMER2_enuGeneratePWM>:
    100a:	90 e0       	ldi	r25, 0x00	; 0
    100c:	a0 e0       	ldi	r26, 0x00	; 0
    100e:	b0 e0       	ldi	r27, 0x00	; 0
    1010:	66 27       	eor	r22, r22
    1012:	78 2f       	mov	r23, r24
    1014:	89 2f       	mov	r24, r25
    1016:	9a 2f       	mov	r25, r26
    1018:	0e 94 f6 08 	call	0x11ec	; 0x11ec <__floatunsisf>
    101c:	20 e0       	ldi	r18, 0x00	; 0
    101e:	30 e0       	ldi	r19, 0x00	; 0
    1020:	48 ec       	ldi	r20, 0xC8	; 200
    1022:	52 e4       	ldi	r21, 0x42	; 66
    1024:	0e 94 55 08 	call	0x10aa	; 0x10aa <__divsf3>
    1028:	60 93 a2 00 	sts	0x00A2, r22	; 0x8000a2 <TIMER2_f32OC2Value>
    102c:	70 93 a3 00 	sts	0x00A3, r23	; 0x8000a3 <TIMER2_f32OC2Value+0x1>
    1030:	80 93 a4 00 	sts	0x00A4, r24	; 0x8000a4 <TIMER2_f32OC2Value+0x2>
    1034:	90 93 a5 00 	sts	0x00A5, r25	; 0x8000a5 <TIMER2_f32OC2Value+0x3>
    1038:	0e 94 c7 08 	call	0x118e	; 0x118e <__fixunssfsi>
    103c:	63 bd       	out	0x23, r22	; 35
    103e:	80 e0       	ldi	r24, 0x00	; 0
    1040:	08 95       	ret

00001042 <Communication_enuInitMaster>:
    1042:	0c 94 0e 07 	jmp	0xe1c	; 0xe1c <I2C_enuInitMaster>

00001046 <Communication_enuSendFrame>:
    1046:	ef 92       	push	r14
    1048:	ff 92       	push	r15
    104a:	1f 93       	push	r17
    104c:	cf 93       	push	r28
    104e:	df 93       	push	r29
    1050:	ec 01       	movw	r28, r24
    1052:	0e 94 18 07 	call	0xe30	; 0xe30 <I2C_enuStartCondition>
    1056:	28 81       	ld	r18, Y
    1058:	99 81       	ldd	r25, Y+1	; 0x01
    105a:	92 0f       	add	r25, r18
    105c:	2a 81       	ldd	r18, Y+2	; 0x02
    105e:	92 0f       	add	r25, r18
    1060:	2b 81       	ldd	r18, Y+3	; 0x03
    1062:	92 0f       	add	r25, r18
    1064:	2c 81       	ldd	r18, Y+4	; 0x04
    1066:	92 0f       	add	r25, r18
    1068:	9d 83       	std	Y+5, r25	; 0x05
    106a:	88 23       	and	r24, r24
    106c:	11 f0       	breq	.+4      	; 0x1072 <Communication_enuSendFrame+0x2c>
    106e:	11 e0       	ldi	r17, 0x01	; 1
    1070:	13 c0       	rjmp	.+38     	; 0x1098 <Communication_enuSendFrame+0x52>
    1072:	60 e0       	ldi	r22, 0x00	; 0
    1074:	81 e0       	ldi	r24, 0x01	; 1
    1076:	0e 94 30 07 	call	0xe60	; 0xe60 <I2C_enuSendSlaveAddress>
    107a:	81 11       	cpse	r24, r1
    107c:	f8 cf       	rjmp	.-16     	; 0x106e <Communication_enuSendFrame+0x28>
    107e:	7e 01       	movw	r14, r28
    1080:	86 e0       	ldi	r24, 0x06	; 6
    1082:	e8 0e       	add	r14, r24
    1084:	f1 1c       	adc	r15, r1
    1086:	89 91       	ld	r24, Y+
    1088:	0e 94 4d 07 	call	0xe9a	; 0xe9a <I2C_enuMasterSendData>
    108c:	18 2f       	mov	r17, r24
    108e:	81 11       	cpse	r24, r1
    1090:	ee cf       	rjmp	.-36     	; 0x106e <Communication_enuSendFrame+0x28>
    1092:	ce 15       	cp	r28, r14
    1094:	df 05       	cpc	r29, r15
    1096:	b9 f7       	brne	.-18     	; 0x1086 <Communication_enuSendFrame+0x40>
    1098:	0e 94 28 07 	call	0xe50	; 0xe50 <I2C_enuStopCondition>
    109c:	81 2f       	mov	r24, r17
    109e:	df 91       	pop	r29
    10a0:	cf 91       	pop	r28
    10a2:	1f 91       	pop	r17
    10a4:	ff 90       	pop	r15
    10a6:	ef 90       	pop	r14
    10a8:	08 95       	ret

000010aa <__divsf3>:
    10aa:	0e 94 69 08 	call	0x10d2	; 0x10d2 <__divsf3x>
    10ae:	0c 94 4a 09 	jmp	0x1294	; 0x1294 <__fp_round>
    10b2:	0e 94 43 09 	call	0x1286	; 0x1286 <__fp_pscB>
    10b6:	58 f0       	brcs	.+22     	; 0x10ce <__divsf3+0x24>
    10b8:	0e 94 3c 09 	call	0x1278	; 0x1278 <__fp_pscA>
    10bc:	40 f0       	brcs	.+16     	; 0x10ce <__divsf3+0x24>
    10be:	29 f4       	brne	.+10     	; 0x10ca <__divsf3+0x20>
    10c0:	5f 3f       	cpi	r21, 0xFF	; 255
    10c2:	29 f0       	breq	.+10     	; 0x10ce <__divsf3+0x24>
    10c4:	0c 94 33 09 	jmp	0x1266	; 0x1266 <__fp_inf>
    10c8:	51 11       	cpse	r21, r1
    10ca:	0c 94 7e 09 	jmp	0x12fc	; 0x12fc <__fp_szero>
    10ce:	0c 94 39 09 	jmp	0x1272	; 0x1272 <__fp_nan>

000010d2 <__divsf3x>:
    10d2:	0e 94 5b 09 	call	0x12b6	; 0x12b6 <__fp_split3>
    10d6:	68 f3       	brcs	.-38     	; 0x10b2 <__divsf3+0x8>

000010d8 <__divsf3_pse>:
    10d8:	99 23       	and	r25, r25
    10da:	b1 f3       	breq	.-20     	; 0x10c8 <__divsf3+0x1e>
    10dc:	55 23       	and	r21, r21
    10de:	91 f3       	breq	.-28     	; 0x10c4 <__divsf3+0x1a>
    10e0:	95 1b       	sub	r25, r21
    10e2:	55 0b       	sbc	r21, r21
    10e4:	bb 27       	eor	r27, r27
    10e6:	aa 27       	eor	r26, r26
    10e8:	62 17       	cp	r22, r18
    10ea:	73 07       	cpc	r23, r19
    10ec:	84 07       	cpc	r24, r20
    10ee:	38 f0       	brcs	.+14     	; 0x10fe <__divsf3_pse+0x26>
    10f0:	9f 5f       	subi	r25, 0xFF	; 255
    10f2:	5f 4f       	sbci	r21, 0xFF	; 255
    10f4:	22 0f       	add	r18, r18
    10f6:	33 1f       	adc	r19, r19
    10f8:	44 1f       	adc	r20, r20
    10fa:	aa 1f       	adc	r26, r26
    10fc:	a9 f3       	breq	.-22     	; 0x10e8 <__divsf3_pse+0x10>
    10fe:	35 d0       	rcall	.+106    	; 0x116a <__divsf3_pse+0x92>
    1100:	0e 2e       	mov	r0, r30
    1102:	3a f0       	brmi	.+14     	; 0x1112 <__divsf3_pse+0x3a>
    1104:	e0 e8       	ldi	r30, 0x80	; 128
    1106:	32 d0       	rcall	.+100    	; 0x116c <__divsf3_pse+0x94>
    1108:	91 50       	subi	r25, 0x01	; 1
    110a:	50 40       	sbci	r21, 0x00	; 0
    110c:	e6 95       	lsr	r30
    110e:	00 1c       	adc	r0, r0
    1110:	ca f7       	brpl	.-14     	; 0x1104 <__divsf3_pse+0x2c>
    1112:	2b d0       	rcall	.+86     	; 0x116a <__divsf3_pse+0x92>
    1114:	fe 2f       	mov	r31, r30
    1116:	29 d0       	rcall	.+82     	; 0x116a <__divsf3_pse+0x92>
    1118:	66 0f       	add	r22, r22
    111a:	77 1f       	adc	r23, r23
    111c:	88 1f       	adc	r24, r24
    111e:	bb 1f       	adc	r27, r27
    1120:	26 17       	cp	r18, r22
    1122:	37 07       	cpc	r19, r23
    1124:	48 07       	cpc	r20, r24
    1126:	ab 07       	cpc	r26, r27
    1128:	b0 e8       	ldi	r27, 0x80	; 128
    112a:	09 f0       	breq	.+2      	; 0x112e <__divsf3_pse+0x56>
    112c:	bb 0b       	sbc	r27, r27
    112e:	80 2d       	mov	r24, r0
    1130:	bf 01       	movw	r22, r30
    1132:	ff 27       	eor	r31, r31
    1134:	93 58       	subi	r25, 0x83	; 131
    1136:	5f 4f       	sbci	r21, 0xFF	; 255
    1138:	3a f0       	brmi	.+14     	; 0x1148 <__divsf3_pse+0x70>
    113a:	9e 3f       	cpi	r25, 0xFE	; 254
    113c:	51 05       	cpc	r21, r1
    113e:	78 f0       	brcs	.+30     	; 0x115e <__divsf3_pse+0x86>
    1140:	0c 94 33 09 	jmp	0x1266	; 0x1266 <__fp_inf>
    1144:	0c 94 7e 09 	jmp	0x12fc	; 0x12fc <__fp_szero>
    1148:	5f 3f       	cpi	r21, 0xFF	; 255
    114a:	e4 f3       	brlt	.-8      	; 0x1144 <__divsf3_pse+0x6c>
    114c:	98 3e       	cpi	r25, 0xE8	; 232
    114e:	d4 f3       	brlt	.-12     	; 0x1144 <__divsf3_pse+0x6c>
    1150:	86 95       	lsr	r24
    1152:	77 95       	ror	r23
    1154:	67 95       	ror	r22
    1156:	b7 95       	ror	r27
    1158:	f7 95       	ror	r31
    115a:	9f 5f       	subi	r25, 0xFF	; 255
    115c:	c9 f7       	brne	.-14     	; 0x1150 <__divsf3_pse+0x78>
    115e:	88 0f       	add	r24, r24
    1160:	91 1d       	adc	r25, r1
    1162:	96 95       	lsr	r25
    1164:	87 95       	ror	r24
    1166:	97 f9       	bld	r25, 7
    1168:	08 95       	ret
    116a:	e1 e0       	ldi	r30, 0x01	; 1
    116c:	66 0f       	add	r22, r22
    116e:	77 1f       	adc	r23, r23
    1170:	88 1f       	adc	r24, r24
    1172:	bb 1f       	adc	r27, r27
    1174:	62 17       	cp	r22, r18
    1176:	73 07       	cpc	r23, r19
    1178:	84 07       	cpc	r24, r20
    117a:	ba 07       	cpc	r27, r26
    117c:	20 f0       	brcs	.+8      	; 0x1186 <__divsf3_pse+0xae>
    117e:	62 1b       	sub	r22, r18
    1180:	73 0b       	sbc	r23, r19
    1182:	84 0b       	sbc	r24, r20
    1184:	ba 0b       	sbc	r27, r26
    1186:	ee 1f       	adc	r30, r30
    1188:	88 f7       	brcc	.-30     	; 0x116c <__divsf3_pse+0x94>
    118a:	e0 95       	com	r30
    118c:	08 95       	ret

0000118e <__fixunssfsi>:
    118e:	0e 94 63 09 	call	0x12c6	; 0x12c6 <__fp_splitA>
    1192:	88 f0       	brcs	.+34     	; 0x11b6 <__fixunssfsi+0x28>
    1194:	9f 57       	subi	r25, 0x7F	; 127
    1196:	98 f0       	brcs	.+38     	; 0x11be <__fixunssfsi+0x30>
    1198:	b9 2f       	mov	r27, r25
    119a:	99 27       	eor	r25, r25
    119c:	b7 51       	subi	r27, 0x17	; 23
    119e:	b0 f0       	brcs	.+44     	; 0x11cc <__fixunssfsi+0x3e>
    11a0:	e1 f0       	breq	.+56     	; 0x11da <__fixunssfsi+0x4c>
    11a2:	66 0f       	add	r22, r22
    11a4:	77 1f       	adc	r23, r23
    11a6:	88 1f       	adc	r24, r24
    11a8:	99 1f       	adc	r25, r25
    11aa:	1a f0       	brmi	.+6      	; 0x11b2 <__fixunssfsi+0x24>
    11ac:	ba 95       	dec	r27
    11ae:	c9 f7       	brne	.-14     	; 0x11a2 <__fixunssfsi+0x14>
    11b0:	14 c0       	rjmp	.+40     	; 0x11da <__fixunssfsi+0x4c>
    11b2:	b1 30       	cpi	r27, 0x01	; 1
    11b4:	91 f0       	breq	.+36     	; 0x11da <__fixunssfsi+0x4c>
    11b6:	0e 94 7d 09 	call	0x12fa	; 0x12fa <__fp_zero>
    11ba:	b1 e0       	ldi	r27, 0x01	; 1
    11bc:	08 95       	ret
    11be:	0c 94 7d 09 	jmp	0x12fa	; 0x12fa <__fp_zero>
    11c2:	67 2f       	mov	r22, r23
    11c4:	78 2f       	mov	r23, r24
    11c6:	88 27       	eor	r24, r24
    11c8:	b8 5f       	subi	r27, 0xF8	; 248
    11ca:	39 f0       	breq	.+14     	; 0x11da <__fixunssfsi+0x4c>
    11cc:	b9 3f       	cpi	r27, 0xF9	; 249
    11ce:	cc f3       	brlt	.-14     	; 0x11c2 <__fixunssfsi+0x34>
    11d0:	86 95       	lsr	r24
    11d2:	77 95       	ror	r23
    11d4:	67 95       	ror	r22
    11d6:	b3 95       	inc	r27
    11d8:	d9 f7       	brne	.-10     	; 0x11d0 <__fixunssfsi+0x42>
    11da:	3e f4       	brtc	.+14     	; 0x11ea <__fixunssfsi+0x5c>
    11dc:	90 95       	com	r25
    11de:	80 95       	com	r24
    11e0:	70 95       	com	r23
    11e2:	61 95       	neg	r22
    11e4:	7f 4f       	sbci	r23, 0xFF	; 255
    11e6:	8f 4f       	sbci	r24, 0xFF	; 255
    11e8:	9f 4f       	sbci	r25, 0xFF	; 255
    11ea:	08 95       	ret

000011ec <__floatunsisf>:
    11ec:	e8 94       	clt
    11ee:	09 c0       	rjmp	.+18     	; 0x1202 <__floatsisf+0x12>

000011f0 <__floatsisf>:
    11f0:	97 fb       	bst	r25, 7
    11f2:	3e f4       	brtc	.+14     	; 0x1202 <__floatsisf+0x12>
    11f4:	90 95       	com	r25
    11f6:	80 95       	com	r24
    11f8:	70 95       	com	r23
    11fa:	61 95       	neg	r22
    11fc:	7f 4f       	sbci	r23, 0xFF	; 255
    11fe:	8f 4f       	sbci	r24, 0xFF	; 255
    1200:	9f 4f       	sbci	r25, 0xFF	; 255
    1202:	99 23       	and	r25, r25
    1204:	a9 f0       	breq	.+42     	; 0x1230 <__floatsisf+0x40>
    1206:	f9 2f       	mov	r31, r25
    1208:	96 e9       	ldi	r25, 0x96	; 150
    120a:	bb 27       	eor	r27, r27
    120c:	93 95       	inc	r25
    120e:	f6 95       	lsr	r31
    1210:	87 95       	ror	r24
    1212:	77 95       	ror	r23
    1214:	67 95       	ror	r22
    1216:	b7 95       	ror	r27
    1218:	f1 11       	cpse	r31, r1
    121a:	f8 cf       	rjmp	.-16     	; 0x120c <__floatsisf+0x1c>
    121c:	fa f4       	brpl	.+62     	; 0x125c <__floatsisf+0x6c>
    121e:	bb 0f       	add	r27, r27
    1220:	11 f4       	brne	.+4      	; 0x1226 <__floatsisf+0x36>
    1222:	60 ff       	sbrs	r22, 0
    1224:	1b c0       	rjmp	.+54     	; 0x125c <__floatsisf+0x6c>
    1226:	6f 5f       	subi	r22, 0xFF	; 255
    1228:	7f 4f       	sbci	r23, 0xFF	; 255
    122a:	8f 4f       	sbci	r24, 0xFF	; 255
    122c:	9f 4f       	sbci	r25, 0xFF	; 255
    122e:	16 c0       	rjmp	.+44     	; 0x125c <__floatsisf+0x6c>
    1230:	88 23       	and	r24, r24
    1232:	11 f0       	breq	.+4      	; 0x1238 <__floatsisf+0x48>
    1234:	96 e9       	ldi	r25, 0x96	; 150
    1236:	11 c0       	rjmp	.+34     	; 0x125a <__floatsisf+0x6a>
    1238:	77 23       	and	r23, r23
    123a:	21 f0       	breq	.+8      	; 0x1244 <__floatsisf+0x54>
    123c:	9e e8       	ldi	r25, 0x8E	; 142
    123e:	87 2f       	mov	r24, r23
    1240:	76 2f       	mov	r23, r22
    1242:	05 c0       	rjmp	.+10     	; 0x124e <__floatsisf+0x5e>
    1244:	66 23       	and	r22, r22
    1246:	71 f0       	breq	.+28     	; 0x1264 <__floatsisf+0x74>
    1248:	96 e8       	ldi	r25, 0x86	; 134
    124a:	86 2f       	mov	r24, r22
    124c:	70 e0       	ldi	r23, 0x00	; 0
    124e:	60 e0       	ldi	r22, 0x00	; 0
    1250:	2a f0       	brmi	.+10     	; 0x125c <__floatsisf+0x6c>
    1252:	9a 95       	dec	r25
    1254:	66 0f       	add	r22, r22
    1256:	77 1f       	adc	r23, r23
    1258:	88 1f       	adc	r24, r24
    125a:	da f7       	brpl	.-10     	; 0x1252 <__floatsisf+0x62>
    125c:	88 0f       	add	r24, r24
    125e:	96 95       	lsr	r25
    1260:	87 95       	ror	r24
    1262:	97 f9       	bld	r25, 7
    1264:	08 95       	ret

00001266 <__fp_inf>:
    1266:	97 f9       	bld	r25, 7
    1268:	9f 67       	ori	r25, 0x7F	; 127
    126a:	80 e8       	ldi	r24, 0x80	; 128
    126c:	70 e0       	ldi	r23, 0x00	; 0
    126e:	60 e0       	ldi	r22, 0x00	; 0
    1270:	08 95       	ret

00001272 <__fp_nan>:
    1272:	9f ef       	ldi	r25, 0xFF	; 255
    1274:	80 ec       	ldi	r24, 0xC0	; 192
    1276:	08 95       	ret

00001278 <__fp_pscA>:
    1278:	00 24       	eor	r0, r0
    127a:	0a 94       	dec	r0
    127c:	16 16       	cp	r1, r22
    127e:	17 06       	cpc	r1, r23
    1280:	18 06       	cpc	r1, r24
    1282:	09 06       	cpc	r0, r25
    1284:	08 95       	ret

00001286 <__fp_pscB>:
    1286:	00 24       	eor	r0, r0
    1288:	0a 94       	dec	r0
    128a:	12 16       	cp	r1, r18
    128c:	13 06       	cpc	r1, r19
    128e:	14 06       	cpc	r1, r20
    1290:	05 06       	cpc	r0, r21
    1292:	08 95       	ret

00001294 <__fp_round>:
    1294:	09 2e       	mov	r0, r25
    1296:	03 94       	inc	r0
    1298:	00 0c       	add	r0, r0
    129a:	11 f4       	brne	.+4      	; 0x12a0 <__fp_round+0xc>
    129c:	88 23       	and	r24, r24
    129e:	52 f0       	brmi	.+20     	; 0x12b4 <__fp_round+0x20>
    12a0:	bb 0f       	add	r27, r27
    12a2:	40 f4       	brcc	.+16     	; 0x12b4 <__fp_round+0x20>
    12a4:	bf 2b       	or	r27, r31
    12a6:	11 f4       	brne	.+4      	; 0x12ac <__fp_round+0x18>
    12a8:	60 ff       	sbrs	r22, 0
    12aa:	04 c0       	rjmp	.+8      	; 0x12b4 <__fp_round+0x20>
    12ac:	6f 5f       	subi	r22, 0xFF	; 255
    12ae:	7f 4f       	sbci	r23, 0xFF	; 255
    12b0:	8f 4f       	sbci	r24, 0xFF	; 255
    12b2:	9f 4f       	sbci	r25, 0xFF	; 255
    12b4:	08 95       	ret

000012b6 <__fp_split3>:
    12b6:	57 fd       	sbrc	r21, 7
    12b8:	90 58       	subi	r25, 0x80	; 128
    12ba:	44 0f       	add	r20, r20
    12bc:	55 1f       	adc	r21, r21
    12be:	59 f0       	breq	.+22     	; 0x12d6 <__fp_splitA+0x10>
    12c0:	5f 3f       	cpi	r21, 0xFF	; 255
    12c2:	71 f0       	breq	.+28     	; 0x12e0 <__fp_splitA+0x1a>
    12c4:	47 95       	ror	r20

000012c6 <__fp_splitA>:
    12c6:	88 0f       	add	r24, r24
    12c8:	97 fb       	bst	r25, 7
    12ca:	99 1f       	adc	r25, r25
    12cc:	61 f0       	breq	.+24     	; 0x12e6 <__fp_splitA+0x20>
    12ce:	9f 3f       	cpi	r25, 0xFF	; 255
    12d0:	79 f0       	breq	.+30     	; 0x12f0 <__fp_splitA+0x2a>
    12d2:	87 95       	ror	r24
    12d4:	08 95       	ret
    12d6:	12 16       	cp	r1, r18
    12d8:	13 06       	cpc	r1, r19
    12da:	14 06       	cpc	r1, r20
    12dc:	55 1f       	adc	r21, r21
    12de:	f2 cf       	rjmp	.-28     	; 0x12c4 <__fp_split3+0xe>
    12e0:	46 95       	lsr	r20
    12e2:	f1 df       	rcall	.-30     	; 0x12c6 <__fp_splitA>
    12e4:	08 c0       	rjmp	.+16     	; 0x12f6 <__fp_splitA+0x30>
    12e6:	16 16       	cp	r1, r22
    12e8:	17 06       	cpc	r1, r23
    12ea:	18 06       	cpc	r1, r24
    12ec:	99 1f       	adc	r25, r25
    12ee:	f1 cf       	rjmp	.-30     	; 0x12d2 <__fp_splitA+0xc>
    12f0:	86 95       	lsr	r24
    12f2:	71 05       	cpc	r23, r1
    12f4:	61 05       	cpc	r22, r1
    12f6:	08 94       	sec
    12f8:	08 95       	ret

000012fa <__fp_zero>:
    12fa:	e8 94       	clt

000012fc <__fp_szero>:
    12fc:	bb 27       	eor	r27, r27
    12fe:	66 27       	eor	r22, r22
    1300:	77 27       	eor	r23, r23
    1302:	cb 01       	movw	r24, r22
    1304:	97 f9       	bld	r25, 7
    1306:	08 95       	ret

00001308 <__udivmodsi4>:
    1308:	a1 e2       	ldi	r26, 0x21	; 33
    130a:	1a 2e       	mov	r1, r26
    130c:	aa 1b       	sub	r26, r26
    130e:	bb 1b       	sub	r27, r27
    1310:	fd 01       	movw	r30, r26
    1312:	0d c0       	rjmp	.+26     	; 0x132e <__udivmodsi4_ep>

00001314 <__udivmodsi4_loop>:
    1314:	aa 1f       	adc	r26, r26
    1316:	bb 1f       	adc	r27, r27
    1318:	ee 1f       	adc	r30, r30
    131a:	ff 1f       	adc	r31, r31
    131c:	a2 17       	cp	r26, r18
    131e:	b3 07       	cpc	r27, r19
    1320:	e4 07       	cpc	r30, r20
    1322:	f5 07       	cpc	r31, r21
    1324:	20 f0       	brcs	.+8      	; 0x132e <__udivmodsi4_ep>
    1326:	a2 1b       	sub	r26, r18
    1328:	b3 0b       	sbc	r27, r19
    132a:	e4 0b       	sbc	r30, r20
    132c:	f5 0b       	sbc	r31, r21

0000132e <__udivmodsi4_ep>:
    132e:	66 1f       	adc	r22, r22
    1330:	77 1f       	adc	r23, r23
    1332:	88 1f       	adc	r24, r24
    1334:	99 1f       	adc	r25, r25
    1336:	1a 94       	dec	r1
    1338:	69 f7       	brne	.-38     	; 0x1314 <__udivmodsi4_loop>
    133a:	60 95       	com	r22
    133c:	70 95       	com	r23
    133e:	80 95       	com	r24
    1340:	90 95       	com	r25
    1342:	9b 01       	movw	r18, r22
    1344:	ac 01       	movw	r20, r24
    1346:	bd 01       	movw	r22, r26
    1348:	cf 01       	movw	r24, r30
    134a:	08 95       	ret

0000134c <__divmodsi4>:
    134c:	05 2e       	mov	r0, r21
    134e:	97 fb       	bst	r25, 7
    1350:	1e f4       	brtc	.+6      	; 0x1358 <__divmodsi4+0xc>
    1352:	00 94       	com	r0
    1354:	0e 94 bd 09 	call	0x137a	; 0x137a <__negsi2>
    1358:	57 fd       	sbrc	r21, 7
    135a:	07 d0       	rcall	.+14     	; 0x136a <__divmodsi4_neg2>
    135c:	0e 94 84 09 	call	0x1308	; 0x1308 <__udivmodsi4>
    1360:	07 fc       	sbrc	r0, 7
    1362:	03 d0       	rcall	.+6      	; 0x136a <__divmodsi4_neg2>
    1364:	4e f4       	brtc	.+18     	; 0x1378 <__divmodsi4_exit>
    1366:	0c 94 bd 09 	jmp	0x137a	; 0x137a <__negsi2>

0000136a <__divmodsi4_neg2>:
    136a:	50 95       	com	r21
    136c:	40 95       	com	r20
    136e:	30 95       	com	r19
    1370:	21 95       	neg	r18
    1372:	3f 4f       	sbci	r19, 0xFF	; 255
    1374:	4f 4f       	sbci	r20, 0xFF	; 255
    1376:	5f 4f       	sbci	r21, 0xFF	; 255

00001378 <__divmodsi4_exit>:
    1378:	08 95       	ret

0000137a <__negsi2>:
    137a:	90 95       	com	r25
    137c:	80 95       	com	r24
    137e:	70 95       	com	r23
    1380:	61 95       	neg	r22
    1382:	7f 4f       	sbci	r23, 0xFF	; 255
    1384:	8f 4f       	sbci	r24, 0xFF	; 255
    1386:	9f 4f       	sbci	r25, 0xFF	; 255
    1388:	08 95       	ret

0000138a <__mulhisi3>:
    138a:	0e 94 cd 09 	call	0x139a	; 0x139a <__umulhisi3>
    138e:	33 23       	and	r19, r19
    1390:	12 f4       	brpl	.+4      	; 0x1396 <__mulhisi3+0xc>
    1392:	8a 1b       	sub	r24, r26
    1394:	9b 0b       	sbc	r25, r27
    1396:	0c 94 de 09 	jmp	0x13bc	; 0x13bc <__usmulhisi3_tail>

0000139a <__umulhisi3>:
    139a:	a2 9f       	mul	r26, r18
    139c:	b0 01       	movw	r22, r0
    139e:	b3 9f       	mul	r27, r19
    13a0:	c0 01       	movw	r24, r0
    13a2:	a3 9f       	mul	r26, r19
    13a4:	70 0d       	add	r23, r0
    13a6:	81 1d       	adc	r24, r1
    13a8:	11 24       	eor	r1, r1
    13aa:	91 1d       	adc	r25, r1
    13ac:	b2 9f       	mul	r27, r18
    13ae:	70 0d       	add	r23, r0
    13b0:	81 1d       	adc	r24, r1
    13b2:	11 24       	eor	r1, r1
    13b4:	91 1d       	adc	r25, r1
    13b6:	08 95       	ret

000013b8 <__usmulhisi3>:
    13b8:	0e 94 cd 09 	call	0x139a	; 0x139a <__umulhisi3>

000013bc <__usmulhisi3_tail>:
    13bc:	b7 ff       	sbrs	r27, 7
    13be:	08 95       	ret
    13c0:	82 1b       	sub	r24, r18
    13c2:	93 0b       	sbc	r25, r19
    13c4:	08 95       	ret

000013c6 <_exit>:
    13c6:	f8 94       	cli

000013c8 <__stop_program>:
    13c8:	ff cf       	rjmp	.-2      	; 0x13c8 <__stop_program>
